ARM GAS  C:\Users\Herry\AppData\Local\Temp\ccYMjBLh.s 			page 1


   1              		.cpu cortex-m0
   2              		.fpu softvfp
   3              		.eabi_attribute 20, 1
   4              		.eabi_attribute 21, 1
   5              		.eabi_attribute 23, 3
   6              		.eabi_attribute 24, 1
   7              		.eabi_attribute 25, 1
   8              		.eabi_attribute 26, 1
   9              		.eabi_attribute 30, 6
  10              		.eabi_attribute 34, 0
  11              		.eabi_attribute 18, 4
  12              		.code	16
  13              		.file	"bas.c"
  14              		.text
  15              	.Ltext0:
  16              		.cfi_sections	.debug_frame
  17              		.global	batterySimulationNotify
  18              		.bss
  19              		.align	1
  20              		.type	batterySimulationNotify, %object
  21              		.size	batterySimulationNotify, 2
  22              	batterySimulationNotify:
  23 0000 0000     		.space	2
  24              		.section	.rodata
  25              		.align	2
  26              	.LC0:
  27 0000 42415320 		.ascii	"BAS event: %lx, \000"
  27      6576656E 
  27      743A2025 
  27      6C782C20 
  27      00
  28 0011 000000   		.align	2
  29              	.LC3:
  30 0014 4359424C 		.ascii	"CYBLE_EVT_BASS_NOTIFICATION_ENABLED: %x \015\012\000"
  30      455F4556 
  30      545F4241 
  30      53535F4E 
  30      4F544946 
  31 003f 00       		.align	2
  32              	.LC6:
  33 0040 4359424C 		.ascii	"CYBLE_EVT_BASS_NOTIFICATION_DISABLED: %x \015\012\000"
  33      455F4556 
  33      545F4241 
  33      53535F4E 
  33      4F544946 
  34              		.align	2
  35              	.LC8:
  36 006c 4E6F7420 		.ascii	"Not supported event\015\000"
  36      73757070 
  36      6F727465 
  36      64206576 
  36      656E740D 
  37              		.section	.text.BasCallBack,"ax",%progbits
  38              		.align	2
  39              		.global	BasCallBack
  40              		.code	16
  41              		.thumb_func
ARM GAS  C:\Users\Herry\AppData\Local\Temp\ccYMjBLh.s 			page 2


  42              		.type	BasCallBack, %function
  43              	BasCallBack:
  44              	.LFB37:
  45              		.file 1 ".\\bas.c"
   1:.\bas.c       **** /*******************************************************************************
   2:.\bas.c       **** * File Name: bas.c
   3:.\bas.c       **** *
   4:.\bas.c       **** * Version: 1.0
   5:.\bas.c       **** *
   6:.\bas.c       **** * Description:
   7:.\bas.c       **** *  This file contains BAS callback handler function.
   8:.\bas.c       **** *
   9:.\bas.c       **** * Hardware Dependency:
  10:.\bas.c       **** *  CY8CKIT-042 BLE
  11:.\bas.c       **** * 
  12:.\bas.c       **** ********************************************************************************
  13:.\bas.c       **** * Copyright 2015, Cypress Semiconductor Corporation.  All rights reserved.
  14:.\bas.c       **** * You may use this file only in accordance with the license, terms, conditions,
  15:.\bas.c       **** * disclaimers, and limitations in the end user license agreement accompanying
  16:.\bas.c       **** * the software package with which this file was provided.
  17:.\bas.c       **** *******************************************************************************/
  18:.\bas.c       **** 
  19:.\bas.c       **** #include "common.h"
  20:.\bas.c       **** #include "bas.h"
  21:.\bas.c       **** 
  22:.\bas.c       **** #if (BAS_SIMULATE_ENABLE != 0)
  23:.\bas.c       **** uint16 batterySimulationNotify = 0u;
  24:.\bas.c       **** #endif /* (BAS_SIMULATE_ENABLE != 0) */
  25:.\bas.c       **** 
  26:.\bas.c       **** #if (BAS_MEASURE_ENABLE != 0)
  27:.\bas.c       **** uint16 batteryMeasureNotify = 0u;
  28:.\bas.c       **** #endif /* (BAS_MEASURE_ENABLE != 0) */
  29:.\bas.c       **** 
  30:.\bas.c       **** 
  31:.\bas.c       **** /*******************************************************************************
  32:.\bas.c       **** * Function Name: BasCallBack()
  33:.\bas.c       **** ********************************************************************************
  34:.\bas.c       **** *
  35:.\bas.c       **** * Summary:
  36:.\bas.c       **** *   This is an event callback function to receive service specific events from 
  37:.\bas.c       **** *   Battery Service.
  38:.\bas.c       **** *
  39:.\bas.c       **** * Parameters:
  40:.\bas.c       **** *  event - the event code
  41:.\bas.c       **** *  *eventParam - the event parameters
  42:.\bas.c       **** *
  43:.\bas.c       **** * Return:
  44:.\bas.c       **** *  None.
  45:.\bas.c       **** *
  46:.\bas.c       **** *******************************************************************************/
  47:.\bas.c       **** void BasCallBack(uint32 event, void *eventParam)
  48:.\bas.c       **** {
  46              		.loc 1 48 0
  47              		.cfi_startproc
  48 0000 80B5     		push	{r7, lr}
  49              		.cfi_def_cfa_offset 8
  50              		.cfi_offset 7, -8
ARM GAS  C:\Users\Herry\AppData\Local\Temp\ccYMjBLh.s 			page 3


  51              		.cfi_offset 14, -4
  52 0002 84B0     		sub	sp, sp, #16
  53              		.cfi_def_cfa_offset 24
  54 0004 00AF     		add	r7, sp, #0
  55              		.cfi_def_cfa_register 7
  56 0006 7860     		str	r0, [r7, #4]
  57 0008 3960     		str	r1, [r7]
  49:.\bas.c       ****     uint8 locServiceIndex;
  50:.\bas.c       ****     
  51:.\bas.c       ****     locServiceIndex = ((CYBLE_BAS_CHAR_VALUE_T *)eventParam)->serviceIndex;
  58              		.loc 1 51 0
  59 000a 0F23     		mov	r3, #15
  60 000c FB18     		add	r3, r7, r3
  61 000e 3A68     		ldr	r2, [r7]
  62 0010 9278     		ldrb	r2, [r2, #2]
  63 0012 1A70     		strb	r2, [r3]
  52:.\bas.c       ****     DBG_PRINTF("BAS event: %lx, ", event);
  64              		.loc 1 52 0
  65 0014 1E4A     		ldr	r2, .L14
  66 0016 7B68     		ldr	r3, [r7, #4]
  67 0018 101C     		mov	r0, r2
  68 001a 191C     		mov	r1, r3
  69 001c FFF7FEFF 		bl	printf
  53:.\bas.c       ****     
  54:.\bas.c       ****     switch(event)
  70              		.loc 1 54 0
  71 0020 7B68     		ldr	r3, [r7, #4]
  72 0022 243B     		sub	r3, r3, #36
  73 0024 FF3B     		sub	r3, r3, #255
  74 0026 052B     		cmp	r3, #5
  75 0028 28D8     		bhi	.L2
  76 002a 9A00     		lsl	r2, r3, #2
  77 002c 194B     		ldr	r3, .L14+4
  78 002e D318     		add	r3, r2, r3
  79 0030 1B68     		ldr	r3, [r3]
  80 0032 9F46     		mov	pc, r3
  81              		.section	.rodata
  82 0081 000000   		.align	2
  83              	.L4:
  84 0084 34000000 		.word	.L3
  85 0088 58000000 		.word	.L5
  86 008c 88000000 		.word	.L13
  87 0090 88000000 		.word	.L13
  88 0094 88000000 		.word	.L13
  89 0098 88000000 		.word	.L13
  90              		.section	.text.BasCallBack
  91              	.L3:
  55:.\bas.c       ****     {
  56:.\bas.c       ****         case CYBLE_EVT_BASS_NOTIFICATION_ENABLED:
  57:.\bas.c       ****             DBG_PRINTF("CYBLE_EVT_BASS_NOTIFICATION_ENABLED: %x \r\n", locServiceIndex);
  92              		.loc 1 57 0
  93 0034 0F23     		mov	r3, #15
  94 0036 FB18     		add	r3, r7, r3
  95 0038 1B78     		ldrb	r3, [r3]
  96 003a 174A     		ldr	r2, .L14+8
  97 003c 101C     		mov	r0, r2
  98 003e 191C     		mov	r1, r3
ARM GAS  C:\Users\Herry\AppData\Local\Temp\ccYMjBLh.s 			page 4


  99 0040 FFF7FEFF 		bl	printf
  58:.\bas.c       ****         #if (BAS_SIMULATE_ENABLE != 0)
  59:.\bas.c       ****             if(BAS_SERVICE_SIMULATE == locServiceIndex)
 100              		.loc 1 59 0
 101 0044 0F23     		mov	r3, #15
 102 0046 FB18     		add	r3, r7, r3
 103 0048 1B78     		ldrb	r3, [r3]
 104 004a 002B     		cmp	r3, #0
 105 004c 03D1     		bne	.L10
  60:.\bas.c       ****             {
  61:.\bas.c       ****                 batterySimulationNotify = ENABLED;
 106              		.loc 1 61 0
 107 004e 134B     		ldr	r3, .L14+12
 108 0050 0122     		mov	r2, #1
 109 0052 1A80     		strh	r2, [r3]
  62:.\bas.c       ****             }
  63:.\bas.c       ****         #endif /*  (BAS_SIMULATE_ENABLE != 0) */        
  64:.\bas.c       ****         #if (BAS_MEASURE_ENABLE != 0)
  65:.\bas.c       ****             if(BAS_SERVICE_MEASURE == locServiceIndex)
  66:.\bas.c       ****             {
  67:.\bas.c       ****                 batteryMeasureNotify = ENABLED;
  68:.\bas.c       ****             }
  69:.\bas.c       ****         #endif /*  (BAS_MEASURE_ENABLE != 0) */     
  70:.\bas.c       ****             break;
 110              		.loc 1 70 0
 111 0054 19E0     		b	.L1
 112              	.L10:
 113 0056 18E0     		b	.L1
 114              	.L5:
  71:.\bas.c       ****         case CYBLE_EVT_BASS_NOTIFICATION_DISABLED:
  72:.\bas.c       ****             DBG_PRINTF("CYBLE_EVT_BASS_NOTIFICATION_DISABLED: %x \r\n", locServiceIndex);
 115              		.loc 1 72 0
 116 0058 0F23     		mov	r3, #15
 117 005a FB18     		add	r3, r7, r3
 118 005c 1B78     		ldrb	r3, [r3]
 119 005e 104A     		ldr	r2, .L14+16
 120 0060 101C     		mov	r0, r2
 121 0062 191C     		mov	r1, r3
 122 0064 FFF7FEFF 		bl	printf
  73:.\bas.c       ****         #if (BAS_SIMULATE_ENABLE != 0)
  74:.\bas.c       ****             if(BAS_SERVICE_SIMULATE == locServiceIndex)
 123              		.loc 1 74 0
 124 0068 0F23     		mov	r3, #15
 125 006a FB18     		add	r3, r7, r3
 126 006c 1B78     		ldrb	r3, [r3]
 127 006e 002B     		cmp	r3, #0
 128 0070 03D1     		bne	.L12
  75:.\bas.c       ****             {
  76:.\bas.c       ****                 batterySimulationNotify = DISABLED;
 129              		.loc 1 76 0
 130 0072 0A4B     		ldr	r3, .L14+12
 131 0074 0022     		mov	r2, #0
 132 0076 1A80     		strh	r2, [r3]
  77:.\bas.c       ****             }
  78:.\bas.c       ****         #endif /*  (BAS_SIMULATE_ENABLE != 0) */        
  79:.\bas.c       ****         #if (BAS_MEASURE_ENABLE != 0)
  80:.\bas.c       ****             if(BAS_SERVICE_MEASURE == locServiceIndex)
ARM GAS  C:\Users\Herry\AppData\Local\Temp\ccYMjBLh.s 			page 5


  81:.\bas.c       ****             {
  82:.\bas.c       ****                 batteryMeasureNotify = DISABLED;
  83:.\bas.c       ****             }
  84:.\bas.c       ****         #endif /*  (BAS_MEASURE_ENABLE != 0) */     
  85:.\bas.c       ****             break;
 133              		.loc 1 85 0
 134 0078 07E0     		b	.L1
 135              	.L12:
 136 007a 06E0     		b	.L1
 137              	.L2:
  86:.\bas.c       ****         case CYBLE_EVT_BASC_NOTIFICATION:
  87:.\bas.c       ****             break;
  88:.\bas.c       ****         case CYBLE_EVT_BASC_READ_CHAR_RESPONSE:
  89:.\bas.c       ****             break;
  90:.\bas.c       ****         case CYBLE_EVT_BASC_READ_DESCR_RESPONSE:
  91:.\bas.c       ****             break;
  92:.\bas.c       ****         case CYBLE_EVT_BASC_WRITE_DESCR_RESPONSE:
  93:.\bas.c       ****             break;
  94:.\bas.c       **** 		default:
  95:.\bas.c       ****             DBG_PRINTF("Not supported event\r\n");
 138              		.loc 1 95 0
 139 007c 094B     		ldr	r3, .L14+20
 140 007e 181C     		mov	r0, r3
 141 0080 FFF7FEFF 		bl	puts
  96:.\bas.c       **** 			break;
 142              		.loc 1 96 0
 143 0084 C046     		mov	r8, r8
 144 0086 00E0     		b	.L1
 145              	.L13:
  93:.\bas.c       **** 		default:
 146              		.loc 1 93 0
 147 0088 C046     		mov	r8, r8
 148              	.L1:
  97:.\bas.c       ****     }
  98:.\bas.c       **** }
 149              		.loc 1 98 0
 150 008a BD46     		mov	sp, r7
 151 008c 04B0     		add	sp, sp, #16
 152              		@ sp needed
 153 008e 80BD     		pop	{r7, pc}
 154              	.L15:
 155              		.align	2
 156              	.L14:
 157 0090 00000000 		.word	.LC0
 158 0094 84000000 		.word	.L4
 159 0098 14000000 		.word	.LC3
 160 009c 00000000 		.word	batterySimulationNotify
 161 00a0 40000000 		.word	.LC6
 162 00a4 6C000000 		.word	.LC8
 163              		.cfi_endproc
 164              	.LFE37:
 165              		.size	BasCallBack, .-BasCallBack
 166              		.section	.text.BasInit,"ax",%progbits
 167              		.align	2
 168              		.global	BasInit
 169              		.code	16
 170              		.thumb_func
ARM GAS  C:\Users\Herry\AppData\Local\Temp\ccYMjBLh.s 			page 6


 171              		.type	BasInit, %function
 172              	BasInit:
 173              	.LFB38:
  99:.\bas.c       **** 
 100:.\bas.c       **** 
 101:.\bas.c       **** /*******************************************************************************
 102:.\bas.c       **** * Function Name: BasInit()
 103:.\bas.c       **** ********************************************************************************
 104:.\bas.c       **** *
 105:.\bas.c       **** * Summary:
 106:.\bas.c       **** *   Initializes the battery service.
 107:.\bas.c       **** *
 108:.\bas.c       **** *******************************************************************************/
 109:.\bas.c       **** void BasInit(void)
 110:.\bas.c       **** {
 174              		.loc 1 110 0
 175              		.cfi_startproc
 176 0000 90B5     		push	{r4, r7, lr}
 177              		.cfi_def_cfa_offset 12
 178              		.cfi_offset 4, -12
 179              		.cfi_offset 7, -8
 180              		.cfi_offset 14, -4
 181 0002 85B0     		sub	sp, sp, #20
 182              		.cfi_def_cfa_offset 32
 183 0004 02AF     		add	r7, sp, #8
 184              		.cfi_def_cfa 7, 24
 111:.\bas.c       ****     CYBLE_API_RESULT_T apiResult;
 112:.\bas.c       ****     uint16 cccdValue;
 113:.\bas.c       ****     
 114:.\bas.c       ****     /* Register service specific callback function */
 115:.\bas.c       ****     CyBle_BasRegisterAttrCallback(BasCallBack);
 185              		.loc 1 115 0
 186 0006 104B     		ldr	r3, .L18
 187 0008 181C     		mov	r0, r3
 188 000a FFF7FEFF 		bl	CyBle_BasRegisterAttrCallback
 116:.\bas.c       **** 
 117:.\bas.c       ****     /* Read CCCD configurations from flash */
 118:.\bas.c       **** #if (BAS_SIMULATE_ENABLE != 0)
 119:.\bas.c       ****     apiResult = CyBle_BassGetCharacteristicDescriptor(BAS_SERVICE_SIMULATE, CYBLE_BAS_BATTERY_LEVEL
 189              		.loc 1 119 0
 190 000e BC1D     		add	r4, r7, #6
 191 0010 3B1D     		add	r3, r7, #4
 192 0012 0093     		str	r3, [sp]
 193 0014 0020     		mov	r0, #0
 194 0016 0021     		mov	r1, #0
 195 0018 0022     		mov	r2, #0
 196 001a 0223     		mov	r3, #2
 197 001c FFF7FEFF 		bl	CyBle_BassGetCharacteristicDescriptor
 198 0020 031C     		mov	r3, r0
 199 0022 2380     		strh	r3, [r4]
 120:.\bas.c       ****         CYBLE_BAS_BATTERY_LEVEL_CCCD, CYBLE_CCCD_LEN, (uint8 *)&cccdValue);
 121:.\bas.c       ****     if((apiResult == CYBLE_ERROR_OK) && (cccdValue != 0u))
 200              		.loc 1 121 0
 201 0024 BB1D     		add	r3, r7, #6
 202 0026 1B88     		ldrh	r3, [r3]
 203 0028 002B     		cmp	r3, #0
 204 002a 0AD1     		bne	.L16
ARM GAS  C:\Users\Herry\AppData\Local\Temp\ccYMjBLh.s 			page 7


 205              		.loc 1 121 0 is_stmt 0 discriminator 1
 206 002c 3B1D     		add	r3, r7, #4
 207 002e 1B88     		ldrh	r3, [r3]
 208 0030 002B     		cmp	r3, #0
 209 0032 06D0     		beq	.L16
 122:.\bas.c       ****     {
 123:.\bas.c       ****         batterySimulationNotify |= ENABLED;
 210              		.loc 1 123 0 is_stmt 1
 211 0034 054B     		ldr	r3, .L18+4
 212 0036 1B88     		ldrh	r3, [r3]
 213 0038 0122     		mov	r2, #1
 214 003a 1343     		orr	r3, r2
 215 003c 9AB2     		uxth	r2, r3
 216 003e 034B     		ldr	r3, .L18+4
 217 0040 1A80     		strh	r2, [r3]
 218              	.L16:
 124:.\bas.c       ****     }
 125:.\bas.c       **** #endif /* (BAS_SIMULATE_ENABLE != 0) */
 126:.\bas.c       **** #if (BAS_MEASURE_ENABLE != 0)
 127:.\bas.c       ****     apiResult = CyBle_BassGetCharacteristicDescriptor(BAS_SERVICE_MEASURE, CYBLE_BAS_BATTERY_LEVEL,
 128:.\bas.c       ****         CYBLE_BAS_BATTERY_LEVEL_CCCD, CYBLE_CCCD_LEN, (uint8 *)&cccdValue);
 129:.\bas.c       ****     if((apiResult == CYBLE_ERROR_OK) && (cccdValue != 0u))
 130:.\bas.c       ****     {
 131:.\bas.c       ****         batteryMeasureNotify |= ENABLED;
 132:.\bas.c       ****     }
 133:.\bas.c       **** #endif /* (BAS_MEASURE_ENABLE != 0) */
 134:.\bas.c       **** }
 219              		.loc 1 134 0
 220 0042 BD46     		mov	sp, r7
 221 0044 03B0     		add	sp, sp, #12
 222              		@ sp needed
 223 0046 90BD     		pop	{r4, r7, pc}
 224              	.L19:
 225              		.align	2
 226              	.L18:
 227 0048 00000000 		.word	BasCallBack
 228 004c 00000000 		.word	batterySimulationNotify
 229              		.cfi_endproc
 230              	.LFE38:
 231              		.size	BasInit, .-BasInit
 232              		.section	.rodata
 233              		.align	2
 234              	.LC17:
 235 009c 41504920 		.ascii	"API Error: %x \015\012\000"
 235      4572726F 
 235      723A2025 
 235      78200D0A 
 235      00
 236 00ad 000000   		.align	2
 237              	.LC19:
 238 00b0 53696D75 		.ascii	"SimulBatteryLevelUpdate: %d \015\012\000"
 238      6C426174 
 238      74657279 
 238      4C657665 
 238      6C557064 
 239 00cf 00       		.section	.text.SimulateBattery,"ax",%progbits
 240              		.align	2
ARM GAS  C:\Users\Herry\AppData\Local\Temp\ccYMjBLh.s 			page 8


 241              		.global	SimulateBattery
 242              		.code	16
 243              		.thumb_func
 244              		.type	SimulateBattery, %function
 245              	SimulateBattery:
 246              	.LFB39:
 135:.\bas.c       **** 
 136:.\bas.c       **** 
 137:.\bas.c       **** #if (BAS_MEASURE_ENABLE != 0)
 138:.\bas.c       ****     
 139:.\bas.c       **** 
 140:.\bas.c       **** /*******************************************************************************
 141:.\bas.c       **** * Function Name: MeasureBattery()
 142:.\bas.c       **** ********************************************************************************
 143:.\bas.c       **** *
 144:.\bas.c       **** * Summary:
 145:.\bas.c       **** *   This function measures the battery voltage and sends it to the client.
 146:.\bas.c       **** *
 147:.\bas.c       **** *******************************************************************************/
 148:.\bas.c       **** void MeasureBattery(void)
 149:.\bas.c       **** {
 150:.\bas.c       **** 	int16 adcResult;
 151:.\bas.c       ****     int32 mvolts;
 152:.\bas.c       **** 	uint32 sarControlReg;
 153:.\bas.c       ****     uint8 batteryLevel;
 154:.\bas.c       ****     CYBLE_API_RESULT_T apiResult;
 155:.\bas.c       ****     
 156:.\bas.c       ****     static uint32 batteryTimer = BATTERY_TIMEOUT;
 157:.\bas.c       ****     
 158:.\bas.c       ****     if(--batteryTimer == 0u) 
 159:.\bas.c       ****     {
 160:.\bas.c       ****         batteryTimer = BATTERY_TIMEOUT;
 161:.\bas.c       ****         
 162:.\bas.c       ****     	/* Set the reference to VBG and enable reference bypass */
 163:.\bas.c       ****     	sarControlReg = ADC_SAR_CTRL_REG & ~ADC_VREF_MASK;
 164:.\bas.c       ****     	ADC_SAR_CTRL_REG = sarControlReg | ADC_VREF_INTERNAL1024BYPASSED;
 165:.\bas.c       ****     	
 166:.\bas.c       ****     	/* 25 ms delay for reference capacitor to charge */
 167:.\bas.c       ****     	CyDelay(25);             
 168:.\bas.c       ****     	
 169:.\bas.c       ****     	/* Set the reference to VDD and disable reference bypass */
 170:.\bas.c       ****     	sarControlReg = ADC_SAR_CTRL_REG & ~ADC_VREF_MASK;
 171:.\bas.c       ****     	ADC_SAR_CTRL_REG = sarControlReg | ADC_VREF_VDDA;
 172:.\bas.c       **** 
 173:.\bas.c       ****     	/* Perform a measurement. Store this value in Vref. */
 174:.\bas.c       ****     	CyDelay(1);
 175:.\bas.c       ****     	ADC_StartConvert();
 176:.\bas.c       ****     	ADC_IsEndConversion(ADC_WAIT_FOR_RESULT);
 177:.\bas.c       **** 
 178:.\bas.c       ****         adcResult = ADC_GetResult16(ADC_BATTERY_CHANNEL);
 179:.\bas.c       ****     	/* Calculate input voltage by using ratio of ADC counts from reference
 180:.\bas.c       ****     	*  and ADC Full Scale counts. 
 181:.\bas.c       ****         */
 182:.\bas.c       ****     	mvolts = (1024 * 2048) / adcResult;
 183:.\bas.c       ****         
 184:.\bas.c       ****         /* Convert battery level voltage to percentage using linear approximation
 185:.\bas.c       ****         *  divided to two sections according to typical performance of 
ARM GAS  C:\Users\Herry\AppData\Local\Temp\ccYMjBLh.s 			page 9


 186:.\bas.c       ****         *  CR2033 battery specification:
 187:.\bas.c       ****         *  3V - 100%
 188:.\bas.c       ****         *  2.8V - 29%
 189:.\bas.c       ****         *  2.0V - 0%
 190:.\bas.c       ****         */
 191:.\bas.c       ****         if(mvolts < MEASURE_BATTERY_MIN)
 192:.\bas.c       ****         {
 193:.\bas.c       ****             batteryLevel = 0;
 194:.\bas.c       ****         }
 195:.\bas.c       ****         else if(mvolts < MEASURE_BATTERY_MID)
 196:.\bas.c       ****         {
 197:.\bas.c       ****             batteryLevel = (mvolts - MEASURE_BATTERY_MIN) * MEASURE_BATTERY_MID_PERCENT / 
 198:.\bas.c       ****                            (MEASURE_BATTERY_MID - MEASURE_BATTERY_MIN); 
 199:.\bas.c       ****         }
 200:.\bas.c       ****         else if(mvolts < MEASURE_BATTERY_MAX)
 201:.\bas.c       ****         {
 202:.\bas.c       ****             batteryLevel = MEASURE_BATTERY_MID_PERCENT +
 203:.\bas.c       ****                            (mvolts - MEASURE_BATTERY_MID) * (100 - MEASURE_BATTERY_MID_PERCENT) / 
 204:.\bas.c       ****                            (MEASURE_BATTERY_MAX - MEASURE_BATTERY_MID); 
 205:.\bas.c       ****         }
 206:.\bas.c       ****         else
 207:.\bas.c       ****         {
 208:.\bas.c       ****             batteryLevel = CYBLE_BAS_MAX_BATTERY_LEVEL_VALUE;
 209:.\bas.c       ****         }
 210:.\bas.c       ****     #if (BAS_MEASURE_LP_LED != 0u)
 211:.\bas.c       ****         if(batteryLevel < LOW_BATTERY_LIMIT)
 212:.\bas.c       ****         {
 213:.\bas.c       ****             LowPower_LED_Write(LED_ON);
 214:.\bas.c       ****         }
 215:.\bas.c       ****         else
 216:.\bas.c       ****         {
 217:.\bas.c       ****             LowPower_LED_Write(LED_OFF);
 218:.\bas.c       ****         }
 219:.\bas.c       ****     #endif /* (BAS_MEASURE_LP_LED != 0u) */
 220:.\bas.c       ****     
 221:.\bas.c       ****         if(batteryMeasureNotify == ENABLED)
 222:.\bas.c       ****         {
 223:.\bas.c       ****             /* Update Battery Level characteristic value and send Notification */
 224:.\bas.c       ****             apiResult = CyBle_BassSendNotification(cyBle_connHandle, BAS_SERVICE_MEASURE, CYBLE_BAS
 225:.\bas.c       ****                 sizeof(batteryLevel), &batteryLevel);
 226:.\bas.c       ****         }
 227:.\bas.c       ****         else
 228:.\bas.c       ****         {
 229:.\bas.c       ****             /* Update Battery Level characteristic value */
 230:.\bas.c       ****             apiResult = CyBle_BassSetCharacteristicValue(BAS_SERVICE_MEASURE, 
 231:.\bas.c       ****                 CYBLE_BAS_BATTERY_LEVEL, sizeof(batteryLevel), &batteryLevel);
 232:.\bas.c       ****         }
 233:.\bas.c       ****             
 234:.\bas.c       ****         if(apiResult != CYBLE_ERROR_OK)
 235:.\bas.c       ****         {
 236:.\bas.c       ****             DBG_PRINTF("API Error: %x \r\n", apiResult);
 237:.\bas.c       ****             batteryMeasureNotify = DISABLED;
 238:.\bas.c       ****         }
 239:.\bas.c       ****         else
 240:.\bas.c       ****         {
 241:.\bas.c       ****             DBG_PRINTF("MeasureBatteryLevelUpdate: %d \r\n",batteryLevel);
 242:.\bas.c       ****         }
ARM GAS  C:\Users\Herry\AppData\Local\Temp\ccYMjBLh.s 			page 10


 243:.\bas.c       ****     }
 244:.\bas.c       **** }
 245:.\bas.c       **** 
 246:.\bas.c       **** #endif /*  (BAS_MEASURE_ENABLE != 0) */
 247:.\bas.c       **** 
 248:.\bas.c       **** #if (BAS_SIMULATE_ENABLE != 0)
 249:.\bas.c       **** 
 250:.\bas.c       **** 
 251:.\bas.c       **** /*******************************************************************************
 252:.\bas.c       **** * Function Name: SimulateBattery()
 253:.\bas.c       **** ********************************************************************************
 254:.\bas.c       **** *
 255:.\bas.c       **** * Summary:
 256:.\bas.c       **** *   The custom function to simulate Battery Voltage.
 257:.\bas.c       **** *
 258:.\bas.c       **** *******************************************************************************/
 259:.\bas.c       **** void SimulateBattery(void)
 260:.\bas.c       **** {
 247              		.loc 1 260 0
 248              		.cfi_startproc
 249 0000 90B5     		push	{r4, r7, lr}
 250              		.cfi_def_cfa_offset 12
 251              		.cfi_offset 4, -12
 252              		.cfi_offset 7, -8
 253              		.cfi_offset 14, -4
 254 0002 85B0     		sub	sp, sp, #20
 255              		.cfi_def_cfa_offset 32
 256 0004 02AF     		add	r7, sp, #8
 257              		.cfi_def_cfa 7, 24
 261:.\bas.c       ****     static uint32 batteryTimer = BATTERY_TIMEOUT;
 262:.\bas.c       ****     static uint8 batteryLevel = SIM_BATTERY_MIN;
 263:.\bas.c       ****     CYBLE_API_RESULT_T apiResult;
 264:.\bas.c       ****     
 265:.\bas.c       ****     if((CyBle_GattGetBusyStatus() == CYBLE_STACK_STATE_FREE) && (--batteryTimer == 0u))
 258              		.loc 1 265 0
 259 0006 2E4B     		ldr	r3, .L26
 260 0008 1B78     		ldrb	r3, [r3]
 261 000a DBB2     		uxtb	r3, r3
 262 000c 002B     		cmp	r3, #0
 263 000e 53D1     		bne	.L20
 264              		.loc 1 265 0 is_stmt 0 discriminator 1
 265 0010 2C4B     		ldr	r3, .L26+4
 266 0012 1B68     		ldr	r3, [r3]
 267 0014 5A1E     		sub	r2, r3, #1
 268 0016 2B4B     		ldr	r3, .L26+4
 269 0018 1A60     		str	r2, [r3]
 270 001a 2A4B     		ldr	r3, .L26+4
 271 001c 1B68     		ldr	r3, [r3]
 272 001e 002B     		cmp	r3, #0
 273 0020 4AD1     		bne	.L20
 266:.\bas.c       ****     {
 267:.\bas.c       ****         batteryTimer = BATTERY_TIMEOUT;
 274              		.loc 1 267 0 is_stmt 1
 275 0022 284B     		ldr	r3, .L26+4
 276 0024 3222     		mov	r2, #50
 277 0026 1A60     		str	r2, [r3]
 268:.\bas.c       ****         
ARM GAS  C:\Users\Herry\AppData\Local\Temp\ccYMjBLh.s 			page 11


 269:.\bas.c       ****         /* Battery Level simulation */
 270:.\bas.c       ****         batteryLevel += SIM_BATTERY_INCREMENT;
 278              		.loc 1 270 0
 279 0028 274B     		ldr	r3, .L26+8
 280 002a 1B78     		ldrb	r3, [r3]
 281 002c 0133     		add	r3, r3, #1
 282 002e DAB2     		uxtb	r2, r3
 283 0030 254B     		ldr	r3, .L26+8
 284 0032 1A70     		strb	r2, [r3]
 271:.\bas.c       ****         if(batteryLevel > SIM_BATTERY_MAX)
 285              		.loc 1 271 0
 286 0034 244B     		ldr	r3, .L26+8
 287 0036 1B78     		ldrb	r3, [r3]
 288 0038 142B     		cmp	r3, #20
 289 003a 02D9     		bls	.L22
 272:.\bas.c       ****         {
 273:.\bas.c       ****             batteryLevel = SIM_BATTERY_MIN; 
 290              		.loc 1 273 0
 291 003c 224B     		ldr	r3, .L26+8
 292 003e 0222     		mov	r2, #2
 293 0040 1A70     		strb	r2, [r3]
 294              	.L22:
 274:.\bas.c       ****         }
 275:.\bas.c       ****         
 276:.\bas.c       ****         if(batterySimulationNotify == ENABLED)
 295              		.loc 1 276 0
 296 0042 224B     		ldr	r3, .L26+12
 297 0044 1B88     		ldrh	r3, [r3]
 298 0046 012B     		cmp	r3, #1
 299 0048 16D1     		bne	.L23
 277:.\bas.c       ****         {
 278:.\bas.c       ****             /* Update Battery Level characteristic value and send Notification */
 279:.\bas.c       ****              apiResult = CyBle_BassSendNotification(cyBle_connHandle, BAS_SERVICE_SIMULATE, CYBLE_B
 300              		.loc 1 279 0
 301 004a BC1D     		add	r4, r7, #6
 302 004c 204B     		ldr	r3, .L26+16
 303 004e 1E4A     		ldr	r2, .L26+8
 304 0050 0092     		str	r2, [sp]
 305 0052 1A78     		ldrb	r2, [r3]
 306 0054 5B78     		ldrb	r3, [r3, #1]
 307 0056 1B02     		lsl	r3, r3, #8
 308 0058 1A43     		orr	r2, r3
 309 005a 0023     		mov	r3, #0
 310 005c 1204     		lsl	r2, r2, #16
 311 005e 120C     		lsr	r2, r2, #16
 312 0060 1B0C     		lsr	r3, r3, #16
 313 0062 1B04     		lsl	r3, r3, #16
 314 0064 1343     		orr	r3, r2
 315 0066 181C     		mov	r0, r3
 316 0068 0021     		mov	r1, #0
 317 006a 0022     		mov	r2, #0
 318 006c 0123     		mov	r3, #1
 319 006e FFF7FEFF 		bl	CyBle_BassSendNotification
 320 0072 031C     		mov	r3, r0
 321 0074 2380     		strh	r3, [r4]
 322 0076 08E0     		b	.L24
 323              	.L23:
ARM GAS  C:\Users\Herry\AppData\Local\Temp\ccYMjBLh.s 			page 12


 280:.\bas.c       ****                 sizeof(batteryLevel), &batteryLevel);
 281:.\bas.c       ****         }
 282:.\bas.c       ****         else
 283:.\bas.c       ****         {
 284:.\bas.c       ****             /* Update Battery Level characteristic value */
 285:.\bas.c       ****              apiResult = CyBle_BassSetCharacteristicValue(BAS_SERVICE_SIMULATE, 
 324              		.loc 1 285 0
 325 0078 BC1D     		add	r4, r7, #6
 326 007a 134B     		ldr	r3, .L26+8
 327 007c 0020     		mov	r0, #0
 328 007e 0021     		mov	r1, #0
 329 0080 0122     		mov	r2, #1
 330 0082 FFF7FEFF 		bl	CyBle_BassSetCharacteristicValue
 331 0086 031C     		mov	r3, r0
 332 0088 2380     		strh	r3, [r4]
 333              	.L24:
 286:.\bas.c       ****                 CYBLE_BAS_BATTERY_LEVEL, sizeof(batteryLevel), &batteryLevel);
 287:.\bas.c       ****         }
 288:.\bas.c       ****         if(apiResult != CYBLE_ERROR_OK)
 334              		.loc 1 288 0
 335 008a BB1D     		add	r3, r7, #6
 336 008c 1B88     		ldrh	r3, [r3]
 337 008e 002B     		cmp	r3, #0
 338 0090 0AD0     		beq	.L25
 289:.\bas.c       ****         {
 290:.\bas.c       ****             DBG_PRINTF("API Error: %x \r\n", apiResult);
 339              		.loc 1 290 0
 340 0092 BB1D     		add	r3, r7, #6
 341 0094 1B88     		ldrh	r3, [r3]
 342 0096 0F4A     		ldr	r2, .L26+20
 343 0098 101C     		mov	r0, r2
 344 009a 191C     		mov	r1, r3
 345 009c FFF7FEFF 		bl	printf
 291:.\bas.c       ****             batterySimulationNotify = DISABLED;
 346              		.loc 1 291 0
 347 00a0 0A4B     		ldr	r3, .L26+12
 348 00a2 0022     		mov	r2, #0
 349 00a4 1A80     		strh	r2, [r3]
 350 00a6 07E0     		b	.L20
 351              	.L25:
 292:.\bas.c       ****         }
 293:.\bas.c       ****         else
 294:.\bas.c       ****         {
 295:.\bas.c       ****             DBG_PRINTF("SimulBatteryLevelUpdate: %d \r\n",batteryLevel);
 352              		.loc 1 295 0
 353 00a8 074B     		ldr	r3, .L26+8
 354 00aa 1B78     		ldrb	r3, [r3]
 355 00ac 1A1C     		mov	r2, r3
 356 00ae 0A4B     		ldr	r3, .L26+24
 357 00b0 181C     		mov	r0, r3
 358 00b2 111C     		mov	r1, r2
 359 00b4 FFF7FEFF 		bl	printf
 360              	.L20:
 296:.\bas.c       ****         }
 297:.\bas.c       ****     }
 298:.\bas.c       **** }
 361              		.loc 1 298 0
ARM GAS  C:\Users\Herry\AppData\Local\Temp\ccYMjBLh.s 			page 13


 362 00b8 BD46     		mov	sp, r7
 363 00ba 03B0     		add	sp, sp, #12
 364              		@ sp needed
 365 00bc 90BD     		pop	{r4, r7, pc}
 366              	.L27:
 367 00be C046     		.align	2
 368              	.L26:
 369 00c0 00000000 		.word	cyBle_busyStatus
 370 00c4 00000000 		.word	batteryTimer.8107
 371 00c8 04000000 		.word	batteryLevel.8108
 372 00cc 00000000 		.word	batterySimulationNotify
 373 00d0 00000000 		.word	cyBle_connHandle
 374 00d4 9C000000 		.word	.LC17
 375 00d8 B0000000 		.word	.LC19
 376              		.cfi_endproc
 377              	.LFE39:
 378              		.size	SimulateBattery, .-SimulateBattery
 379              		.data
 380              		.align	2
 381              		.type	batteryTimer.8107, %object
 382              		.size	batteryTimer.8107, 4
 383              	batteryTimer.8107:
 384 0000 32000000 		.word	50
 385              		.type	batteryLevel.8108, %object
 386              		.size	batteryLevel.8108, 1
 387              	batteryLevel.8108:
 388 0004 02       		.byte	2
 389 0005 000000   		.text
 390              	.Letext0:
 391              		.file 2 "Generated_Source\\PSoC4/cytypes.h"
 392              		.file 3 "Generated_Source\\PSoC4/BLE_Stack.h"
 393              		.file 4 "Generated_Source\\PSoC4/BLE_StackGatt.h"
 394              		.file 5 "Generated_Source\\PSoC4/BLE_bas.h"
 395              		.file 6 "Generated_Source\\PSoC4/BLE_dis.h"
 396              		.file 7 "Generated_Source\\PSoC4/BLE_eventHandler.h"