ARM GAS  C:\Users\Herry\AppData\Local\Temp\ccuIEJCt.s 			page 1


   1              		.cpu cortex-m0
   2              		.fpu softvfp
   3              		.eabi_attribute 20, 1
   4              		.eabi_attribute 21, 1
   5              		.eabi_attribute 23, 3
   6              		.eabi_attribute 24, 1
   7              		.eabi_attribute 25, 1
   8              		.eabi_attribute 26, 1
   9              		.eabi_attribute 30, 6
  10              		.eabi_attribute 34, 0
  11              		.eabi_attribute 18, 4
  12              		.code	16
  13              		.file	"BLE_hids.c"
  14              		.text
  15              	.Ltext0:
  16              		.cfi_sections	.debug_frame
  17              		.bss
  18              		.align	2
  19              	CyBle_HidsApplCallback:
  20 0000 00000000 		.space	4
  21              		.section	.rodata
  22              		.align	2
  23              		.type	cyBle_hids1ReportArray, %object
  24              		.size	cyBle_hids1ReportArray, 6
  25              	cyBle_hids1ReportArray:
  26 0000 0E00     		.short	14
  27 0002 0F00     		.short	15
  28 0004 1000     		.short	16
  29              		.global	cyBle_hidss
  30 0006 0000     		.align	2
  31              		.type	cyBle_hidss, %object
  32              		.size	cyBle_hidss, 40
  33              	cyBle_hidss:
  34 0008 0C00     		.short	12
  35 000a 1800     		.short	24
  36 000c 01       		.byte	1
  37 000d 000000   		.space	3
  38 0010 00000000 		.word	cyBle_hids1ReportArray
  39 0014 0000     		.short	0
  40 0016 0000     		.short	0
  41 0018 0000     		.short	0
  42 001a 0000     		.short	0
  43 001c 0000     		.short	0
  44 001e 0000     		.short	0
  45 0020 1A00     		.short	26
  46 0022 1B00     		.short	27
  47 0024 0000     		.short	0
  48 0026 1200     		.short	18
  49 0028 0000     		.short	0
  50 002a 1400     		.short	20
  51 002c 1600     		.short	22
  52 002e 0000     		.space	2
  53              		.section	.text.CyBle_HidsInit,"ax",%progbits
  54              		.align	2
  55              		.global	CyBle_HidsInit
  56              		.code	16
  57              		.thumb_func
ARM GAS  C:\Users\Herry\AppData\Local\Temp\ccuIEJCt.s 			page 2


  58              		.type	CyBle_HidsInit, %function
  59              	CyBle_HidsInit:
  60              	.LFB2:
  61              		.file 1 ".\\Generated_Source\\PSoC4\\BLE_hids.c"
   1:.\Generated_Source\PSoC4/BLE_hids.c **** /***************************************************************************//**
   2:.\Generated_Source\PSoC4/BLE_hids.c **** * \file CYBLE_hids.c
   3:.\Generated_Source\PSoC4/BLE_hids.c **** * \version 3.10
   4:.\Generated_Source\PSoC4/BLE_hids.c **** * 
   5:.\Generated_Source\PSoC4/BLE_hids.c **** * \brief
   6:.\Generated_Source\PSoC4/BLE_hids.c **** *  Contains the source code for the HID service.
   7:.\Generated_Source\PSoC4/BLE_hids.c **** * 
   8:.\Generated_Source\PSoC4/BLE_hids.c **** ********************************************************************************
   9:.\Generated_Source\PSoC4/BLE_hids.c **** * \copyright
  10:.\Generated_Source\PSoC4/BLE_hids.c **** * Copyright 2014-2016, Cypress Semiconductor Corporation.  All rights reserved.
  11:.\Generated_Source\PSoC4/BLE_hids.c **** * You may use this file only in accordance with the license, terms, conditions,
  12:.\Generated_Source\PSoC4/BLE_hids.c **** * disclaimers, and limitations in the end user license agreement accompanying
  13:.\Generated_Source\PSoC4/BLE_hids.c **** * the software package with which this file was provided.
  14:.\Generated_Source\PSoC4/BLE_hids.c **** *******************************************************************************/
  15:.\Generated_Source\PSoC4/BLE_hids.c **** 
  16:.\Generated_Source\PSoC4/BLE_hids.c **** #include "BLE_eventHandler.h"
  17:.\Generated_Source\PSoC4/BLE_hids.c **** 
  18:.\Generated_Source\PSoC4/BLE_hids.c **** static CYBLE_CALLBACK_T CyBle_HidsApplCallback;
  19:.\Generated_Source\PSoC4/BLE_hids.c **** 
  20:.\Generated_Source\PSoC4/BLE_hids.c **** #ifdef CYBLE_HIDS_SERVER
  21:.\Generated_Source\PSoC4/BLE_hids.c **** 
  22:.\Generated_Source\PSoC4/BLE_hids.c **** static const CYBLE_HIDSS_REPORT_T cyBle_hids1ReportArray[0x01u] = {
  23:.\Generated_Source\PSoC4/BLE_hids.c ****     {
  24:.\Generated_Source\PSoC4/BLE_hids.c ****         0x000Eu, /* Handle of the Report characteristic value */ 
  25:.\Generated_Source\PSoC4/BLE_hids.c ****         0x000Fu, /* Handle of the Client Characteristic Configuration descriptor */ 
  26:.\Generated_Source\PSoC4/BLE_hids.c ****         0x0010u, /* Handle of the Report Reference descriptor */ 
  27:.\Generated_Source\PSoC4/BLE_hids.c ****     },
  28:.\Generated_Source\PSoC4/BLE_hids.c **** };
  29:.\Generated_Source\PSoC4/BLE_hids.c **** 
  30:.\Generated_Source\PSoC4/BLE_hids.c **** const CYBLE_HIDSS_T cyBle_hidss[0x01u] = {
  31:.\Generated_Source\PSoC4/BLE_hids.c ****     {
  32:.\Generated_Source\PSoC4/BLE_hids.c ****         0x000Cu, /* Handle of the HID service */ 
  33:.\Generated_Source\PSoC4/BLE_hids.c ****         0x0018u, /* Handle of the Protocol Mode characteristic */ 
  34:.\Generated_Source\PSoC4/BLE_hids.c ****         0x01u, /* Number of report characteristics */ 
  35:.\Generated_Source\PSoC4/BLE_hids.c ****         cyBle_hids1ReportArray, /* Information about report characteristics */ 
  36:.\Generated_Source\PSoC4/BLE_hids.c ****         {
  37:.\Generated_Source\PSoC4/BLE_hids.c ****             {
  38:.\Generated_Source\PSoC4/BLE_hids.c ****                 CYBLE_GATT_INVALID_ATTR_HANDLE_VALUE, /* Handle of the Report characteristic value 
  39:.\Generated_Source\PSoC4/BLE_hids.c ****                 CYBLE_GATT_INVALID_ATTR_HANDLE_VALUE, /* Handle of the Client Characteristic Config
  40:.\Generated_Source\PSoC4/BLE_hids.c ****                 CYBLE_GATT_INVALID_ATTR_HANDLE_VALUE, /* Handle of the Report Reference descriptor 
  41:.\Generated_Source\PSoC4/BLE_hids.c ****             },
  42:.\Generated_Source\PSoC4/BLE_hids.c ****             {
  43:.\Generated_Source\PSoC4/BLE_hids.c ****                 CYBLE_GATT_INVALID_ATTR_HANDLE_VALUE, /* Handle of the Report characteristic value 
  44:.\Generated_Source\PSoC4/BLE_hids.c ****                 CYBLE_GATT_INVALID_ATTR_HANDLE_VALUE, /* Handle of the Client Characteristic Config
  45:.\Generated_Source\PSoC4/BLE_hids.c ****                 CYBLE_GATT_INVALID_ATTR_HANDLE_VALUE, /* Handle of the Report Reference descriptor 
  46:.\Generated_Source\PSoC4/BLE_hids.c ****             },
  47:.\Generated_Source\PSoC4/BLE_hids.c ****             {
  48:.\Generated_Source\PSoC4/BLE_hids.c ****                 0x001Au, /* Handle of the Report characteristic value */ 
  49:.\Generated_Source\PSoC4/BLE_hids.c ****                 0x001Bu, /* Handle of the Client Characteristic Configuration descriptor */ 
  50:.\Generated_Source\PSoC4/BLE_hids.c ****                 CYBLE_GATT_INVALID_ATTR_HANDLE_VALUE, /* Handle of the Report Reference descriptor 
  51:.\Generated_Source\PSoC4/BLE_hids.c ****             },
  52:.\Generated_Source\PSoC4/BLE_hids.c ****         }, /* Information about boot report characteristics */ 
  53:.\Generated_Source\PSoC4/BLE_hids.c ****         0x0012u, /* Handle of the Report Map characteristic */ 
ARM GAS  C:\Users\Herry\AppData\Local\Temp\ccuIEJCt.s 			page 3


  54:.\Generated_Source\PSoC4/BLE_hids.c ****         CYBLE_GATT_INVALID_ATTR_HANDLE_VALUE, /* Handle of the Report Map External Report Reference
  55:.\Generated_Source\PSoC4/BLE_hids.c ****         0x0014u, /* Handle of the HID Information characteristic */ 
  56:.\Generated_Source\PSoC4/BLE_hids.c ****         0x0016u, /* Handle of the HID Control Point characteristic */ 
  57:.\Generated_Source\PSoC4/BLE_hids.c ****     },
  58:.\Generated_Source\PSoC4/BLE_hids.c **** };
  59:.\Generated_Source\PSoC4/BLE_hids.c **** 
  60:.\Generated_Source\PSoC4/BLE_hids.c **** /* Local function prototypes */
  61:.\Generated_Source\PSoC4/BLE_hids.c **** static uint32 CyBle_HidssCccdWriteEventHandler(uint8 serviceIndex, const CYBLE_GATTS_WRITE_REQ_PARA
  62:.\Generated_Source\PSoC4/BLE_hids.c **** 
  63:.\Generated_Source\PSoC4/BLE_hids.c **** #endif /* CYBLE_HIDS_SERVER */
  64:.\Generated_Source\PSoC4/BLE_hids.c **** 
  65:.\Generated_Source\PSoC4/BLE_hids.c **** #ifdef CYBLE_HIDS_CLIENT
  66:.\Generated_Source\PSoC4/BLE_hids.c **** 
  67:.\Generated_Source\PSoC4/BLE_hids.c ****     CYBLE_HIDSC_T cyBle_hidsc[CYBLE_HIDSC_SERVICE_COUNT];
  68:.\Generated_Source\PSoC4/BLE_hids.c ****     static CYBLE_GATT_DB_ATTR_HANDLE_T cyBle_hidscReqHandle;
  69:.\Generated_Source\PSoC4/BLE_hids.c ****     uint8 cyBle_hidscServiceCount;
  70:.\Generated_Source\PSoC4/BLE_hids.c **** 
  71:.\Generated_Source\PSoC4/BLE_hids.c **** #endif /* CYBLE_HIDS_CLIENT */
  72:.\Generated_Source\PSoC4/BLE_hids.c **** 
  73:.\Generated_Source\PSoC4/BLE_hids.c **** 
  74:.\Generated_Source\PSoC4/BLE_hids.c **** /****************************************************************************** 
  75:.\Generated_Source\PSoC4/BLE_hids.c **** * Function Name: CyBle_HidsInit
  76:.\Generated_Source\PSoC4/BLE_hids.c **** ***************************************************************************//**
  77:.\Generated_Source\PSoC4/BLE_hids.c **** * 
  78:.\Generated_Source\PSoC4/BLE_hids.c **** *  This function initializes the HID Service.
  79:.\Generated_Source\PSoC4/BLE_hids.c **** * 
  80:.\Generated_Source\PSoC4/BLE_hids.c **** * \return
  81:.\Generated_Source\PSoC4/BLE_hids.c **** *  None
  82:.\Generated_Source\PSoC4/BLE_hids.c **** * 
  83:.\Generated_Source\PSoC4/BLE_hids.c **** ******************************************************************************/
  84:.\Generated_Source\PSoC4/BLE_hids.c **** void CyBle_HidsInit(void)
  85:.\Generated_Source\PSoC4/BLE_hids.c **** {
  62              		.loc 1 85 0
  63              		.cfi_startproc
  64 0000 80B5     		push	{r7, lr}
  65              		.cfi_def_cfa_offset 8
  66              		.cfi_offset 7, -8
  67              		.cfi_offset 14, -4
  68 0002 00AF     		add	r7, sp, #0
  69              		.cfi_def_cfa_register 7
  86:.\Generated_Source\PSoC4/BLE_hids.c **** 
  87:.\Generated_Source\PSoC4/BLE_hids.c **** #ifdef CYBLE_HIDS_CLIENT
  88:.\Generated_Source\PSoC4/BLE_hids.c **** 
  89:.\Generated_Source\PSoC4/BLE_hids.c ****     uint8 locServIndex;
  90:.\Generated_Source\PSoC4/BLE_hids.c ****     for(locServIndex = 0u; locServIndex < CYBLE_HIDSC_SERVICE_COUNT; locServIndex++)
  91:.\Generated_Source\PSoC4/BLE_hids.c ****     {
  92:.\Generated_Source\PSoC4/BLE_hids.c ****         if(cyBle_serverInfo[CYBLE_SRVI_HIDS + locServIndex].range.startHandle == CYBLE_GATT_INVALID
  93:.\Generated_Source\PSoC4/BLE_hids.c ****         {
  94:.\Generated_Source\PSoC4/BLE_hids.c ****             (void)memset(&cyBle_hidsc[locServIndex], 0, sizeof(cyBle_hidsc[locServIndex]));
  95:.\Generated_Source\PSoC4/BLE_hids.c ****         }
  96:.\Generated_Source\PSoC4/BLE_hids.c ****     }
  97:.\Generated_Source\PSoC4/BLE_hids.c ****     cyBle_hidscReqHandle = CYBLE_GATT_INVALID_ATTR_HANDLE_VALUE;
  98:.\Generated_Source\PSoC4/BLE_hids.c ****     cyBle_hidscServiceCount = 0u;
  99:.\Generated_Source\PSoC4/BLE_hids.c **** 
 100:.\Generated_Source\PSoC4/BLE_hids.c **** #endif /* CYBLE_HIDS_CLIENT */
 101:.\Generated_Source\PSoC4/BLE_hids.c **** }
  70              		.loc 1 101 0
ARM GAS  C:\Users\Herry\AppData\Local\Temp\ccuIEJCt.s 			page 4


  71 0004 BD46     		mov	sp, r7
  72              		@ sp needed
  73 0006 80BD     		pop	{r7, pc}
  74              		.cfi_endproc
  75              	.LFE2:
  76              		.size	CyBle_HidsInit, .-CyBle_HidsInit
  77              		.section	.text.CyBle_HidsRegisterAttrCallback,"ax",%progbits
  78              		.align	2
  79              		.global	CyBle_HidsRegisterAttrCallback
  80              		.code	16
  81              		.thumb_func
  82              		.type	CyBle_HidsRegisterAttrCallback, %function
  83              	CyBle_HidsRegisterAttrCallback:
  84              	.LFB3:
 102:.\Generated_Source\PSoC4/BLE_hids.c **** 
 103:.\Generated_Source\PSoC4/BLE_hids.c **** 
 104:.\Generated_Source\PSoC4/BLE_hids.c **** /****************************************************************************** 
 105:.\Generated_Source\PSoC4/BLE_hids.c **** * Function Name: CyBle_HidsRegisterAttrCallback
 106:.\Generated_Source\PSoC4/BLE_hids.c **** ***************************************************************************//**
 107:.\Generated_Source\PSoC4/BLE_hids.c **** * 
 108:.\Generated_Source\PSoC4/BLE_hids.c **** *  Registers a callback function for service specific attribute operations.
 109:.\Generated_Source\PSoC4/BLE_hids.c **** *  Service specific write requests from peer device will not be handled with
 110:.\Generated_Source\PSoC4/BLE_hids.c **** *  unregistered callback function.
 111:.\Generated_Source\PSoC4/BLE_hids.c **** * 
 112:.\Generated_Source\PSoC4/BLE_hids.c **** *  \param callbackFunc: An application layer event callback function to receive 
 113:.\Generated_Source\PSoC4/BLE_hids.c **** *                    events from the BLE Component. The definition of 
 114:.\Generated_Source\PSoC4/BLE_hids.c **** *                    CYBLE_CALLBACK_T for HID Service is:\n
 115:.\Generated_Source\PSoC4/BLE_hids.c **** *                    typedef void (* CYBLE_CALLBACK_T) (uint32 eventCode, 
 116:.\Generated_Source\PSoC4/BLE_hids.c **** *                                                       void *eventParam)
 117:.\Generated_Source\PSoC4/BLE_hids.c **** *                    * eventCode indicates the event that triggered this 
 118:.\Generated_Source\PSoC4/BLE_hids.c **** *                      callback (e.g. CYBLE_EVT_HIDS_NOTIFICATION_ENABLED).
 119:.\Generated_Source\PSoC4/BLE_hids.c **** *                    * eventParam contains the parameters corresponding to the 
 120:.\Generated_Source\PSoC4/BLE_hids.c **** *                      current event. (e.g. pointer to CYBLE_HIDS_CHAR_VALUE_T
 121:.\Generated_Source\PSoC4/BLE_hids.c **** *                      structure that contains details of the characteristic for 
 122:.\Generated_Source\PSoC4/BLE_hids.c **** *                      which notification enabled event was triggered).
 123:.\Generated_Source\PSoC4/BLE_hids.c **** *
 124:.\Generated_Source\PSoC4/BLE_hids.c **** * \return
 125:.\Generated_Source\PSoC4/BLE_hids.c **** *  None
 126:.\Generated_Source\PSoC4/BLE_hids.c **** *
 127:.\Generated_Source\PSoC4/BLE_hids.c **** * \events
 128:.\Generated_Source\PSoC4/BLE_hids.c **** *  None
 129:.\Generated_Source\PSoC4/BLE_hids.c **** *
 130:.\Generated_Source\PSoC4/BLE_hids.c **** * \sideeffect The *eventParams in the callback function should not be used by 
 131:.\Generated_Source\PSoC4/BLE_hids.c **** *                the application once the callback function execution is finished.
 132:.\Generated_Source\PSoC4/BLE_hids.c **** *                Otherwise this data may become corrupted.
 133:.\Generated_Source\PSoC4/BLE_hids.c **** * 
 134:.\Generated_Source\PSoC4/BLE_hids.c **** ******************************************************************************/
 135:.\Generated_Source\PSoC4/BLE_hids.c **** void CyBle_HidsRegisterAttrCallback(CYBLE_CALLBACK_T callbackFunc)
 136:.\Generated_Source\PSoC4/BLE_hids.c **** {
  85              		.loc 1 136 0
  86              		.cfi_startproc
  87 0000 80B5     		push	{r7, lr}
  88              		.cfi_def_cfa_offset 8
  89              		.cfi_offset 7, -8
  90              		.cfi_offset 14, -4
  91 0002 82B0     		sub	sp, sp, #8
  92              		.cfi_def_cfa_offset 16
ARM GAS  C:\Users\Herry\AppData\Local\Temp\ccuIEJCt.s 			page 5


  93 0004 00AF     		add	r7, sp, #0
  94              		.cfi_def_cfa_register 7
  95 0006 7860     		str	r0, [r7, #4]
 137:.\Generated_Source\PSoC4/BLE_hids.c ****     CyBle_HidsApplCallback = callbackFunc;
  96              		.loc 1 137 0
  97 0008 024B     		ldr	r3, .L3
  98 000a 7A68     		ldr	r2, [r7, #4]
  99 000c 1A60     		str	r2, [r3]
 138:.\Generated_Source\PSoC4/BLE_hids.c **** }
 100              		.loc 1 138 0
 101 000e BD46     		mov	sp, r7
 102 0010 02B0     		add	sp, sp, #8
 103              		@ sp needed
 104 0012 80BD     		pop	{r7, pc}
 105              	.L4:
 106              		.align	2
 107              	.L3:
 108 0014 00000000 		.word	CyBle_HidsApplCallback
 109              		.cfi_endproc
 110              	.LFE3:
 111              		.size	CyBle_HidsRegisterAttrCallback, .-CyBle_HidsRegisterAttrCallback
 112              		.section	.text.CyBle_HidssSetCharacteristicValue,"ax",%progbits
 113              		.align	2
 114              		.global	CyBle_HidssSetCharacteristicValue
 115              		.code	16
 116              		.thumb_func
 117              		.type	CyBle_HidssSetCharacteristicValue, %function
 118              	CyBle_HidssSetCharacteristicValue:
 119              	.LFB4:
 139:.\Generated_Source\PSoC4/BLE_hids.c **** 
 140:.\Generated_Source\PSoC4/BLE_hids.c **** #ifdef CYBLE_HIDS_SERVER
 141:.\Generated_Source\PSoC4/BLE_hids.c **** 
 142:.\Generated_Source\PSoC4/BLE_hids.c **** 
 143:.\Generated_Source\PSoC4/BLE_hids.c **** /****************************************************************************** 
 144:.\Generated_Source\PSoC4/BLE_hids.c **** * Function Name: CyBle_HidssSetCharacteristicValue
 145:.\Generated_Source\PSoC4/BLE_hids.c **** ***************************************************************************//**
 146:.\Generated_Source\PSoC4/BLE_hids.c **** * 
 147:.\Generated_Source\PSoC4/BLE_hids.c **** *  Sets local characteristic value of the specified HID Service characteristics.
 148:.\Generated_Source\PSoC4/BLE_hids.c **** * 
 149:.\Generated_Source\PSoC4/BLE_hids.c **** *  \param serviceIndex: The index of the service instance. e.g. If two HID Services are 
 150:.\Generated_Source\PSoC4/BLE_hids.c **** *                 supported in your design, then first service will be identified
 151:.\Generated_Source\PSoC4/BLE_hids.c **** *                 by serviceIndex of 0 and the second by serviceIndex of 1.
 152:.\Generated_Source\PSoC4/BLE_hids.c **** *  \param charIndex: The index of a service characteristic.
 153:.\Generated_Source\PSoC4/BLE_hids.c **** *              * CYBLE_HIDS_PROTOCOL_MODE - Protocol Mode characteristic
 154:.\Generated_Source\PSoC4/BLE_hids.c **** *              * CYBLE_HIDS_REPORT_MAP - Report Map characteristic
 155:.\Generated_Source\PSoC4/BLE_hids.c **** *              * CYBLE_HIDS_INFORMATION - HID Information characteristic
 156:.\Generated_Source\PSoC4/BLE_hids.c **** *              * CYBLE_HIDS_CONTROL_POINT - HID Control Point characteristic
 157:.\Generated_Source\PSoC4/BLE_hids.c **** *              * CYBLE_HIDS_BOOT_KYBRD_IN_REP - Boot Keyboard Input Report Characteristic
 158:.\Generated_Source\PSoC4/BLE_hids.c **** *              * CYBLE_HIDS_BOOT_KYBRD_OUT_REP - Boot Keyboard Output Report Characteristic
 159:.\Generated_Source\PSoC4/BLE_hids.c **** *              * CYBLE_HIDS_BOOT_MOUSE_IN_REP - Boot Mouse Input Report Characteristic
 160:.\Generated_Source\PSoC4/BLE_hids.c **** *              * CYBLE_HIDS_REPORT - Report Characteristic
 161:.\Generated_Source\PSoC4/BLE_hids.c **** * 
 162:.\Generated_Source\PSoC4/BLE_hids.c **** *  \param attrSize: The size of the characteristic value attribute.
 163:.\Generated_Source\PSoC4/BLE_hids.c **** * 
 164:.\Generated_Source\PSoC4/BLE_hids.c **** *  \param attrValue: The pointer to the characteristic value data that should be 
 165:.\Generated_Source\PSoC4/BLE_hids.c **** *               stored in the GATT database.
 166:.\Generated_Source\PSoC4/BLE_hids.c **** * 
ARM GAS  C:\Users\Herry\AppData\Local\Temp\ccuIEJCt.s 			page 6


 167:.\Generated_Source\PSoC4/BLE_hids.c **** * \return
 168:.\Generated_Source\PSoC4/BLE_hids.c **** *  Return value is of type CYBLE_API_RESULT_T.
 169:.\Generated_Source\PSoC4/BLE_hids.c **** *  * CYBLE_ERROR_OK - The request handled successfully.
 170:.\Generated_Source\PSoC4/BLE_hids.c **** *  * CYBLE_ERROR_INVALID_PARAMETER - Validation of the input parameter failed.
 171:.\Generated_Source\PSoC4/BLE_hids.c **** *  * CYBLE_ERROR_GATT_DB_INVALID_ATTR_HANDLE - Optional characteristic is absent
 172:.\Generated_Source\PSoC4/BLE_hids.c **** *
 173:.\Generated_Source\PSoC4/BLE_hids.c **** * \events
 174:.\Generated_Source\PSoC4/BLE_hids.c **** *  None
 175:.\Generated_Source\PSoC4/BLE_hids.c **** *
 176:.\Generated_Source\PSoC4/BLE_hids.c **** ******************************************************************************/
 177:.\Generated_Source\PSoC4/BLE_hids.c **** CYBLE_API_RESULT_T CyBle_HidssSetCharacteristicValue(uint8 serviceIndex, CYBLE_HIDS_CHAR_INDEX_T ch
 178:.\Generated_Source\PSoC4/BLE_hids.c ****     uint8 attrSize, uint8 *attrValue)
 179:.\Generated_Source\PSoC4/BLE_hids.c **** {
 120              		.loc 1 179 0
 121              		.cfi_startproc
 122 0000 90B5     		push	{r4, r7, lr}
 123              		.cfi_def_cfa_offset 12
 124              		.cfi_offset 4, -12
 125              		.cfi_offset 7, -8
 126              		.cfi_offset 14, -4
 127 0002 87B0     		sub	sp, sp, #28
 128              		.cfi_def_cfa_offset 40
 129 0004 00AF     		add	r7, sp, #0
 130              		.cfi_def_cfa_register 7
 131 0006 041C     		mov	r4, r0
 132 0008 081C     		mov	r0, r1
 133 000a 111C     		mov	r1, r2
 134 000c 3B60     		str	r3, [r7]
 135 000e FB1D     		add	r3, r7, #7
 136 0010 221C     		add	r2, r4, #0
 137 0012 1A70     		strb	r2, [r3]
 138 0014 BB1D     		add	r3, r7, #6
 139 0016 021C     		add	r2, r0, #0
 140 0018 1A70     		strb	r2, [r3]
 141 001a 7B1D     		add	r3, r7, #5
 142 001c 0A1C     		add	r2, r1, #0
 143 001e 1A70     		strb	r2, [r3]
 180:.\Generated_Source\PSoC4/BLE_hids.c ****     CYBLE_API_RESULT_T apiResult = CYBLE_ERROR_OK;
 144              		.loc 1 180 0
 145 0020 1623     		mov	r3, #22
 146 0022 FB18     		add	r3, r7, r3
 147 0024 0022     		mov	r2, #0
 148 0026 1A80     		strh	r2, [r3]
 181:.\Generated_Source\PSoC4/BLE_hids.c ****     CYBLE_GATT_DB_ATTR_HANDLE_T charValueHandle;
 182:.\Generated_Source\PSoC4/BLE_hids.c ****     CYBLE_GATT_HANDLE_VALUE_PAIR_T locHandleValuePair;
 183:.\Generated_Source\PSoC4/BLE_hids.c **** 
 184:.\Generated_Source\PSoC4/BLE_hids.c ****     if((serviceIndex >= CYBLE_HIDSS_SERVICE_COUNT) || (charIndex >= CYBLE_HIDS_CHAR_COUNT))
 149              		.loc 1 184 0
 150 0028 FB1D     		add	r3, r7, #7
 151 002a 1B78     		ldrb	r3, [r3]
 152 002c 002B     		cmp	r3, #0
 153 002e 03D1     		bne	.L6
 154              		.loc 1 184 0 is_stmt 0 discriminator 1
 155 0030 BB1D     		add	r3, r7, #6
 156 0032 1B78     		ldrb	r3, [r3]
 157 0034 072B     		cmp	r3, #7
 158 0036 04D9     		bls	.L7
ARM GAS  C:\Users\Herry\AppData\Local\Temp\ccuIEJCt.s 			page 7


 159              	.L6:
 185:.\Generated_Source\PSoC4/BLE_hids.c ****     {
 186:.\Generated_Source\PSoC4/BLE_hids.c ****         apiResult = CYBLE_ERROR_INVALID_PARAMETER;
 160              		.loc 1 186 0 is_stmt 1
 161 0038 1623     		mov	r3, #22
 162 003a FB18     		add	r3, r7, r3
 163 003c 0122     		mov	r2, #1
 164 003e 1A80     		strh	r2, [r3]
 165 0040 BBE0     		b	.L8
 166              	.L7:
 187:.\Generated_Source\PSoC4/BLE_hids.c ****     }
 188:.\Generated_Source\PSoC4/BLE_hids.c ****     else
 189:.\Generated_Source\PSoC4/BLE_hids.c ****     {
 190:.\Generated_Source\PSoC4/BLE_hids.c ****         switch(charIndex)
 167              		.loc 1 190 0
 168 0042 BB1D     		add	r3, r7, #6
 169 0044 1B78     		ldrb	r3, [r3]
 170 0046 062B     		cmp	r3, #6
 171 0048 65D8     		bhi	.L9
 172 004a 9A00     		lsl	r2, r3, #2
 173 004c 5E4B     		ldr	r3, .L24
 174 004e D318     		add	r3, r2, r3
 175 0050 1B68     		ldr	r3, [r3]
 176 0052 9F46     		mov	pc, r3
 177              		.section	.rodata
 178              		.align	2
 179              	.L11:
 180 0030 54000000 		.word	.L10
 181 0034 8A000000 		.word	.L12
 182 0038 A6000000 		.word	.L13
 183 003c 6E000000 		.word	.L14
 184 0040 C2000000 		.word	.L15
 185 0044 DE000000 		.word	.L16
 186 0048 FA000000 		.word	.L17
 187              		.section	.text.CyBle_HidssSetCharacteristicValue
 188              	.L10:
 191:.\Generated_Source\PSoC4/BLE_hids.c ****         {
 192:.\Generated_Source\PSoC4/BLE_hids.c ****             case CYBLE_HIDS_PROTOCOL_MODE:
 193:.\Generated_Source\PSoC4/BLE_hids.c ****                 charValueHandle = cyBle_hidss[serviceIndex].protocolModeHandle;
 189              		.loc 1 193 0
 190 0054 FB1D     		add	r3, r7, #7
 191 0056 1A78     		ldrb	r2, [r3]
 192 0058 1423     		mov	r3, #20
 193 005a F918     		add	r1, r7, r3
 194 005c 5B48     		ldr	r0, .L24+4
 195 005e 131C     		mov	r3, r2
 196 0060 9B00     		lsl	r3, r3, #2
 197 0062 9B18     		add	r3, r3, r2
 198 0064 DB00     		lsl	r3, r3, #3
 199 0066 C318     		add	r3, r0, r3
 200 0068 5B88     		ldrh	r3, [r3, #2]
 201 006a 0B80     		strh	r3, [r1]
 194:.\Generated_Source\PSoC4/BLE_hids.c ****                 break;
 202              		.loc 1 194 0
 203 006c 7DE0     		b	.L18
 204              	.L14:
 195:.\Generated_Source\PSoC4/BLE_hids.c ****             case CYBLE_HIDS_REPORT_MAP:
ARM GAS  C:\Users\Herry\AppData\Local\Temp\ccuIEJCt.s 			page 8


 196:.\Generated_Source\PSoC4/BLE_hids.c ****                 charValueHandle = cyBle_hidss[serviceIndex].reportMapHandle;
 205              		.loc 1 196 0
 206 006e FB1D     		add	r3, r7, #7
 207 0070 1A78     		ldrb	r2, [r3]
 208 0072 1423     		mov	r3, #20
 209 0074 F918     		add	r1, r7, r3
 210 0076 5548     		ldr	r0, .L24+4
 211 0078 131C     		mov	r3, r2
 212 007a 9B00     		lsl	r3, r3, #2
 213 007c 9B18     		add	r3, r3, r2
 214 007e DB00     		lsl	r3, r3, #3
 215 0080 C318     		add	r3, r0, r3
 216 0082 1833     		add	r3, r3, #24
 217 0084 DB88     		ldrh	r3, [r3, #6]
 218 0086 0B80     		strh	r3, [r1]
 197:.\Generated_Source\PSoC4/BLE_hids.c ****                 break;
 219              		.loc 1 197 0
 220 0088 6FE0     		b	.L18
 221              	.L12:
 198:.\Generated_Source\PSoC4/BLE_hids.c ****             case CYBLE_HIDS_INFORMATION:
 199:.\Generated_Source\PSoC4/BLE_hids.c ****                 charValueHandle = cyBle_hidss[serviceIndex].informationHandle;
 222              		.loc 1 199 0
 223 008a FB1D     		add	r3, r7, #7
 224 008c 1A78     		ldrb	r2, [r3]
 225 008e 1423     		mov	r3, #20
 226 0090 F918     		add	r1, r7, r3
 227 0092 4E48     		ldr	r0, .L24+4
 228 0094 131C     		mov	r3, r2
 229 0096 9B00     		lsl	r3, r3, #2
 230 0098 9B18     		add	r3, r3, r2
 231 009a DB00     		lsl	r3, r3, #3
 232 009c C318     		add	r3, r0, r3
 233 009e 2033     		add	r3, r3, #32
 234 00a0 5B88     		ldrh	r3, [r3, #2]
 235 00a2 0B80     		strh	r3, [r1]
 200:.\Generated_Source\PSoC4/BLE_hids.c ****                 break;
 236              		.loc 1 200 0
 237 00a4 61E0     		b	.L18
 238              	.L13:
 201:.\Generated_Source\PSoC4/BLE_hids.c ****             case CYBLE_HIDS_CONTROL_POINT:
 202:.\Generated_Source\PSoC4/BLE_hids.c ****                 charValueHandle = cyBle_hidss[serviceIndex].controlPointHandle;
 239              		.loc 1 202 0
 240 00a6 FB1D     		add	r3, r7, #7
 241 00a8 1A78     		ldrb	r2, [r3]
 242 00aa 1423     		mov	r3, #20
 243 00ac F918     		add	r1, r7, r3
 244 00ae 4748     		ldr	r0, .L24+4
 245 00b0 131C     		mov	r3, r2
 246 00b2 9B00     		lsl	r3, r3, #2
 247 00b4 9B18     		add	r3, r3, r2
 248 00b6 DB00     		lsl	r3, r3, #3
 249 00b8 C318     		add	r3, r0, r3
 250 00ba 2033     		add	r3, r3, #32
 251 00bc 9B88     		ldrh	r3, [r3, #4]
 252 00be 0B80     		strh	r3, [r1]
 203:.\Generated_Source\PSoC4/BLE_hids.c ****                 break;
 253              		.loc 1 203 0
ARM GAS  C:\Users\Herry\AppData\Local\Temp\ccuIEJCt.s 			page 9


 254 00c0 53E0     		b	.L18
 255              	.L15:
 204:.\Generated_Source\PSoC4/BLE_hids.c ****             case CYBLE_HIDS_BOOT_KYBRD_IN_REP:
 205:.\Generated_Source\PSoC4/BLE_hids.c ****                 charValueHandle = cyBle_hidss[serviceIndex].bootReportArray[CYBLE_HIDS_BOOT_KYBRD_I
 256              		.loc 1 205 0
 257 00c2 FB1D     		add	r3, r7, #7
 258 00c4 1A78     		ldrb	r2, [r3]
 259 00c6 1423     		mov	r3, #20
 260 00c8 F918     		add	r1, r7, r3
 261 00ca 4048     		ldr	r0, .L24+4
 262 00cc 131C     		mov	r3, r2
 263 00ce 9B00     		lsl	r3, r3, #2
 264 00d0 9B18     		add	r3, r3, r2
 265 00d2 DB00     		lsl	r3, r3, #3
 266 00d4 C318     		add	r3, r0, r3
 267 00d6 0833     		add	r3, r3, #8
 268 00d8 9B88     		ldrh	r3, [r3, #4]
 269 00da 0B80     		strh	r3, [r1]
 206:.\Generated_Source\PSoC4/BLE_hids.c ****                     reportHandle;
 207:.\Generated_Source\PSoC4/BLE_hids.c ****                 break;
 270              		.loc 1 207 0
 271 00dc 45E0     		b	.L18
 272              	.L16:
 208:.\Generated_Source\PSoC4/BLE_hids.c ****             case CYBLE_HIDS_BOOT_KYBRD_OUT_REP:
 209:.\Generated_Source\PSoC4/BLE_hids.c ****                 charValueHandle = cyBle_hidss[serviceIndex].bootReportArray[CYBLE_HIDS_BOOT_KYBRD_O
 273              		.loc 1 209 0
 274 00de FB1D     		add	r3, r7, #7
 275 00e0 1A78     		ldrb	r2, [r3]
 276 00e2 1423     		mov	r3, #20
 277 00e4 F918     		add	r1, r7, r3
 278 00e6 3948     		ldr	r0, .L24+4
 279 00e8 131C     		mov	r3, r2
 280 00ea 9B00     		lsl	r3, r3, #2
 281 00ec 9B18     		add	r3, r3, r2
 282 00ee DB00     		lsl	r3, r3, #3
 283 00f0 C318     		add	r3, r0, r3
 284 00f2 0E33     		add	r3, r3, #14
 285 00f4 9B88     		ldrh	r3, [r3, #4]
 286 00f6 0B80     		strh	r3, [r1]
 210:.\Generated_Source\PSoC4/BLE_hids.c ****                     reportHandle;
 211:.\Generated_Source\PSoC4/BLE_hids.c ****                 break;
 287              		.loc 1 211 0
 288 00f8 37E0     		b	.L18
 289              	.L17:
 212:.\Generated_Source\PSoC4/BLE_hids.c ****             case CYBLE_HIDS_BOOT_MOUSE_IN_REP:
 213:.\Generated_Source\PSoC4/BLE_hids.c ****                 charValueHandle = cyBle_hidss[serviceIndex].bootReportArray[CYBLE_HIDS_BOOT_MOUSE_I
 290              		.loc 1 213 0
 291 00fa FB1D     		add	r3, r7, #7
 292 00fc 1A78     		ldrb	r2, [r3]
 293 00fe 1423     		mov	r3, #20
 294 0100 F918     		add	r1, r7, r3
 295 0102 3248     		ldr	r0, .L24+4
 296 0104 131C     		mov	r3, r2
 297 0106 9B00     		lsl	r3, r3, #2
 298 0108 9B18     		add	r3, r3, r2
 299 010a DB00     		lsl	r3, r3, #3
 300 010c C318     		add	r3, r0, r3
ARM GAS  C:\Users\Herry\AppData\Local\Temp\ccuIEJCt.s 			page 10


 301 010e 1433     		add	r3, r3, #20
 302 0110 9B88     		ldrh	r3, [r3, #4]
 303 0112 0B80     		strh	r3, [r1]
 214:.\Generated_Source\PSoC4/BLE_hids.c ****                     reportHandle;
 215:.\Generated_Source\PSoC4/BLE_hids.c ****                 break;
 304              		.loc 1 215 0
 305 0114 29E0     		b	.L18
 306              	.L9:
 216:.\Generated_Source\PSoC4/BLE_hids.c ****             default:                    /* Report characteristic */
 217:.\Generated_Source\PSoC4/BLE_hids.c ****                 /* Verify that requested report exists in particular service */
 218:.\Generated_Source\PSoC4/BLE_hids.c ****                 if((charIndex - CYBLE_HIDS_REPORT) < cyBle_hidss[serviceIndex].reportCount)
 307              		.loc 1 218 0
 308 0116 BB1D     		add	r3, r7, #6
 309 0118 1B78     		ldrb	r3, [r3]
 310 011a D91F     		sub	r1, r3, #7
 311 011c FB1D     		add	r3, r7, #7
 312 011e 1A78     		ldrb	r2, [r3]
 313 0120 2A48     		ldr	r0, .L24+4
 314 0122 131C     		mov	r3, r2
 315 0124 9B00     		lsl	r3, r3, #2
 316 0126 9B18     		add	r3, r3, r2
 317 0128 DB00     		lsl	r3, r3, #3
 318 012a C318     		add	r3, r0, r3
 319 012c 1B79     		ldrb	r3, [r3, #4]
 320 012e 9942     		cmp	r1, r3
 321 0130 16DA     		bge	.L19
 219:.\Generated_Source\PSoC4/BLE_hids.c ****                 {
 220:.\Generated_Source\PSoC4/BLE_hids.c ****                     charValueHandle = cyBle_hidss[serviceIndex].reportArray[charIndex - CYBLE_HIDS_
 322              		.loc 1 220 0
 323 0132 FB1D     		add	r3, r7, #7
 324 0134 1A78     		ldrb	r2, [r3]
 325 0136 2549     		ldr	r1, .L24+4
 326 0138 131C     		mov	r3, r2
 327 013a 9B00     		lsl	r3, r3, #2
 328 013c 9B18     		add	r3, r3, r2
 329 013e DB00     		lsl	r3, r3, #3
 330 0140 CB18     		add	r3, r1, r3
 331 0142 0833     		add	r3, r3, #8
 332 0144 1968     		ldr	r1, [r3]
 333 0146 BB1D     		add	r3, r7, #6
 334 0148 1A78     		ldrb	r2, [r3]
 335 014a 131C     		mov	r3, r2
 336 014c 5B00     		lsl	r3, r3, #1
 337 014e 9B18     		add	r3, r3, r2
 338 0150 5B00     		lsl	r3, r3, #1
 339 0152 2A3B     		sub	r3, r3, #42
 340 0154 CA18     		add	r2, r1, r3
 341 0156 1423     		mov	r3, #20
 342 0158 FB18     		add	r3, r7, r3
 343 015a 1288     		ldrh	r2, [r2]
 344 015c 1A80     		strh	r2, [r3]
 221:.\Generated_Source\PSoC4/BLE_hids.c ****                 }
 222:.\Generated_Source\PSoC4/BLE_hids.c ****                 else
 223:.\Generated_Source\PSoC4/BLE_hids.c ****                 {
 224:.\Generated_Source\PSoC4/BLE_hids.c ****                     charValueHandle = CYBLE_GATT_INVALID_ATTR_HANDLE_VALUE;
 225:.\Generated_Source\PSoC4/BLE_hids.c ****                 }
 226:.\Generated_Source\PSoC4/BLE_hids.c ****                 break;
ARM GAS  C:\Users\Herry\AppData\Local\Temp\ccuIEJCt.s 			page 11


 345              		.loc 1 226 0
 346 015e 03E0     		b	.L23
 347              	.L19:
 224:.\Generated_Source\PSoC4/BLE_hids.c ****                 }
 348              		.loc 1 224 0
 349 0160 1423     		mov	r3, #20
 350 0162 FB18     		add	r3, r7, r3
 351 0164 0022     		mov	r2, #0
 352 0166 1A80     		strh	r2, [r3]
 353              	.L23:
 354              		.loc 1 226 0
 355 0168 C046     		mov	r8, r8
 356              	.L18:
 227:.\Generated_Source\PSoC4/BLE_hids.c ****         }
 228:.\Generated_Source\PSoC4/BLE_hids.c ****         if(charValueHandle == CYBLE_GATT_INVALID_ATTR_HANDLE_VALUE)
 357              		.loc 1 228 0
 358 016a 1423     		mov	r3, #20
 359 016c FB18     		add	r3, r7, r3
 360 016e 1B88     		ldrh	r3, [r3]
 361 0170 002B     		cmp	r3, #0
 362 0172 04D1     		bne	.L21
 229:.\Generated_Source\PSoC4/BLE_hids.c ****         {
 230:.\Generated_Source\PSoC4/BLE_hids.c ****             apiResult = CYBLE_ERROR_GATT_DB_INVALID_ATTR_HANDLE;
 363              		.loc 1 230 0
 364 0174 1623     		mov	r3, #22
 365 0176 FB18     		add	r3, r7, r3
 366 0178 1322     		mov	r2, #19
 367 017a 1A80     		strh	r2, [r3]
 368 017c 1DE0     		b	.L8
 369              	.L21:
 231:.\Generated_Source\PSoC4/BLE_hids.c ****         }
 232:.\Generated_Source\PSoC4/BLE_hids.c ****         else
 233:.\Generated_Source\PSoC4/BLE_hids.c ****         {
 234:.\Generated_Source\PSoC4/BLE_hids.c ****             /* Store data in database */
 235:.\Generated_Source\PSoC4/BLE_hids.c ****             locHandleValuePair.attrHandle = charValueHandle;
 370              		.loc 1 235 0
 371 017e 0823     		mov	r3, #8
 372 0180 FB18     		add	r3, r7, r3
 373 0182 1422     		mov	r2, #20
 374 0184 BA18     		add	r2, r7, r2
 375 0186 1288     		ldrh	r2, [r2]
 376 0188 1A81     		strh	r2, [r3, #8]
 236:.\Generated_Source\PSoC4/BLE_hids.c ****             locHandleValuePair.value.len = attrSize;
 377              		.loc 1 236 0
 378 018a 7B1D     		add	r3, r7, #5
 379 018c 1B78     		ldrb	r3, [r3]
 380 018e 9AB2     		uxth	r2, r3
 381 0190 0823     		mov	r3, #8
 382 0192 FB18     		add	r3, r7, r3
 383 0194 9A80     		strh	r2, [r3, #4]
 237:.\Generated_Source\PSoC4/BLE_hids.c ****             locHandleValuePair.value.val = attrValue;
 384              		.loc 1 237 0
 385 0196 0823     		mov	r3, #8
 386 0198 FB18     		add	r3, r7, r3
 387 019a 3A68     		ldr	r2, [r7]
 388 019c 1A60     		str	r2, [r3]
 238:.\Generated_Source\PSoC4/BLE_hids.c **** 
ARM GAS  C:\Users\Herry\AppData\Local\Temp\ccuIEJCt.s 			page 12


 239:.\Generated_Source\PSoC4/BLE_hids.c ****             if(CYBLE_GATT_ERR_NONE !=
 240:.\Generated_Source\PSoC4/BLE_hids.c ****                 CyBle_GattsWriteAttributeValue(&locHandleValuePair, 0u, NULL, CYBLE_GATT_DB_LOCALLY
 389              		.loc 1 240 0
 390 019e 0823     		mov	r3, #8
 391 01a0 FB18     		add	r3, r7, r3
 392 01a2 181C     		mov	r0, r3
 393 01a4 0021     		mov	r1, #0
 394 01a6 0022     		mov	r2, #0
 395 01a8 0023     		mov	r3, #0
 396 01aa FFF7FEFF 		bl	CyBle_GattsWriteAttributeValue
 397 01ae 031E     		sub	r3, r0, #0
 239:.\Generated_Source\PSoC4/BLE_hids.c ****                 CyBle_GattsWriteAttributeValue(&locHandleValuePair, 0u, NULL, CYBLE_GATT_DB_LOCALLY
 398              		.loc 1 239 0
 399 01b0 03D0     		beq	.L8
 241:.\Generated_Source\PSoC4/BLE_hids.c ****             {
 242:.\Generated_Source\PSoC4/BLE_hids.c ****                 apiResult = CYBLE_ERROR_INVALID_PARAMETER;
 400              		.loc 1 242 0
 401 01b2 1623     		mov	r3, #22
 402 01b4 FB18     		add	r3, r7, r3
 403 01b6 0122     		mov	r2, #1
 404 01b8 1A80     		strh	r2, [r3]
 405              	.L8:
 243:.\Generated_Source\PSoC4/BLE_hids.c ****             }
 244:.\Generated_Source\PSoC4/BLE_hids.c ****         }
 245:.\Generated_Source\PSoC4/BLE_hids.c ****     }
 246:.\Generated_Source\PSoC4/BLE_hids.c ****     return (apiResult);
 406              		.loc 1 246 0
 407 01ba 1623     		mov	r3, #22
 408 01bc FB18     		add	r3, r7, r3
 409 01be 1B88     		ldrh	r3, [r3]
 247:.\Generated_Source\PSoC4/BLE_hids.c **** }
 410              		.loc 1 247 0
 411 01c0 181C     		mov	r0, r3
 412 01c2 BD46     		mov	sp, r7
 413 01c4 07B0     		add	sp, sp, #28
 414              		@ sp needed
 415 01c6 90BD     		pop	{r4, r7, pc}
 416              	.L25:
 417              		.align	2
 418              	.L24:
 419 01c8 30000000 		.word	.L11
 420 01cc 00000000 		.word	cyBle_hidss
 421              		.cfi_endproc
 422              	.LFE4:
 423              		.size	CyBle_HidssSetCharacteristicValue, .-CyBle_HidssSetCharacteristicValue
 424              		.section	.text.CyBle_HidssGetCharacteristicValue,"ax",%progbits
 425              		.align	2
 426              		.global	CyBle_HidssGetCharacteristicValue
 427              		.code	16
 428              		.thumb_func
 429              		.type	CyBle_HidssGetCharacteristicValue, %function
 430              	CyBle_HidssGetCharacteristicValue:
 431              	.LFB5:
 248:.\Generated_Source\PSoC4/BLE_hids.c **** 
 249:.\Generated_Source\PSoC4/BLE_hids.c **** 
 250:.\Generated_Source\PSoC4/BLE_hids.c **** /****************************************************************************** 
 251:.\Generated_Source\PSoC4/BLE_hids.c **** * Function Name: CyBle_HidssGetCharacteristicValue
ARM GAS  C:\Users\Herry\AppData\Local\Temp\ccuIEJCt.s 			page 13


 252:.\Generated_Source\PSoC4/BLE_hids.c **** ***************************************************************************//**
 253:.\Generated_Source\PSoC4/BLE_hids.c **** * 
 254:.\Generated_Source\PSoC4/BLE_hids.c **** *  Gets local characteristic value of the specified HID Service characteristics.
 255:.\Generated_Source\PSoC4/BLE_hids.c **** * 
 256:.\Generated_Source\PSoC4/BLE_hids.c **** *  \param serviceIndex: The index of the service instance. e.g. If two HID Services are 
 257:.\Generated_Source\PSoC4/BLE_hids.c **** *                 supported in your design, then first service will be identified
 258:.\Generated_Source\PSoC4/BLE_hids.c **** *                 by serviceIndex of 0 and the second by serviceIndex of 1.
 259:.\Generated_Source\PSoC4/BLE_hids.c **** * 
 260:.\Generated_Source\PSoC4/BLE_hids.c **** *  \param charIndex: The index of the service characteristic. 
 261:.\Generated_Source\PSoC4/BLE_hids.c **** *              * CYBLE_HIDS_PROTOCOL_MODE - Protocol Mode characteristic
 262:.\Generated_Source\PSoC4/BLE_hids.c **** *              * CYBLE_HIDS_REPORT_MAP - Report Map characteristic
 263:.\Generated_Source\PSoC4/BLE_hids.c **** *              * CYBLE_HIDS_INFORMATION - HID Information characteristic
 264:.\Generated_Source\PSoC4/BLE_hids.c **** *              * CYBLE_HIDS_CONTROL_POINT - HID Control Point characteristic
 265:.\Generated_Source\PSoC4/BLE_hids.c **** *              * CYBLE_HIDS_BOOT_KYBRD_IN_REP - Boot Keyboard Input Report Characteristic
 266:.\Generated_Source\PSoC4/BLE_hids.c **** *              * CYBLE_HIDS_BOOT_KYBRD_OUT_REP - Boot Keyboard Output Report Characteristic
 267:.\Generated_Source\PSoC4/BLE_hids.c **** *              * CYBLE_HIDS_BOOT_MOUSE_IN_REP - Boot Mouse Input Report Characteristic
 268:.\Generated_Source\PSoC4/BLE_hids.c **** *              * CYBLE_HIDS_REPORT - Report Characteristic
 269:.\Generated_Source\PSoC4/BLE_hids.c **** * 
 270:.\Generated_Source\PSoC4/BLE_hids.c **** *  \param attrSize: The size of the characteristic value attribute.
 271:.\Generated_Source\PSoC4/BLE_hids.c **** * 
 272:.\Generated_Source\PSoC4/BLE_hids.c **** *  \param attrValue: The pointer to the location where characteristic value data
 273:.\Generated_Source\PSoC4/BLE_hids.c **** *               should be stored.
 274:.\Generated_Source\PSoC4/BLE_hids.c **** * 
 275:.\Generated_Source\PSoC4/BLE_hids.c **** * \return
 276:.\Generated_Source\PSoC4/BLE_hids.c **** *  Return value is of type CYBLE_API_RESULT_T.
 277:.\Generated_Source\PSoC4/BLE_hids.c **** *  * CYBLE_ERROR_OK - The request handled successfully
 278:.\Generated_Source\PSoC4/BLE_hids.c **** *  * CYBLE_ERROR_INVALID_PARAMETER - Validation of the input parameter failed
 279:.\Generated_Source\PSoC4/BLE_hids.c **** *  * CYBLE_ERROR_GATT_DB_INVALID_ATTR_HANDLE - Optional characteristic is absent
 280:.\Generated_Source\PSoC4/BLE_hids.c **** *
 281:.\Generated_Source\PSoC4/BLE_hids.c **** * \events
 282:.\Generated_Source\PSoC4/BLE_hids.c **** *  None
 283:.\Generated_Source\PSoC4/BLE_hids.c **** *
 284:.\Generated_Source\PSoC4/BLE_hids.c **** ******************************************************************************/
 285:.\Generated_Source\PSoC4/BLE_hids.c **** CYBLE_API_RESULT_T CyBle_HidssGetCharacteristicValue(uint8 serviceIndex, CYBLE_HIDS_CHAR_INDEX_T ch
 286:.\Generated_Source\PSoC4/BLE_hids.c ****     uint8 attrSize, uint8 *attrValue)
 287:.\Generated_Source\PSoC4/BLE_hids.c **** {
 432              		.loc 1 287 0
 433              		.cfi_startproc
 434 0000 90B5     		push	{r4, r7, lr}
 435              		.cfi_def_cfa_offset 12
 436              		.cfi_offset 4, -12
 437              		.cfi_offset 7, -8
 438              		.cfi_offset 14, -4
 439 0002 87B0     		sub	sp, sp, #28
 440              		.cfi_def_cfa_offset 40
 441 0004 00AF     		add	r7, sp, #0
 442              		.cfi_def_cfa_register 7
 443 0006 041C     		mov	r4, r0
 444 0008 081C     		mov	r0, r1
 445 000a 111C     		mov	r1, r2
 446 000c 3B60     		str	r3, [r7]
 447 000e FB1D     		add	r3, r7, #7
 448 0010 221C     		add	r2, r4, #0
 449 0012 1A70     		strb	r2, [r3]
 450 0014 BB1D     		add	r3, r7, #6
 451 0016 021C     		add	r2, r0, #0
 452 0018 1A70     		strb	r2, [r3]
ARM GAS  C:\Users\Herry\AppData\Local\Temp\ccuIEJCt.s 			page 14


 453 001a 7B1D     		add	r3, r7, #5
 454 001c 0A1C     		add	r2, r1, #0
 455 001e 1A70     		strb	r2, [r3]
 288:.\Generated_Source\PSoC4/BLE_hids.c ****     CYBLE_API_RESULT_T apiResult = CYBLE_ERROR_OK;
 456              		.loc 1 288 0
 457 0020 1623     		mov	r3, #22
 458 0022 FB18     		add	r3, r7, r3
 459 0024 0022     		mov	r2, #0
 460 0026 1A80     		strh	r2, [r3]
 289:.\Generated_Source\PSoC4/BLE_hids.c ****     CYBLE_GATT_DB_ATTR_HANDLE_T charValueHandle;
 290:.\Generated_Source\PSoC4/BLE_hids.c ****     CYBLE_GATT_HANDLE_VALUE_PAIR_T locHandleValuePair;
 291:.\Generated_Source\PSoC4/BLE_hids.c **** 
 292:.\Generated_Source\PSoC4/BLE_hids.c ****     if((serviceIndex >= CYBLE_HIDSS_SERVICE_COUNT) || (charIndex >= CYBLE_HIDS_CHAR_COUNT))
 461              		.loc 1 292 0
 462 0028 FB1D     		add	r3, r7, #7
 463 002a 1B78     		ldrb	r3, [r3]
 464 002c 002B     		cmp	r3, #0
 465 002e 03D1     		bne	.L27
 466              		.loc 1 292 0 is_stmt 0 discriminator 1
 467 0030 BB1D     		add	r3, r7, #6
 468 0032 1B78     		ldrb	r3, [r3]
 469 0034 072B     		cmp	r3, #7
 470 0036 04D9     		bls	.L28
 471              	.L27:
 293:.\Generated_Source\PSoC4/BLE_hids.c ****     {
 294:.\Generated_Source\PSoC4/BLE_hids.c ****         apiResult = CYBLE_ERROR_INVALID_PARAMETER;
 472              		.loc 1 294 0 is_stmt 1
 473 0038 1623     		mov	r3, #22
 474 003a FB18     		add	r3, r7, r3
 475 003c 0122     		mov	r2, #1
 476 003e 1A80     		strh	r2, [r3]
 477 0040 BAE0     		b	.L29
 478              	.L28:
 295:.\Generated_Source\PSoC4/BLE_hids.c ****     }
 296:.\Generated_Source\PSoC4/BLE_hids.c ****     else
 297:.\Generated_Source\PSoC4/BLE_hids.c ****     {
 298:.\Generated_Source\PSoC4/BLE_hids.c ****         switch(charIndex)
 479              		.loc 1 298 0
 480 0042 BB1D     		add	r3, r7, #6
 481 0044 1B78     		ldrb	r3, [r3]
 482 0046 062B     		cmp	r3, #6
 483 0048 65D8     		bhi	.L30
 484 004a 9A00     		lsl	r2, r3, #2
 485 004c 5E4B     		ldr	r3, .L45
 486 004e D318     		add	r3, r2, r3
 487 0050 1B68     		ldr	r3, [r3]
 488 0052 9F46     		mov	pc, r3
 489              		.section	.rodata
 490              		.align	2
 491              	.L32:
 492 004c 54000000 		.word	.L31
 493 0050 8A000000 		.word	.L33
 494 0054 A6000000 		.word	.L34
 495 0058 6E000000 		.word	.L35
 496 005c C2000000 		.word	.L36
 497 0060 DE000000 		.word	.L37
 498 0064 FA000000 		.word	.L38
ARM GAS  C:\Users\Herry\AppData\Local\Temp\ccuIEJCt.s 			page 15


 499              		.section	.text.CyBle_HidssGetCharacteristicValue
 500              	.L31:
 299:.\Generated_Source\PSoC4/BLE_hids.c ****         {
 300:.\Generated_Source\PSoC4/BLE_hids.c ****             case CYBLE_HIDS_PROTOCOL_MODE:
 301:.\Generated_Source\PSoC4/BLE_hids.c ****                 charValueHandle = cyBle_hidss[serviceIndex].protocolModeHandle;
 501              		.loc 1 301 0
 502 0054 FB1D     		add	r3, r7, #7
 503 0056 1A78     		ldrb	r2, [r3]
 504 0058 1423     		mov	r3, #20
 505 005a F918     		add	r1, r7, r3
 506 005c 5B48     		ldr	r0, .L45+4
 507 005e 131C     		mov	r3, r2
 508 0060 9B00     		lsl	r3, r3, #2
 509 0062 9B18     		add	r3, r3, r2
 510 0064 DB00     		lsl	r3, r3, #3
 511 0066 C318     		add	r3, r0, r3
 512 0068 5B88     		ldrh	r3, [r3, #2]
 513 006a 0B80     		strh	r3, [r1]
 302:.\Generated_Source\PSoC4/BLE_hids.c ****                 break;
 514              		.loc 1 302 0
 515 006c 7DE0     		b	.L39
 516              	.L35:
 303:.\Generated_Source\PSoC4/BLE_hids.c ****             case CYBLE_HIDS_REPORT_MAP:
 304:.\Generated_Source\PSoC4/BLE_hids.c ****                 charValueHandle = cyBle_hidss[serviceIndex].reportMapHandle;
 517              		.loc 1 304 0
 518 006e FB1D     		add	r3, r7, #7
 519 0070 1A78     		ldrb	r2, [r3]
 520 0072 1423     		mov	r3, #20
 521 0074 F918     		add	r1, r7, r3
 522 0076 5548     		ldr	r0, .L45+4
 523 0078 131C     		mov	r3, r2
 524 007a 9B00     		lsl	r3, r3, #2
 525 007c 9B18     		add	r3, r3, r2
 526 007e DB00     		lsl	r3, r3, #3
 527 0080 C318     		add	r3, r0, r3
 528 0082 1833     		add	r3, r3, #24
 529 0084 DB88     		ldrh	r3, [r3, #6]
 530 0086 0B80     		strh	r3, [r1]
 305:.\Generated_Source\PSoC4/BLE_hids.c ****                 break;
 531              		.loc 1 305 0
 532 0088 6FE0     		b	.L39
 533              	.L33:
 306:.\Generated_Source\PSoC4/BLE_hids.c ****             case CYBLE_HIDS_INFORMATION:
 307:.\Generated_Source\PSoC4/BLE_hids.c ****                 charValueHandle = cyBle_hidss[serviceIndex].informationHandle;
 534              		.loc 1 307 0
 535 008a FB1D     		add	r3, r7, #7
 536 008c 1A78     		ldrb	r2, [r3]
 537 008e 1423     		mov	r3, #20
 538 0090 F918     		add	r1, r7, r3
 539 0092 4E48     		ldr	r0, .L45+4
 540 0094 131C     		mov	r3, r2
 541 0096 9B00     		lsl	r3, r3, #2
 542 0098 9B18     		add	r3, r3, r2
 543 009a DB00     		lsl	r3, r3, #3
 544 009c C318     		add	r3, r0, r3
 545 009e 2033     		add	r3, r3, #32
 546 00a0 5B88     		ldrh	r3, [r3, #2]
ARM GAS  C:\Users\Herry\AppData\Local\Temp\ccuIEJCt.s 			page 16


 547 00a2 0B80     		strh	r3, [r1]
 308:.\Generated_Source\PSoC4/BLE_hids.c ****                 break;
 548              		.loc 1 308 0
 549 00a4 61E0     		b	.L39
 550              	.L34:
 309:.\Generated_Source\PSoC4/BLE_hids.c ****             case CYBLE_HIDS_CONTROL_POINT:
 310:.\Generated_Source\PSoC4/BLE_hids.c ****                 charValueHandle = cyBle_hidss[serviceIndex].controlPointHandle;
 551              		.loc 1 310 0
 552 00a6 FB1D     		add	r3, r7, #7
 553 00a8 1A78     		ldrb	r2, [r3]
 554 00aa 1423     		mov	r3, #20
 555 00ac F918     		add	r1, r7, r3
 556 00ae 4748     		ldr	r0, .L45+4
 557 00b0 131C     		mov	r3, r2
 558 00b2 9B00     		lsl	r3, r3, #2
 559 00b4 9B18     		add	r3, r3, r2
 560 00b6 DB00     		lsl	r3, r3, #3
 561 00b8 C318     		add	r3, r0, r3
 562 00ba 2033     		add	r3, r3, #32
 563 00bc 9B88     		ldrh	r3, [r3, #4]
 564 00be 0B80     		strh	r3, [r1]
 311:.\Generated_Source\PSoC4/BLE_hids.c ****                 break;
 565              		.loc 1 311 0
 566 00c0 53E0     		b	.L39
 567              	.L36:
 312:.\Generated_Source\PSoC4/BLE_hids.c ****             case CYBLE_HIDS_BOOT_KYBRD_IN_REP:
 313:.\Generated_Source\PSoC4/BLE_hids.c ****                 charValueHandle =
 314:.\Generated_Source\PSoC4/BLE_hids.c ****                     cyBle_hidss[serviceIndex].bootReportArray[CYBLE_HIDS_BOOT_KYBRD_IN_REP_INDX].re
 568              		.loc 1 314 0
 569 00c2 FB1D     		add	r3, r7, #7
 570 00c4 1A78     		ldrb	r2, [r3]
 313:.\Generated_Source\PSoC4/BLE_hids.c ****                     cyBle_hidss[serviceIndex].bootReportArray[CYBLE_HIDS_BOOT_KYBRD_IN_REP_INDX].re
 571              		.loc 1 313 0
 572 00c6 1423     		mov	r3, #20
 573 00c8 F918     		add	r1, r7, r3
 574 00ca 4048     		ldr	r0, .L45+4
 575 00cc 131C     		mov	r3, r2
 576 00ce 9B00     		lsl	r3, r3, #2
 577 00d0 9B18     		add	r3, r3, r2
 578 00d2 DB00     		lsl	r3, r3, #3
 579 00d4 C318     		add	r3, r0, r3
 580 00d6 0833     		add	r3, r3, #8
 581 00d8 9B88     		ldrh	r3, [r3, #4]
 582 00da 0B80     		strh	r3, [r1]
 315:.\Generated_Source\PSoC4/BLE_hids.c ****                 break;
 583              		.loc 1 315 0
 584 00dc 45E0     		b	.L39
 585              	.L37:
 316:.\Generated_Source\PSoC4/BLE_hids.c ****             case CYBLE_HIDS_BOOT_KYBRD_OUT_REP:
 317:.\Generated_Source\PSoC4/BLE_hids.c ****                 charValueHandle =
 318:.\Generated_Source\PSoC4/BLE_hids.c ****                     cyBle_hidss[serviceIndex].bootReportArray[CYBLE_HIDS_BOOT_KYBRD_OUT_REP_INDX].r
 586              		.loc 1 318 0
 587 00de FB1D     		add	r3, r7, #7
 588 00e0 1A78     		ldrb	r2, [r3]
 317:.\Generated_Source\PSoC4/BLE_hids.c ****                     cyBle_hidss[serviceIndex].bootReportArray[CYBLE_HIDS_BOOT_KYBRD_OUT_REP_INDX].r
 589              		.loc 1 317 0
 590 00e2 1423     		mov	r3, #20
ARM GAS  C:\Users\Herry\AppData\Local\Temp\ccuIEJCt.s 			page 17


 591 00e4 F918     		add	r1, r7, r3
 592 00e6 3948     		ldr	r0, .L45+4
 593 00e8 131C     		mov	r3, r2
 594 00ea 9B00     		lsl	r3, r3, #2
 595 00ec 9B18     		add	r3, r3, r2
 596 00ee DB00     		lsl	r3, r3, #3
 597 00f0 C318     		add	r3, r0, r3
 598 00f2 0E33     		add	r3, r3, #14
 599 00f4 9B88     		ldrh	r3, [r3, #4]
 600 00f6 0B80     		strh	r3, [r1]
 319:.\Generated_Source\PSoC4/BLE_hids.c ****                 break;
 601              		.loc 1 319 0
 602 00f8 37E0     		b	.L39
 603              	.L38:
 320:.\Generated_Source\PSoC4/BLE_hids.c ****             case CYBLE_HIDS_BOOT_MOUSE_IN_REP:
 321:.\Generated_Source\PSoC4/BLE_hids.c ****                 charValueHandle =
 322:.\Generated_Source\PSoC4/BLE_hids.c ****                     cyBle_hidss[serviceIndex].bootReportArray[CYBLE_HIDS_BOOT_MOUSE_IN_REP_INDX].re
 604              		.loc 1 322 0
 605 00fa FB1D     		add	r3, r7, #7
 606 00fc 1A78     		ldrb	r2, [r3]
 321:.\Generated_Source\PSoC4/BLE_hids.c ****                     cyBle_hidss[serviceIndex].bootReportArray[CYBLE_HIDS_BOOT_MOUSE_IN_REP_INDX].re
 607              		.loc 1 321 0
 608 00fe 1423     		mov	r3, #20
 609 0100 F918     		add	r1, r7, r3
 610 0102 3248     		ldr	r0, .L45+4
 611 0104 131C     		mov	r3, r2
 612 0106 9B00     		lsl	r3, r3, #2
 613 0108 9B18     		add	r3, r3, r2
 614 010a DB00     		lsl	r3, r3, #3
 615 010c C318     		add	r3, r0, r3
 616 010e 1433     		add	r3, r3, #20
 617 0110 9B88     		ldrh	r3, [r3, #4]
 618 0112 0B80     		strh	r3, [r1]
 323:.\Generated_Source\PSoC4/BLE_hids.c ****                 break;
 619              		.loc 1 323 0
 620 0114 29E0     		b	.L39
 621              	.L30:
 324:.\Generated_Source\PSoC4/BLE_hids.c ****             default:                    /* Report characteristic */
 325:.\Generated_Source\PSoC4/BLE_hids.c ****                 /* Verify that requested report exists in particular service */
 326:.\Generated_Source\PSoC4/BLE_hids.c ****                 if((charIndex - CYBLE_HIDS_REPORT) < cyBle_hidss[serviceIndex].reportCount)
 622              		.loc 1 326 0
 623 0116 BB1D     		add	r3, r7, #6
 624 0118 1B78     		ldrb	r3, [r3]
 625 011a D91F     		sub	r1, r3, #7
 626 011c FB1D     		add	r3, r7, #7
 627 011e 1A78     		ldrb	r2, [r3]
 628 0120 2A48     		ldr	r0, .L45+4
 629 0122 131C     		mov	r3, r2
 630 0124 9B00     		lsl	r3, r3, #2
 631 0126 9B18     		add	r3, r3, r2
 632 0128 DB00     		lsl	r3, r3, #3
 633 012a C318     		add	r3, r0, r3
 634 012c 1B79     		ldrb	r3, [r3, #4]
 635 012e 9942     		cmp	r1, r3
 636 0130 16DA     		bge	.L40
 327:.\Generated_Source\PSoC4/BLE_hids.c ****                 {
 328:.\Generated_Source\PSoC4/BLE_hids.c ****                     charValueHandle = cyBle_hidss[serviceIndex].reportArray[charIndex - CYBLE_HIDS_
ARM GAS  C:\Users\Herry\AppData\Local\Temp\ccuIEJCt.s 			page 18


 637              		.loc 1 328 0
 638 0132 FB1D     		add	r3, r7, #7
 639 0134 1A78     		ldrb	r2, [r3]
 640 0136 2549     		ldr	r1, .L45+4
 641 0138 131C     		mov	r3, r2
 642 013a 9B00     		lsl	r3, r3, #2
 643 013c 9B18     		add	r3, r3, r2
 644 013e DB00     		lsl	r3, r3, #3
 645 0140 CB18     		add	r3, r1, r3
 646 0142 0833     		add	r3, r3, #8
 647 0144 1968     		ldr	r1, [r3]
 648 0146 BB1D     		add	r3, r7, #6
 649 0148 1A78     		ldrb	r2, [r3]
 650 014a 131C     		mov	r3, r2
 651 014c 5B00     		lsl	r3, r3, #1
 652 014e 9B18     		add	r3, r3, r2
 653 0150 5B00     		lsl	r3, r3, #1
 654 0152 2A3B     		sub	r3, r3, #42
 655 0154 CA18     		add	r2, r1, r3
 656 0156 1423     		mov	r3, #20
 657 0158 FB18     		add	r3, r7, r3
 658 015a 1288     		ldrh	r2, [r2]
 659 015c 1A80     		strh	r2, [r3]
 329:.\Generated_Source\PSoC4/BLE_hids.c ****                 }
 330:.\Generated_Source\PSoC4/BLE_hids.c ****                 else
 331:.\Generated_Source\PSoC4/BLE_hids.c ****                 {
 332:.\Generated_Source\PSoC4/BLE_hids.c ****                     charValueHandle = CYBLE_GATT_INVALID_ATTR_HANDLE_VALUE;
 333:.\Generated_Source\PSoC4/BLE_hids.c ****                 }
 334:.\Generated_Source\PSoC4/BLE_hids.c ****                 break;
 660              		.loc 1 334 0
 661 015e 03E0     		b	.L44
 662              	.L40:
 332:.\Generated_Source\PSoC4/BLE_hids.c ****                 }
 663              		.loc 1 332 0
 664 0160 1423     		mov	r3, #20
 665 0162 FB18     		add	r3, r7, r3
 666 0164 0022     		mov	r2, #0
 667 0166 1A80     		strh	r2, [r3]
 668              	.L44:
 669              		.loc 1 334 0
 670 0168 C046     		mov	r8, r8
 671              	.L39:
 335:.\Generated_Source\PSoC4/BLE_hids.c ****         }
 336:.\Generated_Source\PSoC4/BLE_hids.c **** 
 337:.\Generated_Source\PSoC4/BLE_hids.c ****         if(charValueHandle == CYBLE_GATT_INVALID_ATTR_HANDLE_VALUE)
 672              		.loc 1 337 0
 673 016a 1423     		mov	r3, #20
 674 016c FB18     		add	r3, r7, r3
 675 016e 1B88     		ldrh	r3, [r3]
 676 0170 002B     		cmp	r3, #0
 677 0172 04D1     		bne	.L42
 338:.\Generated_Source\PSoC4/BLE_hids.c ****         {
 339:.\Generated_Source\PSoC4/BLE_hids.c ****             apiResult = CYBLE_ERROR_GATT_DB_INVALID_ATTR_HANDLE;
 678              		.loc 1 339 0
 679 0174 1623     		mov	r3, #22
 680 0176 FB18     		add	r3, r7, r3
 681 0178 1322     		mov	r2, #19
ARM GAS  C:\Users\Herry\AppData\Local\Temp\ccuIEJCt.s 			page 19


 682 017a 1A80     		strh	r2, [r3]
 683 017c 1CE0     		b	.L29
 684              	.L42:
 340:.\Generated_Source\PSoC4/BLE_hids.c ****         }
 341:.\Generated_Source\PSoC4/BLE_hids.c ****         else
 342:.\Generated_Source\PSoC4/BLE_hids.c ****         {
 343:.\Generated_Source\PSoC4/BLE_hids.c ****             /* Read characteristic value from database */
 344:.\Generated_Source\PSoC4/BLE_hids.c ****             locHandleValuePair.attrHandle = charValueHandle;
 685              		.loc 1 344 0
 686 017e 0823     		mov	r3, #8
 687 0180 FB18     		add	r3, r7, r3
 688 0182 1422     		mov	r2, #20
 689 0184 BA18     		add	r2, r7, r2
 690 0186 1288     		ldrh	r2, [r2]
 691 0188 1A81     		strh	r2, [r3, #8]
 345:.\Generated_Source\PSoC4/BLE_hids.c ****             locHandleValuePair.value.len = attrSize;
 692              		.loc 1 345 0
 693 018a 7B1D     		add	r3, r7, #5
 694 018c 1B78     		ldrb	r3, [r3]
 695 018e 9AB2     		uxth	r2, r3
 696 0190 0823     		mov	r3, #8
 697 0192 FB18     		add	r3, r7, r3
 698 0194 9A80     		strh	r2, [r3, #4]
 346:.\Generated_Source\PSoC4/BLE_hids.c ****             locHandleValuePair.value.val = attrValue;
 699              		.loc 1 346 0
 700 0196 0823     		mov	r3, #8
 701 0198 FB18     		add	r3, r7, r3
 702 019a 3A68     		ldr	r2, [r7]
 703 019c 1A60     		str	r2, [r3]
 347:.\Generated_Source\PSoC4/BLE_hids.c ****             if(CYBLE_GATT_ERR_NONE !=
 348:.\Generated_Source\PSoC4/BLE_hids.c ****                 CyBle_GattsReadAttributeValue(&locHandleValuePair, NULL, CYBLE_GATT_DB_LOCALLY_INIT
 704              		.loc 1 348 0
 705 019e 0823     		mov	r3, #8
 706 01a0 FB18     		add	r3, r7, r3
 707 01a2 181C     		mov	r0, r3
 708 01a4 0021     		mov	r1, #0
 709 01a6 0022     		mov	r2, #0
 710 01a8 FFF7FEFF 		bl	CyBle_GattsReadAttributeValue
 711 01ac 031E     		sub	r3, r0, #0
 347:.\Generated_Source\PSoC4/BLE_hids.c ****             if(CYBLE_GATT_ERR_NONE !=
 712              		.loc 1 347 0
 713 01ae 03D0     		beq	.L29
 349:.\Generated_Source\PSoC4/BLE_hids.c ****             {
 350:.\Generated_Source\PSoC4/BLE_hids.c ****                 apiResult = CYBLE_ERROR_INVALID_PARAMETER;
 714              		.loc 1 350 0
 715 01b0 1623     		mov	r3, #22
 716 01b2 FB18     		add	r3, r7, r3
 717 01b4 0122     		mov	r2, #1
 718 01b6 1A80     		strh	r2, [r3]
 719              	.L29:
 351:.\Generated_Source\PSoC4/BLE_hids.c ****             }
 352:.\Generated_Source\PSoC4/BLE_hids.c ****         }
 353:.\Generated_Source\PSoC4/BLE_hids.c ****     }
 354:.\Generated_Source\PSoC4/BLE_hids.c ****     return (apiResult);
 720              		.loc 1 354 0
 721 01b8 1623     		mov	r3, #22
 722 01ba FB18     		add	r3, r7, r3
ARM GAS  C:\Users\Herry\AppData\Local\Temp\ccuIEJCt.s 			page 20


 723 01bc 1B88     		ldrh	r3, [r3]
 355:.\Generated_Source\PSoC4/BLE_hids.c **** }
 724              		.loc 1 355 0
 725 01be 181C     		mov	r0, r3
 726 01c0 BD46     		mov	sp, r7
 727 01c2 07B0     		add	sp, sp, #28
 728              		@ sp needed
 729 01c4 90BD     		pop	{r4, r7, pc}
 730              	.L46:
 731 01c6 C046     		.align	2
 732              	.L45:
 733 01c8 4C000000 		.word	.L32
 734 01cc 00000000 		.word	cyBle_hidss
 735              		.cfi_endproc
 736              	.LFE5:
 737              		.size	CyBle_HidssGetCharacteristicValue, .-CyBle_HidssGetCharacteristicValue
 738              		.section	.text.CyBle_HidssGetCharacteristicDescriptor,"ax",%progbits
 739              		.align	2
 740              		.global	CyBle_HidssGetCharacteristicDescriptor
 741              		.code	16
 742              		.thumb_func
 743              		.type	CyBle_HidssGetCharacteristicDescriptor, %function
 744              	CyBle_HidssGetCharacteristicDescriptor:
 745              	.LFB6:
 356:.\Generated_Source\PSoC4/BLE_hids.c **** 
 357:.\Generated_Source\PSoC4/BLE_hids.c **** 
 358:.\Generated_Source\PSoC4/BLE_hids.c **** /****************************************************************************** 
 359:.\Generated_Source\PSoC4/BLE_hids.c **** * Function Name: CyBle_HidssGetCharacteristicDescriptor
 360:.\Generated_Source\PSoC4/BLE_hids.c **** ***************************************************************************//**
 361:.\Generated_Source\PSoC4/BLE_hids.c **** * 
 362:.\Generated_Source\PSoC4/BLE_hids.c **** *  Gets local characteristic descriptor of the specified HID Service 
 363:.\Generated_Source\PSoC4/BLE_hids.c **** *  characteristic.
 364:.\Generated_Source\PSoC4/BLE_hids.c **** * 
 365:.\Generated_Source\PSoC4/BLE_hids.c **** *  \param serviceIndex: The index of the service instance. e.g. If two HID Services are 
 366:.\Generated_Source\PSoC4/BLE_hids.c **** *                 supported in your design, then first service will be identified
 367:.\Generated_Source\PSoC4/BLE_hids.c **** *                 by serviceIndex of 0 and the second by serviceIndex of 1.
 368:.\Generated_Source\PSoC4/BLE_hids.c **** * 
 369:.\Generated_Source\PSoC4/BLE_hids.c **** *  \param charIndex: The index of the characteristic.
 370:.\Generated_Source\PSoC4/BLE_hids.c **** *              * CYBLE_HIDS_REPORT_MAP          - Report Map Characteristic
 371:.\Generated_Source\PSoC4/BLE_hids.c **** *              * CYBLE_HIDS_BOOT_KYBRD_IN_REP   - Boot Keyboard Input Report Characteristic
 372:.\Generated_Source\PSoC4/BLE_hids.c **** *              * CYBLE_HIDS_BOOT_KYBRD_OUT_REP  - Boot Keyboard Output Report Characteristic
 373:.\Generated_Source\PSoC4/BLE_hids.c **** *              * CYBLE_HIDS_BOOT_MOUSE_IN_REP   - Boot Mouse Input Report Characteristic
 374:.\Generated_Source\PSoC4/BLE_hids.c **** *              * CYBLE_HIDS_REPORT              - Report Characteristic
 375:.\Generated_Source\PSoC4/BLE_hids.c **** * 
 376:.\Generated_Source\PSoC4/BLE_hids.c **** *  \param descrIndex: The index of the descriptor.
 377:.\Generated_Source\PSoC4/BLE_hids.c **** *               * CYBLE_HIDS_REPORT_CCCD - Client Characteristic Configuration descriptor
 378:.\Generated_Source\PSoC4/BLE_hids.c **** *               * CYBLE_HIDS_REPORT_RRD - Report Reference descriptor
 379:.\Generated_Source\PSoC4/BLE_hids.c **** *               * CYBLE_HIDS_REPORT_MAP_ERRD - Report Map External Report Reference descriptor
 380:.\Generated_Source\PSoC4/BLE_hids.c **** * 
 381:.\Generated_Source\PSoC4/BLE_hids.c **** *  \param attrSize: The size of the descriptor value attribute.
 382:.\Generated_Source\PSoC4/BLE_hids.c **** * 
 383:.\Generated_Source\PSoC4/BLE_hids.c **** *  \param attrValue: The pointer to the location where characteristic descriptor
 384:.\Generated_Source\PSoC4/BLE_hids.c **** *               value data should be stored.
 385:.\Generated_Source\PSoC4/BLE_hids.c **** * 
 386:.\Generated_Source\PSoC4/BLE_hids.c **** * \return
 387:.\Generated_Source\PSoC4/BLE_hids.c **** *  Return value is of type CYBLE_API_RESULT_T.
 388:.\Generated_Source\PSoC4/BLE_hids.c **** *  * CYBLE_ERROR_OK - The request handled successfully
ARM GAS  C:\Users\Herry\AppData\Local\Temp\ccuIEJCt.s 			page 21


 389:.\Generated_Source\PSoC4/BLE_hids.c **** *  * CYBLE_ERROR_INVALID_PARAMETER - Validation of the input parameter failed
 390:.\Generated_Source\PSoC4/BLE_hids.c **** *  * CYBLE_ERROR_GATT_DB_INVALID_ATTR_HANDLE - Optional descriptor is absent
 391:.\Generated_Source\PSoC4/BLE_hids.c **** *
 392:.\Generated_Source\PSoC4/BLE_hids.c **** * \events
 393:.\Generated_Source\PSoC4/BLE_hids.c **** *  None
 394:.\Generated_Source\PSoC4/BLE_hids.c **** *
 395:.\Generated_Source\PSoC4/BLE_hids.c **** ******************************************************************************/
 396:.\Generated_Source\PSoC4/BLE_hids.c **** CYBLE_API_RESULT_T CyBle_HidssGetCharacteristicDescriptor(uint8 serviceIndex, CYBLE_HIDS_CHAR_INDEX
 397:.\Generated_Source\PSoC4/BLE_hids.c ****     CYBLE_HIDS_DESCR_T descrIndex, uint8 attrSize, uint8 *attrValue)
 398:.\Generated_Source\PSoC4/BLE_hids.c **** {
 746              		.loc 1 398 0
 747              		.cfi_startproc
 748 0000 B0B5     		push	{r4, r5, r7, lr}
 749              		.cfi_def_cfa_offset 16
 750              		.cfi_offset 4, -16
 751              		.cfi_offset 5, -12
 752              		.cfi_offset 7, -8
 753              		.cfi_offset 14, -4
 754 0002 88B0     		sub	sp, sp, #32
 755              		.cfi_def_cfa_offset 48
 756 0004 00AF     		add	r7, sp, #0
 757              		.cfi_def_cfa_register 7
 758 0006 051C     		mov	r5, r0
 759 0008 0C1C     		mov	r4, r1
 760 000a 101C     		mov	r0, r2
 761 000c 191C     		mov	r1, r3
 762 000e FB1D     		add	r3, r7, #7
 763 0010 2A1C     		add	r2, r5, #0
 764 0012 1A70     		strb	r2, [r3]
 765 0014 BB1D     		add	r3, r7, #6
 766 0016 221C     		add	r2, r4, #0
 767 0018 1A70     		strb	r2, [r3]
 768 001a 7B1D     		add	r3, r7, #5
 769 001c 021C     		add	r2, r0, #0
 770 001e 1A70     		strb	r2, [r3]
 771 0020 3B1D     		add	r3, r7, #4
 772 0022 0A1C     		add	r2, r1, #0
 773 0024 1A70     		strb	r2, [r3]
 399:.\Generated_Source\PSoC4/BLE_hids.c ****     CYBLE_API_RESULT_T apiResult = CYBLE_ERROR_OK;
 774              		.loc 1 399 0
 775 0026 1E23     		mov	r3, #30
 776 0028 FB18     		add	r3, r7, r3
 777 002a 0022     		mov	r2, #0
 778 002c 1A80     		strh	r2, [r3]
 400:.\Generated_Source\PSoC4/BLE_hids.c ****     CYBLE_GATT_DB_ATTR_HANDLE_T locDescrHandle = CYBLE_GATT_INVALID_ATTR_HANDLE_VALUE;
 779              		.loc 1 400 0
 780 002e 1C23     		mov	r3, #28
 781 0030 FB18     		add	r3, r7, r3
 782 0032 0022     		mov	r2, #0
 783 0034 1A80     		strh	r2, [r3]
 401:.\Generated_Source\PSoC4/BLE_hids.c ****     const CYBLE_HIDSS_REPORT_T *locReport;
 402:.\Generated_Source\PSoC4/BLE_hids.c ****     CYBLE_GATT_HANDLE_VALUE_PAIR_T locHandleValuePair;
 403:.\Generated_Source\PSoC4/BLE_hids.c **** 
 404:.\Generated_Source\PSoC4/BLE_hids.c ****     if((serviceIndex >= CYBLE_HIDSS_SERVICE_COUNT) || (descrIndex >= CYBLE_HIDS_DESCR_COUNT) ||
 784              		.loc 1 404 0
 785 0036 FB1D     		add	r3, r7, #7
 786 0038 1B78     		ldrb	r3, [r3]
ARM GAS  C:\Users\Herry\AppData\Local\Temp\ccuIEJCt.s 			page 22


 787 003a 002B     		cmp	r3, #0
 788 003c 0FD1     		bne	.L48
 789              		.loc 1 404 0 is_stmt 0 discriminator 1
 790 003e 7B1D     		add	r3, r7, #5
 791 0040 1B78     		ldrb	r3, [r3]
 792 0042 022B     		cmp	r3, #2
 793 0044 0BD8     		bhi	.L48
 794              		.loc 1 404 0 discriminator 2
 795 0046 BB1D     		add	r3, r7, #6
 796 0048 1B78     		ldrb	r3, [r3]
 797 004a 072B     		cmp	r3, #7
 798 004c 07D8     		bhi	.L48
 405:.\Generated_Source\PSoC4/BLE_hids.c ****        (charIndex >= CYBLE_HIDS_CHAR_COUNT) || (charIndex < CYBLE_HIDS_REPORT_MAP) || 
 799              		.loc 1 405 0 is_stmt 1
 800 004e BB1D     		add	r3, r7, #6
 801 0050 1B78     		ldrb	r3, [r3]
 802 0052 022B     		cmp	r3, #2
 803 0054 03D9     		bls	.L48
 804              		.loc 1 405 0 is_stmt 0 discriminator 1
 805 0056 BB1D     		add	r3, r7, #6
 806 0058 1B78     		ldrb	r3, [r3]
 807 005a 052B     		cmp	r3, #5
 808 005c 04D1     		bne	.L49
 809              	.L48:
 406:.\Generated_Source\PSoC4/BLE_hids.c ****        (charIndex == CYBLE_HIDS_BOOT_KYBRD_OUT_REP))
 407:.\Generated_Source\PSoC4/BLE_hids.c ****     {
 408:.\Generated_Source\PSoC4/BLE_hids.c ****         apiResult = CYBLE_ERROR_INVALID_PARAMETER;
 810              		.loc 1 408 0 is_stmt 1
 811 005e 1E23     		mov	r3, #30
 812 0060 FB18     		add	r3, r7, r3
 813 0062 0122     		mov	r2, #1
 814 0064 1A80     		strh	r2, [r3]
 815 0066 63E0     		b	.L50
 816              	.L49:
 409:.\Generated_Source\PSoC4/BLE_hids.c ****     }
 410:.\Generated_Source\PSoC4/BLE_hids.c ****     else
 411:.\Generated_Source\PSoC4/BLE_hids.c ****     {
 412:.\Generated_Source\PSoC4/BLE_hids.c ****         if(charIndex == CYBLE_HIDS_REPORT_MAP)
 817              		.loc 1 412 0
 818 0068 BB1D     		add	r3, r7, #6
 819 006a 1B78     		ldrb	r3, [r3]
 820 006c 032B     		cmp	r3, #3
 821 006e 16D1     		bne	.L51
 413:.\Generated_Source\PSoC4/BLE_hids.c ****         {
 414:.\Generated_Source\PSoC4/BLE_hids.c ****             if(descrIndex == CYBLE_HIDS_REPORT_MAP_ERRD)
 822              		.loc 1 414 0
 823 0070 7B1D     		add	r3, r7, #5
 824 0072 1B78     		ldrb	r3, [r3]
 825 0074 022B     		cmp	r3, #2
 826 0076 0DD1     		bne	.L52
 415:.\Generated_Source\PSoC4/BLE_hids.c ****             {
 416:.\Generated_Source\PSoC4/BLE_hids.c ****                 locDescrHandle = cyBle_hidss[serviceIndex].reportMapErrdHandle;
 827              		.loc 1 416 0
 828 0078 FB1D     		add	r3, r7, #7
 829 007a 1A78     		ldrb	r2, [r3]
 830 007c 1C23     		mov	r3, #28
 831 007e F918     		add	r1, r7, r3
ARM GAS  C:\Users\Herry\AppData\Local\Temp\ccuIEJCt.s 			page 23


 832 0080 4548     		ldr	r0, .L61
 833 0082 131C     		mov	r3, r2
 834 0084 9B00     		lsl	r3, r3, #2
 835 0086 9B18     		add	r3, r3, r2
 836 0088 DB00     		lsl	r3, r3, #3
 837 008a C318     		add	r3, r0, r3
 838 008c 2033     		add	r3, r3, #32
 839 008e 1B88     		ldrh	r3, [r3]
 840 0090 0B80     		strh	r3, [r1]
 841 0092 4DE0     		b	.L50
 842              	.L52:
 417:.\Generated_Source\PSoC4/BLE_hids.c ****             }
 418:.\Generated_Source\PSoC4/BLE_hids.c ****             else
 419:.\Generated_Source\PSoC4/BLE_hids.c ****             {
 420:.\Generated_Source\PSoC4/BLE_hids.c ****                 apiResult = CYBLE_ERROR_INVALID_PARAMETER;
 843              		.loc 1 420 0
 844 0094 1E23     		mov	r3, #30
 845 0096 FB18     		add	r3, r7, r3
 846 0098 0122     		mov	r2, #1
 847 009a 1A80     		strh	r2, [r3]
 848 009c 48E0     		b	.L50
 849              	.L51:
 421:.\Generated_Source\PSoC4/BLE_hids.c ****             }
 422:.\Generated_Source\PSoC4/BLE_hids.c ****         }
 423:.\Generated_Source\PSoC4/BLE_hids.c ****         else /* Report characteristics */
 424:.\Generated_Source\PSoC4/BLE_hids.c ****         {
 425:.\Generated_Source\PSoC4/BLE_hids.c ****             /* Get report structure */
 426:.\Generated_Source\PSoC4/BLE_hids.c ****             if((charIndex >= CYBLE_HIDS_BOOT_KYBRD_IN_REP) && (charIndex <= CYBLE_HIDS_BOOT_MOUSE_I
 850              		.loc 1 426 0
 851 009e BB1D     		add	r3, r7, #6
 852 00a0 1B78     		ldrb	r3, [r3]
 853 00a2 032B     		cmp	r3, #3
 854 00a4 19D9     		bls	.L54
 855              		.loc 1 426 0 is_stmt 0 discriminator 1
 856 00a6 BB1D     		add	r3, r7, #6
 857 00a8 1B78     		ldrb	r3, [r3]
 858 00aa 062B     		cmp	r3, #6
 859 00ac 15D8     		bhi	.L54
 427:.\Generated_Source\PSoC4/BLE_hids.c ****             {
 428:.\Generated_Source\PSoC4/BLE_hids.c ****                 locReport = &cyBle_hidss[serviceIndex].bootReportArray[charIndex - CYBLE_HIDS_BOOT_
 860              		.loc 1 428 0 is_stmt 1
 861 00ae FB1D     		add	r3, r7, #7
 862 00b0 1978     		ldrb	r1, [r3]
 863 00b2 BB1D     		add	r3, r7, #6
 864 00b4 1B78     		ldrb	r3, [r3]
 865 00b6 043B     		sub	r3, r3, #4
 866 00b8 1A1C     		mov	r2, r3
 867 00ba 5200     		lsl	r2, r2, #1
 868 00bc D218     		add	r2, r2, r3
 869 00be 5300     		lsl	r3, r2, #1
 870 00c0 1A1C     		mov	r2, r3
 871 00c2 0B1C     		mov	r3, r1
 872 00c4 9B00     		lsl	r3, r3, #2
 873 00c6 5B18     		add	r3, r3, r1
 874 00c8 DB00     		lsl	r3, r3, #3
 875 00ca D318     		add	r3, r2, r3
 876 00cc 0833     		add	r3, r3, #8
ARM GAS  C:\Users\Herry\AppData\Local\Temp\ccuIEJCt.s 			page 24


 877 00ce 1A1C     		mov	r2, r3
 878 00d0 314B     		ldr	r3, .L61
 879 00d2 D318     		add	r3, r2, r3
 880 00d4 0433     		add	r3, r3, #4
 881 00d6 BB61     		str	r3, [r7, #24]
 882 00d8 12E0     		b	.L55
 883              	.L54:
 429:.\Generated_Source\PSoC4/BLE_hids.c ****             }
 430:.\Generated_Source\PSoC4/BLE_hids.c ****             else
 431:.\Generated_Source\PSoC4/BLE_hids.c ****             {
 432:.\Generated_Source\PSoC4/BLE_hids.c ****                 locReport = &cyBle_hidss[serviceIndex].reportArray[charIndex - CYBLE_HIDS_REPORT];
 884              		.loc 1 432 0
 885 00da FB1D     		add	r3, r7, #7
 886 00dc 1A78     		ldrb	r2, [r3]
 887 00de 2E49     		ldr	r1, .L61
 888 00e0 131C     		mov	r3, r2
 889 00e2 9B00     		lsl	r3, r3, #2
 890 00e4 9B18     		add	r3, r3, r2
 891 00e6 DB00     		lsl	r3, r3, #3
 892 00e8 CB18     		add	r3, r1, r3
 893 00ea 0833     		add	r3, r3, #8
 894 00ec 1968     		ldr	r1, [r3]
 895 00ee BB1D     		add	r3, r7, #6
 896 00f0 1A78     		ldrb	r2, [r3]
 897 00f2 131C     		mov	r3, r2
 898 00f4 5B00     		lsl	r3, r3, #1
 899 00f6 9B18     		add	r3, r3, r2
 900 00f8 5B00     		lsl	r3, r3, #1
 901 00fa 2A3B     		sub	r3, r3, #42
 902 00fc CB18     		add	r3, r1, r3
 903 00fe BB61     		str	r3, [r7, #24]
 904              	.L55:
 433:.\Generated_Source\PSoC4/BLE_hids.c ****             }
 434:.\Generated_Source\PSoC4/BLE_hids.c ****             /* Get descriptor handle from report structure */
 435:.\Generated_Source\PSoC4/BLE_hids.c ****             if(descrIndex == CYBLE_HIDS_REPORT_CCCD)
 905              		.loc 1 435 0
 906 0100 7B1D     		add	r3, r7, #5
 907 0102 1B78     		ldrb	r3, [r3]
 908 0104 002B     		cmp	r3, #0
 909 0106 05D1     		bne	.L56
 436:.\Generated_Source\PSoC4/BLE_hids.c ****             {
 437:.\Generated_Source\PSoC4/BLE_hids.c ****                 locDescrHandle = locReport->cccdHandle;
 910              		.loc 1 437 0
 911 0108 1C23     		mov	r3, #28
 912 010a FB18     		add	r3, r7, r3
 913 010c BA69     		ldr	r2, [r7, #24]
 914 010e 5288     		ldrh	r2, [r2, #2]
 915 0110 1A80     		strh	r2, [r3]
 916 0112 0DE0     		b	.L50
 917              	.L56:
 438:.\Generated_Source\PSoC4/BLE_hids.c ****             }
 439:.\Generated_Source\PSoC4/BLE_hids.c ****             else if(descrIndex == CYBLE_HIDS_REPORT_RRD)
 918              		.loc 1 439 0
 919 0114 7B1D     		add	r3, r7, #5
 920 0116 1B78     		ldrb	r3, [r3]
 921 0118 012B     		cmp	r3, #1
 922 011a 05D1     		bne	.L57
ARM GAS  C:\Users\Herry\AppData\Local\Temp\ccuIEJCt.s 			page 25


 440:.\Generated_Source\PSoC4/BLE_hids.c ****             {
 441:.\Generated_Source\PSoC4/BLE_hids.c ****                 locDescrHandle = locReport->rrdHandle;
 923              		.loc 1 441 0
 924 011c 1C23     		mov	r3, #28
 925 011e FB18     		add	r3, r7, r3
 926 0120 BA69     		ldr	r2, [r7, #24]
 927 0122 9288     		ldrh	r2, [r2, #4]
 928 0124 1A80     		strh	r2, [r3]
 929 0126 03E0     		b	.L50
 930              	.L57:
 442:.\Generated_Source\PSoC4/BLE_hids.c ****             }
 443:.\Generated_Source\PSoC4/BLE_hids.c ****             else /* External Report Reference descriptor doesn't exist for report characteristic */
 444:.\Generated_Source\PSoC4/BLE_hids.c ****             {
 445:.\Generated_Source\PSoC4/BLE_hids.c ****                 apiResult = CYBLE_ERROR_INVALID_PARAMETER;
 931              		.loc 1 445 0
 932 0128 1E23     		mov	r3, #30
 933 012a FB18     		add	r3, r7, r3
 934 012c 0122     		mov	r2, #1
 935 012e 1A80     		strh	r2, [r3]
 936              	.L50:
 446:.\Generated_Source\PSoC4/BLE_hids.c ****             }
 447:.\Generated_Source\PSoC4/BLE_hids.c ****         }
 448:.\Generated_Source\PSoC4/BLE_hids.c ****     }
 449:.\Generated_Source\PSoC4/BLE_hids.c ****     if(apiResult != CYBLE_ERROR_INVALID_PARAMETER)
 937              		.loc 1 449 0
 938 0130 1E23     		mov	r3, #30
 939 0132 FB18     		add	r3, r7, r3
 940 0134 1B88     		ldrh	r3, [r3]
 941 0136 012B     		cmp	r3, #1
 942 0138 26D0     		beq	.L58
 450:.\Generated_Source\PSoC4/BLE_hids.c ****     {
 451:.\Generated_Source\PSoC4/BLE_hids.c ****         if(locDescrHandle == CYBLE_GATT_INVALID_ATTR_HANDLE_VALUE)
 943              		.loc 1 451 0
 944 013a 1C23     		mov	r3, #28
 945 013c FB18     		add	r3, r7, r3
 946 013e 1B88     		ldrh	r3, [r3]
 947 0140 002B     		cmp	r3, #0
 948 0142 04D1     		bne	.L59
 452:.\Generated_Source\PSoC4/BLE_hids.c ****         {
 453:.\Generated_Source\PSoC4/BLE_hids.c ****             apiResult = CYBLE_ERROR_GATT_DB_INVALID_ATTR_HANDLE;
 949              		.loc 1 453 0
 950 0144 1E23     		mov	r3, #30
 951 0146 FB18     		add	r3, r7, r3
 952 0148 1322     		mov	r2, #19
 953 014a 1A80     		strh	r2, [r3]
 954 014c 1CE0     		b	.L58
 955              	.L59:
 454:.\Generated_Source\PSoC4/BLE_hids.c ****         }
 455:.\Generated_Source\PSoC4/BLE_hids.c ****         else
 456:.\Generated_Source\PSoC4/BLE_hids.c ****         {
 457:.\Generated_Source\PSoC4/BLE_hids.c ****             /* Read value from database */
 458:.\Generated_Source\PSoC4/BLE_hids.c ****             locHandleValuePair.attrHandle = locDescrHandle;
 956              		.loc 1 458 0
 957 014e 0C23     		mov	r3, #12
 958 0150 FB18     		add	r3, r7, r3
 959 0152 1C22     		mov	r2, #28
 960 0154 BA18     		add	r2, r7, r2
ARM GAS  C:\Users\Herry\AppData\Local\Temp\ccuIEJCt.s 			page 26


 961 0156 1288     		ldrh	r2, [r2]
 962 0158 1A81     		strh	r2, [r3, #8]
 459:.\Generated_Source\PSoC4/BLE_hids.c ****             locHandleValuePair.value.len = attrSize;
 963              		.loc 1 459 0
 964 015a 3B1D     		add	r3, r7, #4
 965 015c 1B78     		ldrb	r3, [r3]
 966 015e 9AB2     		uxth	r2, r3
 967 0160 0C23     		mov	r3, #12
 968 0162 FB18     		add	r3, r7, r3
 969 0164 9A80     		strh	r2, [r3, #4]
 460:.\Generated_Source\PSoC4/BLE_hids.c ****             locHandleValuePair.value.val = attrValue;
 970              		.loc 1 460 0
 971 0166 0C23     		mov	r3, #12
 972 0168 FB18     		add	r3, r7, r3
 973 016a 3A6B     		ldr	r2, [r7, #48]
 974 016c 1A60     		str	r2, [r3]
 461:.\Generated_Source\PSoC4/BLE_hids.c ****             if(CYBLE_GATT_ERR_NONE !=
 462:.\Generated_Source\PSoC4/BLE_hids.c ****                 CyBle_GattsReadAttributeValue(&locHandleValuePair, NULL, CYBLE_GATT_DB_LOCALLY_INIT
 975              		.loc 1 462 0
 976 016e 0C23     		mov	r3, #12
 977 0170 FB18     		add	r3, r7, r3
 978 0172 181C     		mov	r0, r3
 979 0174 0021     		mov	r1, #0
 980 0176 0022     		mov	r2, #0
 981 0178 FFF7FEFF 		bl	CyBle_GattsReadAttributeValue
 982 017c 031E     		sub	r3, r0, #0
 461:.\Generated_Source\PSoC4/BLE_hids.c ****             if(CYBLE_GATT_ERR_NONE !=
 983              		.loc 1 461 0
 984 017e 03D0     		beq	.L58
 463:.\Generated_Source\PSoC4/BLE_hids.c ****             {
 464:.\Generated_Source\PSoC4/BLE_hids.c ****                 apiResult = CYBLE_ERROR_INVALID_PARAMETER;
 985              		.loc 1 464 0
 986 0180 1E23     		mov	r3, #30
 987 0182 FB18     		add	r3, r7, r3
 988 0184 0122     		mov	r2, #1
 989 0186 1A80     		strh	r2, [r3]
 990              	.L58:
 465:.\Generated_Source\PSoC4/BLE_hids.c ****             }
 466:.\Generated_Source\PSoC4/BLE_hids.c ****         }
 467:.\Generated_Source\PSoC4/BLE_hids.c ****     }
 468:.\Generated_Source\PSoC4/BLE_hids.c ****     return (apiResult);
 991              		.loc 1 468 0
 992 0188 1E23     		mov	r3, #30
 993 018a FB18     		add	r3, r7, r3
 994 018c 1B88     		ldrh	r3, [r3]
 469:.\Generated_Source\PSoC4/BLE_hids.c **** }
 995              		.loc 1 469 0
 996 018e 181C     		mov	r0, r3
 997 0190 BD46     		mov	sp, r7
 998 0192 08B0     		add	sp, sp, #32
 999              		@ sp needed
 1000 0194 B0BD     		pop	{r4, r5, r7, pc}
 1001              	.L62:
 1002 0196 C046     		.align	2
 1003              	.L61:
 1004 0198 00000000 		.word	cyBle_hidss
 1005              		.cfi_endproc
ARM GAS  C:\Users\Herry\AppData\Local\Temp\ccuIEJCt.s 			page 27


 1006              	.LFE6:
 1007              		.size	CyBle_HidssGetCharacteristicDescriptor, .-CyBle_HidssGetCharacteristicDescriptor
 1008              		.section	.text.CyBle_HidssCccdWriteEventHandler,"ax",%progbits
 1009              		.align	2
 1010              		.code	16
 1011              		.thumb_func
 1012              		.type	CyBle_HidssCccdWriteEventHandler, %function
 1013              	CyBle_HidssCccdWriteEventHandler:
 1014              	.LFB7:
 470:.\Generated_Source\PSoC4/BLE_hids.c **** 
 471:.\Generated_Source\PSoC4/BLE_hids.c **** 
 472:.\Generated_Source\PSoC4/BLE_hids.c **** /****************************************************************************** 
 473:.\Generated_Source\PSoC4/BLE_hids.c **** * Function Name: CyBle_HidssCccdWriteEventHandler
 474:.\Generated_Source\PSoC4/BLE_hids.c **** ***************************************************************************//**
 475:.\Generated_Source\PSoC4/BLE_hids.c **** * 
 476:.\Generated_Source\PSoC4/BLE_hids.c **** *  Handles the Write Request Event of the Client Characteristic Configuration
 477:.\Generated_Source\PSoC4/BLE_hids.c **** *  descriptor.
 478:.\Generated_Source\PSoC4/BLE_hids.c **** * 
 479:.\Generated_Source\PSoC4/BLE_hids.c **** *  \param serviceIndex: The index of the service instance.
 480:.\Generated_Source\PSoC4/BLE_hids.c **** *  \param charIndex: The index of the characteristic.
 481:.\Generated_Source\PSoC4/BLE_hids.c **** *  \param eventParam: The pointer to the data structure specified by the event.
 482:.\Generated_Source\PSoC4/BLE_hids.c **** * 
 483:.\Generated_Source\PSoC4/BLE_hids.c **** * \return
 484:.\Generated_Source\PSoC4/BLE_hids.c **** *  uint32 eventCode: The event code to be send to application.
 485:.\Generated_Source\PSoC4/BLE_hids.c **** * 
 486:.\Generated_Source\PSoC4/BLE_hids.c **** ******************************************************************************/
 487:.\Generated_Source\PSoC4/BLE_hids.c **** static uint32 CyBle_HidssCccdWriteEventHandler(uint8 serviceIndex, const CYBLE_GATTS_WRITE_REQ_PARA
 488:.\Generated_Source\PSoC4/BLE_hids.c **** {
 1015              		.loc 1 488 0
 1016              		.cfi_startproc
 1017 0000 80B5     		push	{r7, lr}
 1018              		.cfi_def_cfa_offset 8
 1019              		.cfi_offset 7, -8
 1020              		.cfi_offset 14, -4
 1021 0002 84B0     		sub	sp, sp, #16
 1022              		.cfi_def_cfa_offset 24
 1023 0004 00AF     		add	r7, sp, #0
 1024              		.cfi_def_cfa_register 7
 1025 0006 021C     		mov	r2, r0
 1026 0008 3960     		str	r1, [r7]
 1027 000a FB1D     		add	r3, r7, #7
 1028 000c 1A70     		strb	r2, [r3]
 489:.\Generated_Source\PSoC4/BLE_hids.c ****     uint32 eventCode;
 490:.\Generated_Source\PSoC4/BLE_hids.c **** 
 491:.\Generated_Source\PSoC4/BLE_hids.c ****     if(CYBLE_IS_NOTIFICATION_ENABLED_IN_PTR(eventParam->handleValPair.value.val))
 1029              		.loc 1 491 0
 1030 000e 3B68     		ldr	r3, [r7]
 1031 0010 5B68     		ldr	r3, [r3, #4]
 1032 0012 181C     		mov	r0, r3
 1033 0014 FFF7FEFF 		bl	CyBle_Get16ByPtr
 1034 0018 031C     		mov	r3, r0
 1035 001a 1A1C     		mov	r2, r3
 1036 001c 0123     		mov	r3, #1
 1037 001e 1340     		and	r3, r2
 1038 0020 9BB2     		uxth	r3, r3
 1039 0022 002B     		cmp	r3, #0
 1040 0024 03D0     		beq	.L64
ARM GAS  C:\Users\Herry\AppData\Local\Temp\ccuIEJCt.s 			page 28


 492:.\Generated_Source\PSoC4/BLE_hids.c ****     {
 493:.\Generated_Source\PSoC4/BLE_hids.c ****         eventCode = (uint32)CYBLE_EVT_HIDSS_NOTIFICATION_ENABLED;
 1041              		.loc 1 493 0
 1042 0026 C423     		mov	r3, #196
 1043 0028 5B00     		lsl	r3, r3, #1
 1044 002a FB60     		str	r3, [r7, #12]
 1045 002c 02E0     		b	.L65
 1046              	.L64:
 494:.\Generated_Source\PSoC4/BLE_hids.c ****     }
 495:.\Generated_Source\PSoC4/BLE_hids.c ****     else
 496:.\Generated_Source\PSoC4/BLE_hids.c ****     {
 497:.\Generated_Source\PSoC4/BLE_hids.c ****         eventCode = (uint32)CYBLE_EVT_HIDSS_NOTIFICATION_DISABLED;
 1047              		.loc 1 497 0
 1048 002e 8A23     		mov	r3, #138
 1049 0030 FF33     		add	r3, r3, #255
 1050 0032 FB60     		str	r3, [r7, #12]
 1051              	.L65:
 498:.\Generated_Source\PSoC4/BLE_hids.c ****     }
 499:.\Generated_Source\PSoC4/BLE_hids.c ****     cyBle_eventHandlerFlag &= (uint8)~CYBLE_CALLBACK;
 1052              		.loc 1 499 0
 1053 0034 0B4B     		ldr	r3, .L68
 1054 0036 1B78     		ldrb	r3, [r3]
 1055 0038 DBB2     		uxtb	r3, r3
 1056 003a 0122     		mov	r2, #1
 1057 003c 9343     		bic	r3, r2
 1058 003e DAB2     		uxtb	r2, r3
 1059 0040 084B     		ldr	r3, .L68
 1060 0042 1A70     		strb	r2, [r3]
 500:.\Generated_Source\PSoC4/BLE_hids.c ****     
 501:.\Generated_Source\PSoC4/BLE_hids.c **** #if((CYBLE_GAP_ROLE_PERIPHERAL || CYBLE_GAP_ROLE_CENTRAL) && (CYBLE_BONDING_REQUIREMENT == CYBLE_BO
 502:.\Generated_Source\PSoC4/BLE_hids.c ****     /* Set flag to store bonding data to flash */
 503:.\Generated_Source\PSoC4/BLE_hids.c ****     if(cyBle_peerBonding == CYBLE_GAP_BONDING)
 1061              		.loc 1 503 0
 1062 0044 084B     		ldr	r3, .L68+4
 1063 0046 1B78     		ldrb	r3, [r3]
 1064 0048 012B     		cmp	r3, #1
 1065 004a 06D1     		bne	.L66
 504:.\Generated_Source\PSoC4/BLE_hids.c ****     {
 505:.\Generated_Source\PSoC4/BLE_hids.c ****         cyBle_pendingFlashWrite |= CYBLE_PENDING_CCCD_FLASH_WRITE_BIT;
 1066              		.loc 1 505 0
 1067 004c 074B     		ldr	r3, .L68+8
 1068 004e 1B78     		ldrb	r3, [r3]
 1069 0050 0222     		mov	r2, #2
 1070 0052 1343     		orr	r3, r2
 1071 0054 DAB2     		uxtb	r2, r3
 1072 0056 054B     		ldr	r3, .L68+8
 1073 0058 1A70     		strb	r2, [r3]
 1074              	.L66:
 506:.\Generated_Source\PSoC4/BLE_hids.c ****     }
 507:.\Generated_Source\PSoC4/BLE_hids.c **** #endif /* (CYBLE_BONDING_REQUIREMENT == CYBLE_BONDING_YES) */
 508:.\Generated_Source\PSoC4/BLE_hids.c **** 
 509:.\Generated_Source\PSoC4/BLE_hids.c ****     return(eventCode);
 1075              		.loc 1 509 0
 1076 005a FB68     		ldr	r3, [r7, #12]
 510:.\Generated_Source\PSoC4/BLE_hids.c **** }
 1077              		.loc 1 510 0
 1078 005c 181C     		mov	r0, r3
ARM GAS  C:\Users\Herry\AppData\Local\Temp\ccuIEJCt.s 			page 29


 1079 005e BD46     		mov	sp, r7
 1080 0060 04B0     		add	sp, sp, #16
 1081              		@ sp needed
 1082 0062 80BD     		pop	{r7, pc}
 1083              	.L69:
 1084              		.align	2
 1085              	.L68:
 1086 0064 00000000 		.word	cyBle_eventHandlerFlag
 1087 0068 00000000 		.word	cyBle_peerBonding
 1088 006c 00000000 		.word	cyBle_pendingFlashWrite
 1089              		.cfi_endproc
 1090              	.LFE7:
 1091              		.size	CyBle_HidssCccdWriteEventHandler, .-CyBle_HidssCccdWriteEventHandler
 1092              		.section	.text.CyBle_HidssWriteEventHandler,"ax",%progbits
 1093              		.align	2
 1094              		.global	CyBle_HidssWriteEventHandler
 1095              		.code	16
 1096              		.thumb_func
 1097              		.type	CyBle_HidssWriteEventHandler, %function
 1098              	CyBle_HidssWriteEventHandler:
 1099              	.LFB8:
 511:.\Generated_Source\PSoC4/BLE_hids.c **** 
 512:.\Generated_Source\PSoC4/BLE_hids.c **** 
 513:.\Generated_Source\PSoC4/BLE_hids.c **** /****************************************************************************** 
 514:.\Generated_Source\PSoC4/BLE_hids.c **** * Function Name: CyBle_HidssWriteEventHandler
 515:.\Generated_Source\PSoC4/BLE_hids.c **** ***************************************************************************//**
 516:.\Generated_Source\PSoC4/BLE_hids.c **** * 
 517:.\Generated_Source\PSoC4/BLE_hids.c **** *  Handles the Write Request Event.
 518:.\Generated_Source\PSoC4/BLE_hids.c **** * 
 519:.\Generated_Source\PSoC4/BLE_hids.c **** *  \param eventParam: The pointer to the data structure specified by the event.
 520:.\Generated_Source\PSoC4/BLE_hids.c **** * 
 521:.\Generated_Source\PSoC4/BLE_hids.c **** * \return
 522:.\Generated_Source\PSoC4/BLE_hids.c **** *  Return value is of type CYBLE_GATT_ERR_CODE_T.
 523:.\Generated_Source\PSoC4/BLE_hids.c **** *   * CYBLE_GATT_ERR_NONE - Write is successful.
 524:.\Generated_Source\PSoC4/BLE_hids.c **** * 
 525:.\Generated_Source\PSoC4/BLE_hids.c **** ******************************************************************************/
 526:.\Generated_Source\PSoC4/BLE_hids.c **** CYBLE_GATT_ERR_CODE_T CyBle_HidssWriteEventHandler(CYBLE_GATTS_WRITE_REQ_PARAM_T *eventParam)
 527:.\Generated_Source\PSoC4/BLE_hids.c **** {
 1100              		.loc 1 527 0
 1101              		.cfi_startproc
 1102 0000 90B5     		push	{r4, r7, lr}
 1103              		.cfi_def_cfa_offset 12
 1104              		.cfi_offset 4, -12
 1105              		.cfi_offset 7, -8
 1106              		.cfi_offset 14, -4
 1107 0002 89B0     		sub	sp, sp, #36
 1108              		.cfi_def_cfa_offset 48
 1109 0004 00AF     		add	r7, sp, #0
 1110              		.cfi_def_cfa_register 7
 1111 0006 7860     		str	r0, [r7, #4]
 528:.\Generated_Source\PSoC4/BLE_hids.c ****     CYBLE_GATT_ERR_CODE_T gattErr = CYBLE_GATT_ERR_NONE;
 1112              		.loc 1 528 0
 1113 0008 1F23     		mov	r3, #31
 1114 000a FB18     		add	r3, r7, r3
 1115 000c 0022     		mov	r2, #0
 1116 000e 1A70     		strb	r2, [r3]
 529:.\Generated_Source\PSoC4/BLE_hids.c ****     uint8 locServIndex = 0u;
ARM GAS  C:\Users\Herry\AppData\Local\Temp\ccuIEJCt.s 			page 30


 1117              		.loc 1 529 0
 1118 0010 1E23     		mov	r3, #30
 1119 0012 FB18     		add	r3, r7, r3
 1120 0014 0022     		mov	r2, #0
 1121 0016 1A70     		strb	r2, [r3]
 530:.\Generated_Source\PSoC4/BLE_hids.c ****     uint8 reportIndex;
 531:.\Generated_Source\PSoC4/BLE_hids.c ****     CYBLE_HIDS_CHAR_INDEX_T locCharIndex;
 532:.\Generated_Source\PSoC4/BLE_hids.c ****     CYBLE_HIDS_CHAR_VALUE_T locCharValue;
 533:.\Generated_Source\PSoC4/BLE_hids.c ****     uint32 eventCode = 0u;
 1122              		.loc 1 533 0
 1123 0018 0023     		mov	r3, #0
 1124 001a BB61     		str	r3, [r7, #24]
 534:.\Generated_Source\PSoC4/BLE_hids.c **** 
 535:.\Generated_Source\PSoC4/BLE_hids.c ****     if(NULL != CyBle_HidsApplCallback)
 1125              		.loc 1 535 0
 1126 001c 9C4B     		ldr	r3, .L96
 1127 001e 1B68     		ldr	r3, [r3]
 1128 0020 002B     		cmp	r3, #0
 1129 0022 00D1     		bne	.LCB1005
 1130 0024 EBE1     		b	.L71	@long jump
 1131              	.LCB1005:
 536:.\Generated_Source\PSoC4/BLE_hids.c ****     {
 537:.\Generated_Source\PSoC4/BLE_hids.c ****         locCharValue.connHandle = eventParam->connHandle;
 1132              		.loc 1 537 0
 1133 0026 0C23     		mov	r3, #12
 1134 0028 FB18     		add	r3, r7, r3
 1135 002a 7A68     		ldr	r2, [r7, #4]
 1136 002c 1288     		ldrh	r2, [r2]
 1137 002e 1A80     		strh	r2, [r3]
 538:.\Generated_Source\PSoC4/BLE_hids.c ****         locCharValue.value = NULL;
 1138              		.loc 1 538 0
 1139 0030 0C23     		mov	r3, #12
 1140 0032 FB18     		add	r3, r7, r3
 1141 0034 0022     		mov	r2, #0
 1142 0036 5A60     		str	r2, [r3, #4]
 1143              	.L94:
 539:.\Generated_Source\PSoC4/BLE_hids.c ****         do
 540:.\Generated_Source\PSoC4/BLE_hids.c ****         {
 541:.\Generated_Source\PSoC4/BLE_hids.c ****             locCharValue.serviceIndex = locServIndex;
 1144              		.loc 1 541 0
 1145 0038 0C23     		mov	r3, #12
 1146 003a FB18     		add	r3, r7, r3
 1147 003c 1E22     		mov	r2, #30
 1148 003e BA18     		add	r2, r7, r2
 1149 0040 1278     		ldrb	r2, [r2]
 1150 0042 9A70     		strb	r2, [r3, #2]
 542:.\Generated_Source\PSoC4/BLE_hids.c ****             /* Protocol Mode characteristic write request */
 543:.\Generated_Source\PSoC4/BLE_hids.c ****             if(eventParam->handleValPair.attrHandle == cyBle_hidss[locServIndex].protocolModeHandle
 1151              		.loc 1 543 0
 1152 0044 7B68     		ldr	r3, [r7, #4]
 1153 0046 9989     		ldrh	r1, [r3, #12]
 1154 0048 1E23     		mov	r3, #30
 1155 004a FB18     		add	r3, r7, r3
 1156 004c 1A78     		ldrb	r2, [r3]
 1157 004e 9148     		ldr	r0, .L96+4
 1158 0050 131C     		mov	r3, r2
 1159 0052 9B00     		lsl	r3, r3, #2
ARM GAS  C:\Users\Herry\AppData\Local\Temp\ccuIEJCt.s 			page 31


 1160 0054 9B18     		add	r3, r3, r2
 1161 0056 DB00     		lsl	r3, r3, #3
 1162 0058 C318     		add	r3, r0, r3
 1163 005a 5B88     		ldrh	r3, [r3, #2]
 1164 005c 9942     		cmp	r1, r3
 1165 005e 29D1     		bne	.L72
 544:.\Generated_Source\PSoC4/BLE_hids.c ****             {
 545:.\Generated_Source\PSoC4/BLE_hids.c ****                 locCharValue.charIndex = CYBLE_HIDS_PROTOCOL_MODE;
 1166              		.loc 1 545 0
 1167 0060 0C23     		mov	r3, #12
 1168 0062 FB18     		add	r3, r7, r3
 1169 0064 0022     		mov	r2, #0
 1170 0066 DA70     		strb	r2, [r3, #3]
 546:.\Generated_Source\PSoC4/BLE_hids.c ****                 if(eventParam->handleValPair.value.len == CYBLE_HIDS_PM_CHAR_LEN)
 1171              		.loc 1 546 0
 1172 0068 7B68     		ldr	r3, [r7, #4]
 1173 006a 1B89     		ldrh	r3, [r3, #8]
 1174 006c 012B     		cmp	r3, #1
 1175 006e 00D0     		beq	.LCB1044
 1176 0070 95E1     		b	.L77	@long jump
 1177              	.LCB1044:
 547:.\Generated_Source\PSoC4/BLE_hids.c ****                 {
 548:.\Generated_Source\PSoC4/BLE_hids.c ****                     switch(eventParam->handleValPair.value.val[0u])
 1178              		.loc 1 548 0
 1179 0072 7B68     		ldr	r3, [r7, #4]
 1180 0074 5B68     		ldr	r3, [r3, #4]
 1181 0076 1B78     		ldrb	r3, [r3]
 1182 0078 002B     		cmp	r3, #0
 1183 007a 02D0     		beq	.L75
 1184 007c 012B     		cmp	r3, #1
 1185 007e 0CD0     		beq	.L76
 549:.\Generated_Source\PSoC4/BLE_hids.c ****                     {
 550:.\Generated_Source\PSoC4/BLE_hids.c ****                         case CYBLE_HIDS_PROTOCOL_MODE_BOOT:
 551:.\Generated_Source\PSoC4/BLE_hids.c ****                             eventCode = (uint32)CYBLE_EVT_HIDSS_BOOT_MODE_ENTER;
 552:.\Generated_Source\PSoC4/BLE_hids.c ****                             cyBle_eventHandlerFlag &= (uint8)~CYBLE_CALLBACK;
 553:.\Generated_Source\PSoC4/BLE_hids.c ****                             break;
 554:.\Generated_Source\PSoC4/BLE_hids.c ****                         case CYBLE_HIDS_PROTOCOL_MODE_REPORT:
 555:.\Generated_Source\PSoC4/BLE_hids.c ****                             eventCode = (uint32)CYBLE_EVT_HIDSS_REPORT_MODE_ENTER;
 556:.\Generated_Source\PSoC4/BLE_hids.c ****                             cyBle_eventHandlerFlag &= (uint8)~CYBLE_CALLBACK;
 557:.\Generated_Source\PSoC4/BLE_hids.c ****                             break;
 558:.\Generated_Source\PSoC4/BLE_hids.c ****                         default:    /* Reserved for Future Use. */
 559:.\Generated_Source\PSoC4/BLE_hids.c ****                             break;
 1186              		.loc 1 559 0
 1187 0080 17E0     		b	.L73
 1188              	.L75:
 551:.\Generated_Source\PSoC4/BLE_hids.c ****                             cyBle_eventHandlerFlag &= (uint8)~CYBLE_CALLBACK;
 1189              		.loc 1 551 0
 1190 0082 C523     		mov	r3, #197
 1191 0084 5B00     		lsl	r3, r3, #1
 1192 0086 BB61     		str	r3, [r7, #24]
 552:.\Generated_Source\PSoC4/BLE_hids.c ****                             break;
 1193              		.loc 1 552 0
 1194 0088 834B     		ldr	r3, .L96+8
 1195 008a 1B78     		ldrb	r3, [r3]
 1196 008c DBB2     		uxtb	r3, r3
 1197 008e 0122     		mov	r2, #1
 1198 0090 9343     		bic	r3, r2
ARM GAS  C:\Users\Herry\AppData\Local\Temp\ccuIEJCt.s 			page 32


 1199 0092 DAB2     		uxtb	r2, r3
 1200 0094 804B     		ldr	r3, .L96+8
 1201 0096 1A70     		strb	r2, [r3]
 553:.\Generated_Source\PSoC4/BLE_hids.c ****                         case CYBLE_HIDS_PROTOCOL_MODE_REPORT:
 1202              		.loc 1 553 0
 1203 0098 0BE0     		b	.L73
 1204              	.L76:
 555:.\Generated_Source\PSoC4/BLE_hids.c ****                             cyBle_eventHandlerFlag &= (uint8)~CYBLE_CALLBACK;
 1205              		.loc 1 555 0
 1206 009a 8C23     		mov	r3, #140
 1207 009c FF33     		add	r3, r3, #255
 1208 009e BB61     		str	r3, [r7, #24]
 556:.\Generated_Source\PSoC4/BLE_hids.c ****                             break;
 1209              		.loc 1 556 0
 1210 00a0 7D4B     		ldr	r3, .L96+8
 1211 00a2 1B78     		ldrb	r3, [r3]
 1212 00a4 DBB2     		uxtb	r3, r3
 1213 00a6 0122     		mov	r2, #1
 1214 00a8 9343     		bic	r3, r2
 1215 00aa DAB2     		uxtb	r2, r3
 1216 00ac 7A4B     		ldr	r3, .L96+8
 1217 00ae 1A70     		strb	r2, [r3]
 557:.\Generated_Source\PSoC4/BLE_hids.c ****                         default:    /* Reserved for Future Use. */
 1218              		.loc 1 557 0
 1219 00b0 C046     		mov	r8, r8
 1220              	.L73:
 1221 00b2 74E1     		b	.L77
 1222              	.L72:
 560:.\Generated_Source\PSoC4/BLE_hids.c ****                     }
 561:.\Generated_Source\PSoC4/BLE_hids.c ****                 }
 562:.\Generated_Source\PSoC4/BLE_hids.c ****             }
 563:.\Generated_Source\PSoC4/BLE_hids.c ****             /* Control Point characteristic write request */
 564:.\Generated_Source\PSoC4/BLE_hids.c ****             else if(eventParam->handleValPair.attrHandle == cyBle_hidss[locServIndex].controlPointH
 1223              		.loc 1 564 0
 1224 00b4 7B68     		ldr	r3, [r7, #4]
 1225 00b6 9989     		ldrh	r1, [r3, #12]
 1226 00b8 1E23     		mov	r3, #30
 1227 00ba FB18     		add	r3, r7, r3
 1228 00bc 1A78     		ldrb	r2, [r3]
 1229 00be 7548     		ldr	r0, .L96+4
 1230 00c0 131C     		mov	r3, r2
 1231 00c2 9B00     		lsl	r3, r3, #2
 1232 00c4 9B18     		add	r3, r3, r2
 1233 00c6 DB00     		lsl	r3, r3, #3
 1234 00c8 C318     		add	r3, r0, r3
 1235 00ca 2033     		add	r3, r3, #32
 1236 00cc 9B88     		ldrh	r3, [r3, #4]
 1237 00ce 9942     		cmp	r1, r3
 1238 00d0 29D1     		bne	.L78
 565:.\Generated_Source\PSoC4/BLE_hids.c ****             {
 566:.\Generated_Source\PSoC4/BLE_hids.c ****                 locCharValue.charIndex = CYBLE_HIDS_CONTROL_POINT;
 1239              		.loc 1 566 0
 1240 00d2 0C23     		mov	r3, #12
 1241 00d4 FB18     		add	r3, r7, r3
 1242 00d6 0222     		mov	r2, #2
 1243 00d8 DA70     		strb	r2, [r3, #3]
 567:.\Generated_Source\PSoC4/BLE_hids.c ****                 if(eventParam->handleValPair.value.len == CYBLE_HIDS_CP_CHAR_LEN)
ARM GAS  C:\Users\Herry\AppData\Local\Temp\ccuIEJCt.s 			page 33


 1244              		.loc 1 567 0
 1245 00da 7B68     		ldr	r3, [r7, #4]
 1246 00dc 1B89     		ldrh	r3, [r3, #8]
 1247 00de 012B     		cmp	r3, #1
 1248 00e0 00D0     		beq	.LCB1111
 1249 00e2 5CE1     		b	.L77	@long jump
 1250              	.LCB1111:
 568:.\Generated_Source\PSoC4/BLE_hids.c ****                 {
 569:.\Generated_Source\PSoC4/BLE_hids.c ****                     switch(eventParam->handleValPair.value.val[0u])
 1251              		.loc 1 569 0
 1252 00e4 7B68     		ldr	r3, [r7, #4]
 1253 00e6 5B68     		ldr	r3, [r3, #4]
 1254 00e8 1B78     		ldrb	r3, [r3]
 1255 00ea 002B     		cmp	r3, #0
 1256 00ec 02D0     		beq	.L81
 1257 00ee 012B     		cmp	r3, #1
 1258 00f0 0CD0     		beq	.L82
 570:.\Generated_Source\PSoC4/BLE_hids.c ****                     {
 571:.\Generated_Source\PSoC4/BLE_hids.c ****                         case CYBLE_HIDS_CP_SUSPEND:
 572:.\Generated_Source\PSoC4/BLE_hids.c ****                             eventCode = (uint32)CYBLE_EVT_HIDSS_SUSPEND;
 573:.\Generated_Source\PSoC4/BLE_hids.c ****                             cyBle_eventHandlerFlag &= (uint8)~CYBLE_CALLBACK;
 574:.\Generated_Source\PSoC4/BLE_hids.c ****                             break;
 575:.\Generated_Source\PSoC4/BLE_hids.c ****                         case CYBLE_HIDS_CP_EXIT_SUSPEND:
 576:.\Generated_Source\PSoC4/BLE_hids.c ****                             eventCode = (uint32)CYBLE_EVT_HIDSS_EXIT_SUSPEND;
 577:.\Generated_Source\PSoC4/BLE_hids.c ****                             cyBle_eventHandlerFlag &= (uint8)~CYBLE_CALLBACK;
 578:.\Generated_Source\PSoC4/BLE_hids.c ****                             break;
 579:.\Generated_Source\PSoC4/BLE_hids.c ****                         default:    /* Reserved for Future Use. */
 580:.\Generated_Source\PSoC4/BLE_hids.c ****                             break;
 1259              		.loc 1 580 0
 1260 00f2 17E0     		b	.L79
 1261              	.L81:
 572:.\Generated_Source\PSoC4/BLE_hids.c ****                             cyBle_eventHandlerFlag &= (uint8)~CYBLE_CALLBACK;
 1262              		.loc 1 572 0
 1263 00f4 C623     		mov	r3, #198
 1264 00f6 5B00     		lsl	r3, r3, #1
 1265 00f8 BB61     		str	r3, [r7, #24]
 573:.\Generated_Source\PSoC4/BLE_hids.c ****                             break;
 1266              		.loc 1 573 0
 1267 00fa 674B     		ldr	r3, .L96+8
 1268 00fc 1B78     		ldrb	r3, [r3]
 1269 00fe DBB2     		uxtb	r3, r3
 1270 0100 0122     		mov	r2, #1
 1271 0102 9343     		bic	r3, r2
 1272 0104 DAB2     		uxtb	r2, r3
 1273 0106 644B     		ldr	r3, .L96+8
 1274 0108 1A70     		strb	r2, [r3]
 574:.\Generated_Source\PSoC4/BLE_hids.c ****                         case CYBLE_HIDS_CP_EXIT_SUSPEND:
 1275              		.loc 1 574 0
 1276 010a 0BE0     		b	.L79
 1277              	.L82:
 576:.\Generated_Source\PSoC4/BLE_hids.c ****                             cyBle_eventHandlerFlag &= (uint8)~CYBLE_CALLBACK;
 1278              		.loc 1 576 0
 1279 010c 8E23     		mov	r3, #142
 1280 010e FF33     		add	r3, r3, #255
 1281 0110 BB61     		str	r3, [r7, #24]
 577:.\Generated_Source\PSoC4/BLE_hids.c ****                             break;
 1282              		.loc 1 577 0
ARM GAS  C:\Users\Herry\AppData\Local\Temp\ccuIEJCt.s 			page 34


 1283 0112 614B     		ldr	r3, .L96+8
 1284 0114 1B78     		ldrb	r3, [r3]
 1285 0116 DBB2     		uxtb	r3, r3
 1286 0118 0122     		mov	r2, #1
 1287 011a 9343     		bic	r3, r2
 1288 011c DAB2     		uxtb	r2, r3
 1289 011e 5E4B     		ldr	r3, .L96+8
 1290 0120 1A70     		strb	r2, [r3]
 578:.\Generated_Source\PSoC4/BLE_hids.c ****                         default:    /* Reserved for Future Use. */
 1291              		.loc 1 578 0
 1292 0122 C046     		mov	r8, r8
 1293              	.L79:
 1294 0124 3BE1     		b	.L77
 1295              	.L78:
 581:.\Generated_Source\PSoC4/BLE_hids.c ****                     }
 582:.\Generated_Source\PSoC4/BLE_hids.c ****                 }
 583:.\Generated_Source\PSoC4/BLE_hids.c ****             }
 584:.\Generated_Source\PSoC4/BLE_hids.c ****             else if(eventParam->handleValPair.attrHandle ==
 1296              		.loc 1 584 0
 1297 0126 7B68     		ldr	r3, [r7, #4]
 1298 0128 9989     		ldrh	r1, [r3, #12]
 585:.\Generated_Source\PSoC4/BLE_hids.c ****                         cyBle_hidss[locServIndex].bootReportArray[CYBLE_HIDS_BOOT_KYBRD_IN_REP_INDX
 1299              		.loc 1 585 0
 1300 012a 1E23     		mov	r3, #30
 1301 012c FB18     		add	r3, r7, r3
 1302 012e 1A78     		ldrb	r2, [r3]
 1303 0130 5848     		ldr	r0, .L96+4
 1304 0132 131C     		mov	r3, r2
 1305 0134 9B00     		lsl	r3, r3, #2
 1306 0136 9B18     		add	r3, r3, r2
 1307 0138 DB00     		lsl	r3, r3, #3
 1308 013a C318     		add	r3, r0, r3
 1309 013c 0833     		add	r3, r3, #8
 1310 013e 9B88     		ldrh	r3, [r3, #4]
 584:.\Generated_Source\PSoC4/BLE_hids.c ****                         cyBle_hidss[locServIndex].bootReportArray[CYBLE_HIDS_BOOT_KYBRD_IN_REP_INDX
 1311              		.loc 1 584 0
 1312 0140 9942     		cmp	r1, r3
 1313 0142 14D1     		bne	.L83
 586:.\Generated_Source\PSoC4/BLE_hids.c ****             {
 587:.\Generated_Source\PSoC4/BLE_hids.c ****                 locCharValue.charIndex = CYBLE_HIDS_BOOT_KYBRD_IN_REP;
 1314              		.loc 1 587 0
 1315 0144 0C23     		mov	r3, #12
 1316 0146 FB18     		add	r3, r7, r3
 1317 0148 0422     		mov	r2, #4
 1318 014a DA70     		strb	r2, [r3, #3]
 588:.\Generated_Source\PSoC4/BLE_hids.c ****                 locCharValue.value = &eventParam->handleValPair.value;
 1319              		.loc 1 588 0
 1320 014c 7B68     		ldr	r3, [r7, #4]
 1321 014e 1A1D     		add	r2, r3, #4
 1322 0150 0C23     		mov	r3, #12
 1323 0152 FB18     		add	r3, r7, r3
 1324 0154 5A60     		str	r2, [r3, #4]
 589:.\Generated_Source\PSoC4/BLE_hids.c ****                 eventCode = (uint32)CYBLE_EVT_HIDSS_REPORT_CHAR_WRITE;
 1325              		.loc 1 589 0
 1326 0156 C723     		mov	r3, #199
 1327 0158 5B00     		lsl	r3, r3, #1
 1328 015a BB61     		str	r3, [r7, #24]
ARM GAS  C:\Users\Herry\AppData\Local\Temp\ccuIEJCt.s 			page 35


 590:.\Generated_Source\PSoC4/BLE_hids.c ****                 cyBle_eventHandlerFlag &= (uint8)~CYBLE_CALLBACK;
 1329              		.loc 1 590 0
 1330 015c 4E4B     		ldr	r3, .L96+8
 1331 015e 1B78     		ldrb	r3, [r3]
 1332 0160 DBB2     		uxtb	r3, r3
 1333 0162 0122     		mov	r2, #1
 1334 0164 9343     		bic	r3, r2
 1335 0166 DAB2     		uxtb	r2, r3
 1336 0168 4B4B     		ldr	r3, .L96+8
 1337 016a 1A70     		strb	r2, [r3]
 1338 016c 17E1     		b	.L77
 1339              	.L83:
 591:.\Generated_Source\PSoC4/BLE_hids.c ****             }
 592:.\Generated_Source\PSoC4/BLE_hids.c ****             else if(eventParam->handleValPair.attrHandle ==
 1340              		.loc 1 592 0
 1341 016e 7B68     		ldr	r3, [r7, #4]
 1342 0170 9989     		ldrh	r1, [r3, #12]
 593:.\Generated_Source\PSoC4/BLE_hids.c ****                         cyBle_hidss[locServIndex].bootReportArray[CYBLE_HIDS_BOOT_KYBRD_IN_REP_INDX
 1343              		.loc 1 593 0
 1344 0172 1E23     		mov	r3, #30
 1345 0174 FB18     		add	r3, r7, r3
 1346 0176 1A78     		ldrb	r2, [r3]
 1347 0178 4648     		ldr	r0, .L96+4
 1348 017a 131C     		mov	r3, r2
 1349 017c 9B00     		lsl	r3, r3, #2
 1350 017e 9B18     		add	r3, r3, r2
 1351 0180 DB00     		lsl	r3, r3, #3
 1352 0182 C318     		add	r3, r0, r3
 1353 0184 0833     		add	r3, r3, #8
 1354 0186 DB88     		ldrh	r3, [r3, #6]
 592:.\Generated_Source\PSoC4/BLE_hids.c ****                         cyBle_hidss[locServIndex].bootReportArray[CYBLE_HIDS_BOOT_KYBRD_IN_REP_INDX
 1355              		.loc 1 592 0
 1356 0188 9942     		cmp	r1, r3
 1357 018a 0ED1     		bne	.L84
 594:.\Generated_Source\PSoC4/BLE_hids.c ****             {
 595:.\Generated_Source\PSoC4/BLE_hids.c ****                 locCharValue.charIndex = CYBLE_HIDS_BOOT_KYBRD_IN_REP;
 1358              		.loc 1 595 0
 1359 018c 0C23     		mov	r3, #12
 1360 018e FB18     		add	r3, r7, r3
 1361 0190 0422     		mov	r2, #4
 1362 0192 DA70     		strb	r2, [r3, #3]
 596:.\Generated_Source\PSoC4/BLE_hids.c ****                 eventCode = CyBle_HidssCccdWriteEventHandler(locServIndex, eventParam);
 1363              		.loc 1 596 0
 1364 0194 1E23     		mov	r3, #30
 1365 0196 FB18     		add	r3, r7, r3
 1366 0198 1A78     		ldrb	r2, [r3]
 1367 019a 7B68     		ldr	r3, [r7, #4]
 1368 019c 101C     		mov	r0, r2
 1369 019e 191C     		mov	r1, r3
 1370 01a0 FFF7FEFF 		bl	CyBle_HidssCccdWriteEventHandler
 1371 01a4 031C     		mov	r3, r0
 1372 01a6 BB61     		str	r3, [r7, #24]
 1373 01a8 F9E0     		b	.L77
 1374              	.L84:
 597:.\Generated_Source\PSoC4/BLE_hids.c ****             }
 598:.\Generated_Source\PSoC4/BLE_hids.c ****             else if(eventParam->handleValPair.attrHandle ==
 1375              		.loc 1 598 0
ARM GAS  C:\Users\Herry\AppData\Local\Temp\ccuIEJCt.s 			page 36


 1376 01aa 7B68     		ldr	r3, [r7, #4]
 1377 01ac 9989     		ldrh	r1, [r3, #12]
 599:.\Generated_Source\PSoC4/BLE_hids.c ****                         cyBle_hidss[locServIndex].bootReportArray[CYBLE_HIDS_BOOT_KYBRD_OUT_REP_IND
 1378              		.loc 1 599 0
 1379 01ae 1E23     		mov	r3, #30
 1380 01b0 FB18     		add	r3, r7, r3
 1381 01b2 1A78     		ldrb	r2, [r3]
 1382 01b4 3748     		ldr	r0, .L96+4
 1383 01b6 131C     		mov	r3, r2
 1384 01b8 9B00     		lsl	r3, r3, #2
 1385 01ba 9B18     		add	r3, r3, r2
 1386 01bc DB00     		lsl	r3, r3, #3
 1387 01be C318     		add	r3, r0, r3
 1388 01c0 0E33     		add	r3, r3, #14
 1389 01c2 9B88     		ldrh	r3, [r3, #4]
 598:.\Generated_Source\PSoC4/BLE_hids.c ****                         cyBle_hidss[locServIndex].bootReportArray[CYBLE_HIDS_BOOT_KYBRD_OUT_REP_IND
 1390              		.loc 1 598 0
 1391 01c4 9942     		cmp	r1, r3
 1392 01c6 14D1     		bne	.L85
 600:.\Generated_Source\PSoC4/BLE_hids.c ****             {
 601:.\Generated_Source\PSoC4/BLE_hids.c ****                 locCharValue.charIndex = CYBLE_HIDS_BOOT_KYBRD_OUT_REP;
 1393              		.loc 1 601 0
 1394 01c8 0C23     		mov	r3, #12
 1395 01ca FB18     		add	r3, r7, r3
 1396 01cc 0522     		mov	r2, #5
 1397 01ce DA70     		strb	r2, [r3, #3]
 602:.\Generated_Source\PSoC4/BLE_hids.c ****                 locCharValue.value = &eventParam->handleValPair.value;
 1398              		.loc 1 602 0
 1399 01d0 7B68     		ldr	r3, [r7, #4]
 1400 01d2 1A1D     		add	r2, r3, #4
 1401 01d4 0C23     		mov	r3, #12
 1402 01d6 FB18     		add	r3, r7, r3
 1403 01d8 5A60     		str	r2, [r3, #4]
 603:.\Generated_Source\PSoC4/BLE_hids.c ****                 eventCode = (uint32)CYBLE_EVT_HIDSS_REPORT_CHAR_WRITE;
 1404              		.loc 1 603 0
 1405 01da C723     		mov	r3, #199
 1406 01dc 5B00     		lsl	r3, r3, #1
 1407 01de BB61     		str	r3, [r7, #24]
 604:.\Generated_Source\PSoC4/BLE_hids.c ****                 cyBle_eventHandlerFlag &= (uint8)~CYBLE_CALLBACK;
 1408              		.loc 1 604 0
 1409 01e0 2D4B     		ldr	r3, .L96+8
 1410 01e2 1B78     		ldrb	r3, [r3]
 1411 01e4 DBB2     		uxtb	r3, r3
 1412 01e6 0122     		mov	r2, #1
 1413 01e8 9343     		bic	r3, r2
 1414 01ea DAB2     		uxtb	r2, r3
 1415 01ec 2A4B     		ldr	r3, .L96+8
 1416 01ee 1A70     		strb	r2, [r3]
 1417 01f0 D5E0     		b	.L77
 1418              	.L85:
 605:.\Generated_Source\PSoC4/BLE_hids.c ****             }
 606:.\Generated_Source\PSoC4/BLE_hids.c ****             else if(eventParam->handleValPair.attrHandle ==
 1419              		.loc 1 606 0
 1420 01f2 7B68     		ldr	r3, [r7, #4]
 1421 01f4 9989     		ldrh	r1, [r3, #12]
 607:.\Generated_Source\PSoC4/BLE_hids.c ****                         cyBle_hidss[locServIndex].bootReportArray[CYBLE_HIDS_BOOT_MOUSE_IN_REP_INDX
 1422              		.loc 1 607 0
ARM GAS  C:\Users\Herry\AppData\Local\Temp\ccuIEJCt.s 			page 37


 1423 01f6 1E23     		mov	r3, #30
 1424 01f8 FB18     		add	r3, r7, r3
 1425 01fa 1A78     		ldrb	r2, [r3]
 1426 01fc 2548     		ldr	r0, .L96+4
 1427 01fe 131C     		mov	r3, r2
 1428 0200 9B00     		lsl	r3, r3, #2
 1429 0202 9B18     		add	r3, r3, r2
 1430 0204 DB00     		lsl	r3, r3, #3
 1431 0206 C318     		add	r3, r0, r3
 1432 0208 1433     		add	r3, r3, #20
 1433 020a 9B88     		ldrh	r3, [r3, #4]
 606:.\Generated_Source\PSoC4/BLE_hids.c ****                         cyBle_hidss[locServIndex].bootReportArray[CYBLE_HIDS_BOOT_MOUSE_IN_REP_INDX
 1434              		.loc 1 606 0
 1435 020c 9942     		cmp	r1, r3
 1436 020e 14D1     		bne	.L86
 608:.\Generated_Source\PSoC4/BLE_hids.c ****             {
 609:.\Generated_Source\PSoC4/BLE_hids.c ****                 locCharValue.charIndex = CYBLE_HIDS_BOOT_MOUSE_IN_REP;
 1437              		.loc 1 609 0
 1438 0210 0C23     		mov	r3, #12
 1439 0212 FB18     		add	r3, r7, r3
 1440 0214 0622     		mov	r2, #6
 1441 0216 DA70     		strb	r2, [r3, #3]
 610:.\Generated_Source\PSoC4/BLE_hids.c ****                 locCharValue.value = &eventParam->handleValPair.value;
 1442              		.loc 1 610 0
 1443 0218 7B68     		ldr	r3, [r7, #4]
 1444 021a 1A1D     		add	r2, r3, #4
 1445 021c 0C23     		mov	r3, #12
 1446 021e FB18     		add	r3, r7, r3
 1447 0220 5A60     		str	r2, [r3, #4]
 611:.\Generated_Source\PSoC4/BLE_hids.c ****                 eventCode = (uint32)CYBLE_EVT_HIDSS_REPORT_CHAR_WRITE;
 1448              		.loc 1 611 0
 1449 0222 C723     		mov	r3, #199
 1450 0224 5B00     		lsl	r3, r3, #1
 1451 0226 BB61     		str	r3, [r7, #24]
 612:.\Generated_Source\PSoC4/BLE_hids.c ****                 cyBle_eventHandlerFlag &= (uint8)~CYBLE_CALLBACK;
 1452              		.loc 1 612 0
 1453 0228 1B4B     		ldr	r3, .L96+8
 1454 022a 1B78     		ldrb	r3, [r3]
 1455 022c DBB2     		uxtb	r3, r3
 1456 022e 0122     		mov	r2, #1
 1457 0230 9343     		bic	r3, r2
 1458 0232 DAB2     		uxtb	r2, r3
 1459 0234 184B     		ldr	r3, .L96+8
 1460 0236 1A70     		strb	r2, [r3]
 1461 0238 B1E0     		b	.L77
 1462              	.L86:
 613:.\Generated_Source\PSoC4/BLE_hids.c ****             }
 614:.\Generated_Source\PSoC4/BLE_hids.c ****             else if(eventParam->handleValPair.attrHandle ==
 1463              		.loc 1 614 0
 1464 023a 7B68     		ldr	r3, [r7, #4]
 1465 023c 9989     		ldrh	r1, [r3, #12]
 615:.\Generated_Source\PSoC4/BLE_hids.c ****                         cyBle_hidss[locServIndex].bootReportArray[CYBLE_HIDS_BOOT_MOUSE_IN_REP_INDX
 1466              		.loc 1 615 0
 1467 023e 1E23     		mov	r3, #30
 1468 0240 FB18     		add	r3, r7, r3
 1469 0242 1A78     		ldrb	r2, [r3]
 1470 0244 1348     		ldr	r0, .L96+4
ARM GAS  C:\Users\Herry\AppData\Local\Temp\ccuIEJCt.s 			page 38


 1471 0246 131C     		mov	r3, r2
 1472 0248 9B00     		lsl	r3, r3, #2
 1473 024a 9B18     		add	r3, r3, r2
 1474 024c DB00     		lsl	r3, r3, #3
 1475 024e C318     		add	r3, r0, r3
 1476 0250 1433     		add	r3, r3, #20
 1477 0252 DB88     		ldrh	r3, [r3, #6]
 614:.\Generated_Source\PSoC4/BLE_hids.c ****                         cyBle_hidss[locServIndex].bootReportArray[CYBLE_HIDS_BOOT_MOUSE_IN_REP_INDX
 1478              		.loc 1 614 0
 1479 0254 9942     		cmp	r1, r3
 1480 0256 0ED1     		bne	.L87
 616:.\Generated_Source\PSoC4/BLE_hids.c ****             {
 617:.\Generated_Source\PSoC4/BLE_hids.c ****                 locCharValue.charIndex = CYBLE_HIDS_BOOT_MOUSE_IN_REP;
 1481              		.loc 1 617 0
 1482 0258 0C23     		mov	r3, #12
 1483 025a FB18     		add	r3, r7, r3
 1484 025c 0622     		mov	r2, #6
 1485 025e DA70     		strb	r2, [r3, #3]
 618:.\Generated_Source\PSoC4/BLE_hids.c ****                 eventCode = CyBle_HidssCccdWriteEventHandler(locServIndex, eventParam);
 1486              		.loc 1 618 0
 1487 0260 1E23     		mov	r3, #30
 1488 0262 FB18     		add	r3, r7, r3
 1489 0264 1A78     		ldrb	r2, [r3]
 1490 0266 7B68     		ldr	r3, [r7, #4]
 1491 0268 101C     		mov	r0, r2
 1492 026a 191C     		mov	r1, r3
 1493 026c FFF7FEFF 		bl	CyBle_HidssCccdWriteEventHandler
 1494 0270 031C     		mov	r3, r0
 1495 0272 BB61     		str	r3, [r7, #24]
 1496 0274 93E0     		b	.L77
 1497              	.L87:
 1498              	.LBB2:
 619:.\Generated_Source\PSoC4/BLE_hids.c ****             }
 620:.\Generated_Source\PSoC4/BLE_hids.c ****             else
 621:.\Generated_Source\PSoC4/BLE_hids.c ****             {
 622:.\Generated_Source\PSoC4/BLE_hids.c ****                 uint8 locReqHandle = 0u;
 1499              		.loc 1 622 0
 1500 0276 1723     		mov	r3, #23
 1501 0278 FB18     		add	r3, r7, r3
 1502 027a 0022     		mov	r2, #0
 1503 027c 1A70     		strb	r2, [r3]
 623:.\Generated_Source\PSoC4/BLE_hids.c ****                 
 624:.\Generated_Source\PSoC4/BLE_hids.c ****                 locCharIndex = CYBLE_HIDS_REPORT;
 1504              		.loc 1 624 0
 1505 027e 1C23     		mov	r3, #28
 1506 0280 FB18     		add	r3, r7, r3
 1507 0282 0722     		mov	r2, #7
 1508 0284 1A70     		strb	r2, [r3]
 625:.\Generated_Source\PSoC4/BLE_hids.c ****                 for(reportIndex = 0u; (reportIndex < cyBle_hidss[locServIndex].reportCount) && (loc
 1509              		.loc 1 625 0
 1510 0286 1D23     		mov	r3, #29
 1511 0288 FB18     		add	r3, r7, r3
 1512 028a 0022     		mov	r2, #0
 1513 028c 1A70     		strb	r2, [r3]
 1514 028e 71E0     		b	.L88
 1515              	.L97:
 1516              		.align	2
ARM GAS  C:\Users\Herry\AppData\Local\Temp\ccuIEJCt.s 			page 39


 1517              	.L96:
 1518 0290 00000000 		.word	CyBle_HidsApplCallback
 1519 0294 00000000 		.word	cyBle_hidss
 1520 0298 00000000 		.word	cyBle_eventHandlerFlag
 1521              	.L91:
 626:.\Generated_Source\PSoC4/BLE_hids.c ****                         reportIndex++)
 627:.\Generated_Source\PSoC4/BLE_hids.c ****                 {
 628:.\Generated_Source\PSoC4/BLE_hids.c ****                     if(eventParam->handleValPair.attrHandle == 
 1522              		.loc 1 628 0
 1523 029c 7B68     		ldr	r3, [r7, #4]
 1524 029e 9989     		ldrh	r1, [r3, #12]
 629:.\Generated_Source\PSoC4/BLE_hids.c ****                         cyBle_hidss[locServIndex].reportArray[reportIndex].reportHandle)
 1525              		.loc 1 629 0
 1526 02a0 1E23     		mov	r3, #30
 1527 02a2 FB18     		add	r3, r7, r3
 1528 02a4 1A78     		ldrb	r2, [r3]
 1529 02a6 5948     		ldr	r0, .L98
 1530 02a8 131C     		mov	r3, r2
 1531 02aa 9B00     		lsl	r3, r3, #2
 1532 02ac 9B18     		add	r3, r3, r2
 1533 02ae DB00     		lsl	r3, r3, #3
 1534 02b0 C318     		add	r3, r0, r3
 1535 02b2 0833     		add	r3, r3, #8
 1536 02b4 1868     		ldr	r0, [r3]
 1537 02b6 1D23     		mov	r3, #29
 1538 02b8 FB18     		add	r3, r7, r3
 1539 02ba 1A78     		ldrb	r2, [r3]
 1540 02bc 131C     		mov	r3, r2
 1541 02be 5B00     		lsl	r3, r3, #1
 1542 02c0 9B18     		add	r3, r3, r2
 1543 02c2 5B00     		lsl	r3, r3, #1
 1544 02c4 C318     		add	r3, r0, r3
 1545 02c6 1B88     		ldrh	r3, [r3]
 628:.\Generated_Source\PSoC4/BLE_hids.c ****                         cyBle_hidss[locServIndex].reportArray[reportIndex].reportHandle)
 1546              		.loc 1 628 0
 1547 02c8 9942     		cmp	r1, r3
 1548 02ca 19D1     		bne	.L89
 630:.\Generated_Source\PSoC4/BLE_hids.c ****                     {
 631:.\Generated_Source\PSoC4/BLE_hids.c ****                         locCharValue.charIndex = locCharIndex;
 1549              		.loc 1 631 0
 1550 02cc 0C23     		mov	r3, #12
 1551 02ce FB18     		add	r3, r7, r3
 1552 02d0 1C22     		mov	r2, #28
 1553 02d2 BA18     		add	r2, r7, r2
 1554 02d4 1278     		ldrb	r2, [r2]
 1555 02d6 DA70     		strb	r2, [r3, #3]
 632:.\Generated_Source\PSoC4/BLE_hids.c ****                         locCharValue.value = &eventParam->handleValPair.value;
 1556              		.loc 1 632 0
 1557 02d8 7B68     		ldr	r3, [r7, #4]
 1558 02da 1A1D     		add	r2, r3, #4
 1559 02dc 0C23     		mov	r3, #12
 1560 02de FB18     		add	r3, r7, r3
 1561 02e0 5A60     		str	r2, [r3, #4]
 633:.\Generated_Source\PSoC4/BLE_hids.c ****                         eventCode = (uint32)CYBLE_EVT_HIDSS_REPORT_CHAR_WRITE;
 1562              		.loc 1 633 0
 1563 02e2 C723     		mov	r3, #199
 1564 02e4 5B00     		lsl	r3, r3, #1
ARM GAS  C:\Users\Herry\AppData\Local\Temp\ccuIEJCt.s 			page 40


 1565 02e6 BB61     		str	r3, [r7, #24]
 634:.\Generated_Source\PSoC4/BLE_hids.c ****                         cyBle_eventHandlerFlag &= (uint8)~CYBLE_CALLBACK;
 1566              		.loc 1 634 0
 1567 02e8 494B     		ldr	r3, .L98+4
 1568 02ea 1B78     		ldrb	r3, [r3]
 1569 02ec DBB2     		uxtb	r3, r3
 1570 02ee 0122     		mov	r2, #1
 1571 02f0 9343     		bic	r3, r2
 1572 02f2 DAB2     		uxtb	r2, r3
 1573 02f4 464B     		ldr	r3, .L98+4
 1574 02f6 1A70     		strb	r2, [r3]
 635:.\Generated_Source\PSoC4/BLE_hids.c ****                         locReqHandle = 1u;
 1575              		.loc 1 635 0
 1576 02f8 1723     		mov	r3, #23
 1577 02fa FB18     		add	r3, r7, r3
 1578 02fc 0122     		mov	r2, #1
 1579 02fe 1A70     		strb	r2, [r3]
 1580              	.L89:
 636:.\Generated_Source\PSoC4/BLE_hids.c ****                     }
 637:.\Generated_Source\PSoC4/BLE_hids.c ****                     if(eventParam->handleValPair.attrHandle == 
 1581              		.loc 1 637 0
 1582 0300 7B68     		ldr	r3, [r7, #4]
 1583 0302 9989     		ldrh	r1, [r3, #12]
 638:.\Generated_Source\PSoC4/BLE_hids.c ****                         cyBle_hidss[locServIndex].reportArray[reportIndex].cccdHandle)
 1584              		.loc 1 638 0
 1585 0304 1E23     		mov	r3, #30
 1586 0306 FB18     		add	r3, r7, r3
 1587 0308 1A78     		ldrb	r2, [r3]
 1588 030a 4048     		ldr	r0, .L98
 1589 030c 131C     		mov	r3, r2
 1590 030e 9B00     		lsl	r3, r3, #2
 1591 0310 9B18     		add	r3, r3, r2
 1592 0312 DB00     		lsl	r3, r3, #3
 1593 0314 C318     		add	r3, r0, r3
 1594 0316 0833     		add	r3, r3, #8
 1595 0318 1868     		ldr	r0, [r3]
 1596 031a 1D23     		mov	r3, #29
 1597 031c FB18     		add	r3, r7, r3
 1598 031e 1A78     		ldrb	r2, [r3]
 1599 0320 131C     		mov	r3, r2
 1600 0322 5B00     		lsl	r3, r3, #1
 1601 0324 9B18     		add	r3, r3, r2
 1602 0326 5B00     		lsl	r3, r3, #1
 1603 0328 C318     		add	r3, r0, r3
 1604 032a 5B88     		ldrh	r3, [r3, #2]
 637:.\Generated_Source\PSoC4/BLE_hids.c ****                         cyBle_hidss[locServIndex].reportArray[reportIndex].cccdHandle)
 1605              		.loc 1 637 0
 1606 032c 9942     		cmp	r1, r3
 1607 032e 13D1     		bne	.L90
 639:.\Generated_Source\PSoC4/BLE_hids.c ****                     {
 640:.\Generated_Source\PSoC4/BLE_hids.c ****                         locCharValue.charIndex = locCharIndex;
 1608              		.loc 1 640 0
 1609 0330 0C23     		mov	r3, #12
 1610 0332 FB18     		add	r3, r7, r3
 1611 0334 1C22     		mov	r2, #28
 1612 0336 BA18     		add	r2, r7, r2
 1613 0338 1278     		ldrb	r2, [r2]
ARM GAS  C:\Users\Herry\AppData\Local\Temp\ccuIEJCt.s 			page 41


 1614 033a DA70     		strb	r2, [r3, #3]
 641:.\Generated_Source\PSoC4/BLE_hids.c ****                         eventCode = CyBle_HidssCccdWriteEventHandler(locServIndex, eventParam);
 1615              		.loc 1 641 0
 1616 033c 1E23     		mov	r3, #30
 1617 033e FB18     		add	r3, r7, r3
 1618 0340 1A78     		ldrb	r2, [r3]
 1619 0342 7B68     		ldr	r3, [r7, #4]
 1620 0344 101C     		mov	r0, r2
 1621 0346 191C     		mov	r1, r3
 1622 0348 FFF7FEFF 		bl	CyBle_HidssCccdWriteEventHandler
 1623 034c 031C     		mov	r3, r0
 1624 034e BB61     		str	r3, [r7, #24]
 642:.\Generated_Source\PSoC4/BLE_hids.c ****                         locReqHandle = 1u;
 1625              		.loc 1 642 0
 1626 0350 1723     		mov	r3, #23
 1627 0352 FB18     		add	r3, r7, r3
 1628 0354 0122     		mov	r2, #1
 1629 0356 1A70     		strb	r2, [r3]
 1630              	.L90:
 643:.\Generated_Source\PSoC4/BLE_hids.c ****                     }
 644:.\Generated_Source\PSoC4/BLE_hids.c ****                     locCharIndex++;
 1631              		.loc 1 644 0
 1632 0358 1C23     		mov	r3, #28
 1633 035a FB18     		add	r3, r7, r3
 1634 035c 1A78     		ldrb	r2, [r3]
 1635 035e 1C23     		mov	r3, #28
 1636 0360 FB18     		add	r3, r7, r3
 1637 0362 0132     		add	r2, r2, #1
 1638 0364 1A70     		strb	r2, [r3]
 626:.\Generated_Source\PSoC4/BLE_hids.c ****                 {
 1639              		.loc 1 626 0
 1640 0366 1D23     		mov	r3, #29
 1641 0368 FB18     		add	r3, r7, r3
 1642 036a 1A78     		ldrb	r2, [r3]
 1643 036c 1D23     		mov	r3, #29
 1644 036e FB18     		add	r3, r7, r3
 1645 0370 0132     		add	r2, r2, #1
 1646 0372 1A70     		strb	r2, [r3]
 1647              	.L88:
 625:.\Generated_Source\PSoC4/BLE_hids.c ****                         reportIndex++)
 1648              		.loc 1 625 0 discriminator 1
 1649 0374 1E23     		mov	r3, #30
 1650 0376 FB18     		add	r3, r7, r3
 1651 0378 1A78     		ldrb	r2, [r3]
 1652 037a 2449     		ldr	r1, .L98
 1653 037c 131C     		mov	r3, r2
 1654 037e 9B00     		lsl	r3, r3, #2
 1655 0380 9B18     		add	r3, r3, r2
 1656 0382 DB00     		lsl	r3, r3, #3
 1657 0384 CB18     		add	r3, r1, r3
 1658 0386 1B79     		ldrb	r3, [r3, #4]
 1659 0388 1D22     		mov	r2, #29
 1660 038a BA18     		add	r2, r7, r2
 1661 038c 1278     		ldrb	r2, [r2]
 1662 038e 9A42     		cmp	r2, r3
 1663 0390 05D2     		bcs	.L77
 625:.\Generated_Source\PSoC4/BLE_hids.c ****                         reportIndex++)
ARM GAS  C:\Users\Herry\AppData\Local\Temp\ccuIEJCt.s 			page 42


 1664              		.loc 1 625 0 is_stmt 0 discriminator 2
 1665 0392 1723     		mov	r3, #23
 1666 0394 FB18     		add	r3, r7, r3
 1667 0396 1B78     		ldrb	r3, [r3]
 1668 0398 002B     		cmp	r3, #0
 1669 039a 00D1     		bne	.LCB1494
 1670 039c 7EE7     		b	.L91	@long jump
 1671              	.LCB1494:
 1672              	.L77:
 1673              	.LBE2:
 645:.\Generated_Source\PSoC4/BLE_hids.c ****                 }
 646:.\Generated_Source\PSoC4/BLE_hids.c ****             }
 647:.\Generated_Source\PSoC4/BLE_hids.c ****             locServIndex++;
 1674              		.loc 1 647 0 is_stmt 1
 1675 039e 1E23     		mov	r3, #30
 1676 03a0 FB18     		add	r3, r7, r3
 1677 03a2 1A78     		ldrb	r2, [r3]
 1678 03a4 1E23     		mov	r3, #30
 1679 03a6 FB18     		add	r3, r7, r3
 1680 03a8 0132     		add	r2, r2, #1
 1681 03aa 1A70     		strb	r2, [r3]
 648:.\Generated_Source\PSoC4/BLE_hids.c ****             /* Store data to database if event is handled */
 649:.\Generated_Source\PSoC4/BLE_hids.c ****             if((cyBle_eventHandlerFlag & CYBLE_CALLBACK) == 0u)
 1682              		.loc 1 649 0
 1683 03ac 184B     		ldr	r3, .L98+4
 1684 03ae 1B78     		ldrb	r3, [r3]
 1685 03b0 DBB2     		uxtb	r3, r3
 1686 03b2 1A1C     		mov	r2, r3
 1687 03b4 0123     		mov	r3, #1
 1688 03b6 1340     		and	r3, r2
 1689 03b8 1BD1     		bne	.L92
 650:.\Generated_Source\PSoC4/BLE_hids.c ****             {
 651:.\Generated_Source\PSoC4/BLE_hids.c ****                 gattErr = CyBle_GattsWriteAttributeValue(&eventParam->handleValPair, 0u, 
 1690              		.loc 1 651 0
 1691 03ba 7B68     		ldr	r3, [r7, #4]
 1692 03bc 1A1D     		add	r2, r3, #4
 1693 03be 7B68     		ldr	r3, [r7, #4]
 1694 03c0 1F21     		mov	r1, #31
 1695 03c2 7C18     		add	r4, r7, r1
 1696 03c4 101C     		mov	r0, r2
 1697 03c6 0021     		mov	r1, #0
 1698 03c8 1A1C     		mov	r2, r3
 1699 03ca 4023     		mov	r3, #64
 1700 03cc FFF7FEFF 		bl	CyBle_GattsWriteAttributeValue
 1701 03d0 031C     		mov	r3, r0
 1702 03d2 2370     		strb	r3, [r4]
 652:.\Generated_Source\PSoC4/BLE_hids.c ****                     &eventParam->connHandle, CYBLE_GATT_DB_PEER_INITIATED);
 653:.\Generated_Source\PSoC4/BLE_hids.c ****                 if(gattErr == CYBLE_GATT_ERR_NONE)
 1703              		.loc 1 653 0
 1704 03d4 1F23     		mov	r3, #31
 1705 03d6 FB18     		add	r3, r7, r3
 1706 03d8 1B78     		ldrb	r3, [r3]
 1707 03da 002B     		cmp	r3, #0
 1708 03dc 08D1     		bne	.L93
 654:.\Generated_Source\PSoC4/BLE_hids.c ****                 {                
 655:.\Generated_Source\PSoC4/BLE_hids.c ****                     CyBle_HidsApplCallback(eventCode, &locCharValue);
 1709              		.loc 1 655 0
ARM GAS  C:\Users\Herry\AppData\Local\Temp\ccuIEJCt.s 			page 43


 1710 03de 0D4B     		ldr	r3, .L98+8
 1711 03e0 1B68     		ldr	r3, [r3]
 1712 03e2 B969     		ldr	r1, [r7, #24]
 1713 03e4 0C22     		mov	r2, #12
 1714 03e6 BA18     		add	r2, r7, r2
 1715 03e8 081C     		mov	r0, r1
 1716 03ea 111C     		mov	r1, r2
 1717 03ec 9847     		blx	r3
 656:.\Generated_Source\PSoC4/BLE_hids.c ****                 }
 657:.\Generated_Source\PSoC4/BLE_hids.c ****                 break;
 1718              		.loc 1 657 0
 1719 03ee 06E0     		b	.L71
 1720              	.L93:
 1721 03f0 05E0     		b	.L71
 1722              	.L92:
 658:.\Generated_Source\PSoC4/BLE_hids.c ****             }
 659:.\Generated_Source\PSoC4/BLE_hids.c ****         }while(locServIndex < CYBLE_HIDSS_SERVICE_COUNT);
 1723              		.loc 1 659 0
 1724 03f2 1E23     		mov	r3, #30
 1725 03f4 FB18     		add	r3, r7, r3
 1726 03f6 1B78     		ldrb	r3, [r3]
 1727 03f8 002B     		cmp	r3, #0
 1728 03fa 00D1     		bne	.LCB1549
 1729 03fc 1CE6     		b	.L94	@long jump
 1730              	.LCB1549:
 1731              	.L71:
 660:.\Generated_Source\PSoC4/BLE_hids.c ****     }
 661:.\Generated_Source\PSoC4/BLE_hids.c ****     return (gattErr);
 1732              		.loc 1 661 0
 1733 03fe 1F23     		mov	r3, #31
 1734 0400 FB18     		add	r3, r7, r3
 1735 0402 1B78     		ldrb	r3, [r3]
 662:.\Generated_Source\PSoC4/BLE_hids.c **** }
 1736              		.loc 1 662 0
 1737 0404 181C     		mov	r0, r3
 1738 0406 BD46     		mov	sp, r7
 1739 0408 09B0     		add	sp, sp, #36
 1740              		@ sp needed
 1741 040a 90BD     		pop	{r4, r7, pc}
 1742              	.L99:
 1743              		.align	2
 1744              	.L98:
 1745 040c 00000000 		.word	cyBle_hidss
 1746 0410 00000000 		.word	cyBle_eventHandlerFlag
 1747 0414 00000000 		.word	CyBle_HidsApplCallback
 1748              		.cfi_endproc
 1749              	.LFE8:
 1750              		.size	CyBle_HidssWriteEventHandler, .-CyBle_HidssWriteEventHandler
 1751              		.section	.text.CyBle_HidssSendNotification,"ax",%progbits
 1752              		.align	2
 1753              		.global	CyBle_HidssSendNotification
 1754              		.code	16
 1755              		.thumb_func
 1756              		.type	CyBle_HidssSendNotification, %function
 1757              	CyBle_HidssSendNotification:
 1758              	.LFB9:
 663:.\Generated_Source\PSoC4/BLE_hids.c **** 
ARM GAS  C:\Users\Herry\AppData\Local\Temp\ccuIEJCt.s 			page 44


 664:.\Generated_Source\PSoC4/BLE_hids.c **** 
 665:.\Generated_Source\PSoC4/BLE_hids.c **** /****************************************************************************** 
 666:.\Generated_Source\PSoC4/BLE_hids.c **** * Function Name: CyBle_HidssSendNotification
 667:.\Generated_Source\PSoC4/BLE_hids.c **** ***************************************************************************//**
 668:.\Generated_Source\PSoC4/BLE_hids.c **** * 
 669:.\Generated_Source\PSoC4/BLE_hids.c **** *  Sends specified HID Service characteristic notification to the Client device.
 670:.\Generated_Source\PSoC4/BLE_hids.c **** * 
 671:.\Generated_Source\PSoC4/BLE_hids.c **** *  CYBLE_EVT_HIDSC_NOTIFICATION event is received by the peer device, on invoking 
 672:.\Generated_Source\PSoC4/BLE_hids.c **** *   this function.
 673:.\Generated_Source\PSoC4/BLE_hids.c **** * 
 674:.\Generated_Source\PSoC4/BLE_hids.c **** *  \param connHandle: BLE peer device connection handle.
 675:.\Generated_Source\PSoC4/BLE_hids.c **** *  \param serviceIndex: The index of the HID service instance. e.g. If two HID Services
 676:.\Generated_Source\PSoC4/BLE_hids.c **** *                 are supported in your design, then first service will be 
 677:.\Generated_Source\PSoC4/BLE_hids.c **** *                 identified by serviceIndex of 0 and the second by serviceIndex
 678:.\Generated_Source\PSoC4/BLE_hids.c **** *                 of 1.
 679:.\Generated_Source\PSoC4/BLE_hids.c **** *  \param charIndex: The index of the service characteristic.
 680:.\Generated_Source\PSoC4/BLE_hids.c **** *  \param attrSize: The size of the characteristic value attribute.
 681:.\Generated_Source\PSoC4/BLE_hids.c **** *  \param attrValue: Pointer to the characteristic value data that should be sent to
 682:.\Generated_Source\PSoC4/BLE_hids.c **** *               the Client device.
 683:.\Generated_Source\PSoC4/BLE_hids.c **** * 
 684:.\Generated_Source\PSoC4/BLE_hids.c **** * \return
 685:.\Generated_Source\PSoC4/BLE_hids.c **** *  Return value is of type CYBLE_API_RESULT_T.
 686:.\Generated_Source\PSoC4/BLE_hids.c **** *   * CYBLE_ERROR_OK - The request handled successfully
 687:.\Generated_Source\PSoC4/BLE_hids.c **** *   * CYBLE_ERROR_INVALID_PARAMETER - Validation of the input parameter failed
 688:.\Generated_Source\PSoC4/BLE_hids.c **** *   * CYBLE_ERROR_INVALID_OPERATION - This operation is not permitted
 689:.\Generated_Source\PSoC4/BLE_hids.c **** *   * CYBLE_ERROR_GATT_DB_INVALID_ATTR_HANDLE - Optional characteristic is absent
 690:.\Generated_Source\PSoC4/BLE_hids.c **** *   * CYBLE_ERROR_INVALID_STATE - Connection with the client is not established
 691:.\Generated_Source\PSoC4/BLE_hids.c **** *   * CYBLE_ERROR_MEMORY_ALLOCATION_FAILED - Memory allocation failed. 
 692:.\Generated_Source\PSoC4/BLE_hids.c **** *   * CYBLE_ERROR_NTF_DISABLED - Notification is not enabled by the client.
 693:.\Generated_Source\PSoC4/BLE_hids.c **** * 
 694:.\Generated_Source\PSoC4/BLE_hids.c **** ******************************************************************************/
 695:.\Generated_Source\PSoC4/BLE_hids.c **** CYBLE_API_RESULT_T CyBle_HidssSendNotification(CYBLE_CONN_HANDLE_T connHandle,
 696:.\Generated_Source\PSoC4/BLE_hids.c ****     uint8 serviceIndex, CYBLE_HIDS_CHAR_INDEX_T charIndex, uint8 attrSize, uint8 *attrValue)
 697:.\Generated_Source\PSoC4/BLE_hids.c **** {
 1759              		.loc 1 697 0
 1760              		.cfi_startproc
 1761 0000 90B5     		push	{r4, r7, lr}
 1762              		.cfi_def_cfa_offset 12
 1763              		.cfi_offset 4, -12
 1764              		.cfi_offset 7, -8
 1765              		.cfi_offset 14, -4
 1766 0002 8BB0     		sub	sp, sp, #44
 1767              		.cfi_def_cfa_offset 56
 1768 0004 00AF     		add	r7, sp, #0
 1769              		.cfi_def_cfa_register 7
 1770 0006 3C1D     		add	r4, r7, #4
 1771 0008 2080     		strh	r0, [r4]
 1772 000a 0C1C     		mov	r4, r1
 1773 000c 101C     		mov	r0, r2
 1774 000e 191C     		mov	r1, r3
 1775 0010 FB1C     		add	r3, r7, #3
 1776 0012 221C     		add	r2, r4, #0
 1777 0014 1A70     		strb	r2, [r3]
 1778 0016 BB1C     		add	r3, r7, #2
 1779 0018 021C     		add	r2, r0, #0
 1780 001a 1A70     		strb	r2, [r3]
 1781 001c 7B1C     		add	r3, r7, #1
ARM GAS  C:\Users\Herry\AppData\Local\Temp\ccuIEJCt.s 			page 45


 1782 001e 0A1C     		add	r2, r1, #0
 1783 0020 1A70     		strb	r2, [r3]
 698:.\Generated_Source\PSoC4/BLE_hids.c ****     CYBLE_API_RESULT_T apiResult = CYBLE_ERROR_OK;
 1784              		.loc 1 698 0
 1785 0022 2623     		mov	r3, #38
 1786 0024 FB18     		add	r3, r7, r3
 1787 0026 0022     		mov	r2, #0
 1788 0028 1A80     		strh	r2, [r3]
 699:.\Generated_Source\PSoC4/BLE_hids.c ****     const CYBLE_HIDSS_REPORT_T *locReport;
 700:.\Generated_Source\PSoC4/BLE_hids.c ****     CYBLE_GATTS_HANDLE_VALUE_NTF_T ntfReqParam;
 701:.\Generated_Source\PSoC4/BLE_hids.c ****     CYBLE_GATT_HANDLE_VALUE_PAIR_T locHandleValuePair;
 702:.\Generated_Source\PSoC4/BLE_hids.c **** 
 703:.\Generated_Source\PSoC4/BLE_hids.c ****     if((serviceIndex >= CYBLE_HIDSS_SERVICE_COUNT) || (charIndex >= CYBLE_HIDS_CHAR_COUNT))
 1789              		.loc 1 703 0
 1790 002a FB1C     		add	r3, r7, #3
 1791 002c 1B78     		ldrb	r3, [r3]
 1792 002e 002B     		cmp	r3, #0
 1793 0030 03D1     		bne	.L101
 1794              		.loc 1 703 0 is_stmt 0 discriminator 1
 1795 0032 BB1C     		add	r3, r7, #2
 1796 0034 1B78     		ldrb	r3, [r3]
 1797 0036 072B     		cmp	r3, #7
 1798 0038 04D9     		bls	.L102
 1799              	.L101:
 704:.\Generated_Source\PSoC4/BLE_hids.c ****     {
 705:.\Generated_Source\PSoC4/BLE_hids.c ****         apiResult = CYBLE_ERROR_INVALID_PARAMETER;
 1800              		.loc 1 705 0 is_stmt 1
 1801 003a 2623     		mov	r3, #38
 1802 003c FB18     		add	r3, r7, r3
 1803 003e 0122     		mov	r2, #1
 1804 0040 1A80     		strh	r2, [r3]
 1805 0042 BAE0     		b	.L103
 1806              	.L102:
 706:.\Generated_Source\PSoC4/BLE_hids.c ****     }
 707:.\Generated_Source\PSoC4/BLE_hids.c ****     else
 708:.\Generated_Source\PSoC4/BLE_hids.c ****     {
 709:.\Generated_Source\PSoC4/BLE_hids.c ****         if(charIndex == CYBLE_HIDS_BOOT_KYBRD_IN_REP)
 1807              		.loc 1 709 0
 1808 0044 BB1C     		add	r3, r7, #2
 1809 0046 1B78     		ldrb	r3, [r3]
 1810 0048 042B     		cmp	r3, #4
 1811 004a 0CD1     		bne	.L104
 710:.\Generated_Source\PSoC4/BLE_hids.c ****         {
 711:.\Generated_Source\PSoC4/BLE_hids.c ****             locReport = &cyBle_hidss[serviceIndex].bootReportArray[CYBLE_HIDS_BOOT_KYBRD_IN_REP_IND
 1812              		.loc 1 711 0
 1813 004c FB1C     		add	r3, r7, #3
 1814 004e 1A78     		ldrb	r2, [r3]
 1815 0050 131C     		mov	r3, r2
 1816 0052 9B00     		lsl	r3, r3, #2
 1817 0054 9B18     		add	r3, r3, r2
 1818 0056 DB00     		lsl	r3, r3, #3
 1819 0058 0833     		add	r3, r3, #8
 1820 005a 1A1C     		mov	r2, r3
 1821 005c 5A4B     		ldr	r3, .L115
 1822 005e D318     		add	r3, r2, r3
 1823 0060 0433     		add	r3, r3, #4
 1824 0062 3B62     		str	r3, [r7, #32]
ARM GAS  C:\Users\Herry\AppData\Local\Temp\ccuIEJCt.s 			page 46


 1825 0064 43E0     		b	.L105
 1826              	.L104:
 712:.\Generated_Source\PSoC4/BLE_hids.c ****         }
 713:.\Generated_Source\PSoC4/BLE_hids.c ****         else if(charIndex == CYBLE_HIDS_BOOT_MOUSE_IN_REP)
 1827              		.loc 1 713 0
 1828 0066 BB1C     		add	r3, r7, #2
 1829 0068 1B78     		ldrb	r3, [r3]
 1830 006a 062B     		cmp	r3, #6
 1831 006c 0CD1     		bne	.L106
 714:.\Generated_Source\PSoC4/BLE_hids.c ****         {
 715:.\Generated_Source\PSoC4/BLE_hids.c ****             locReport = &cyBle_hidss[serviceIndex].bootReportArray[CYBLE_HIDS_BOOT_MOUSE_IN_REP_IND
 1832              		.loc 1 715 0
 1833 006e FB1C     		add	r3, r7, #3
 1834 0070 1A78     		ldrb	r2, [r3]
 1835 0072 131C     		mov	r3, r2
 1836 0074 9B00     		lsl	r3, r3, #2
 1837 0076 9B18     		add	r3, r3, r2
 1838 0078 DB00     		lsl	r3, r3, #3
 1839 007a 1433     		add	r3, r3, #20
 1840 007c 1A1C     		mov	r2, r3
 1841 007e 524B     		ldr	r3, .L115
 1842 0080 D318     		add	r3, r2, r3
 1843 0082 0433     		add	r3, r3, #4
 1844 0084 3B62     		str	r3, [r7, #32]
 1845 0086 32E0     		b	.L105
 1846              	.L106:
 716:.\Generated_Source\PSoC4/BLE_hids.c ****         }
 717:.\Generated_Source\PSoC4/BLE_hids.c ****         else if((charIndex >= CYBLE_HIDS_REPORT) && (charIndex <= CYBLE_HIDS_REPORT_END))
 1847              		.loc 1 717 0
 1848 0088 BB1C     		add	r3, r7, #2
 1849 008a 1B78     		ldrb	r3, [r3]
 1850 008c 062B     		cmp	r3, #6
 1851 008e 2AD9     		bls	.L107
 1852              		.loc 1 717 0 is_stmt 0 discriminator 1
 1853 0090 BB1C     		add	r3, r7, #2
 1854 0092 1B78     		ldrb	r3, [r3]
 1855 0094 072B     		cmp	r3, #7
 1856 0096 26D8     		bhi	.L107
 718:.\Generated_Source\PSoC4/BLE_hids.c ****         {
 719:.\Generated_Source\PSoC4/BLE_hids.c ****             /* Verify that requested report exists in particular service */
 720:.\Generated_Source\PSoC4/BLE_hids.c ****             if((charIndex - CYBLE_HIDS_REPORT) < cyBle_hidss[serviceIndex].reportCount)
 1857              		.loc 1 720 0 is_stmt 1
 1858 0098 BB1C     		add	r3, r7, #2
 1859 009a 1B78     		ldrb	r3, [r3]
 1860 009c D91F     		sub	r1, r3, #7
 1861 009e FB1C     		add	r3, r7, #3
 1862 00a0 1A78     		ldrb	r2, [r3]
 1863 00a2 4948     		ldr	r0, .L115
 1864 00a4 131C     		mov	r3, r2
 1865 00a6 9B00     		lsl	r3, r3, #2
 1866 00a8 9B18     		add	r3, r3, r2
 1867 00aa DB00     		lsl	r3, r3, #3
 1868 00ac C318     		add	r3, r0, r3
 1869 00ae 1B79     		ldrb	r3, [r3, #4]
 1870 00b0 9942     		cmp	r1, r3
 1871 00b2 13DA     		bge	.L108
 721:.\Generated_Source\PSoC4/BLE_hids.c ****             {
ARM GAS  C:\Users\Herry\AppData\Local\Temp\ccuIEJCt.s 			page 47


 722:.\Generated_Source\PSoC4/BLE_hids.c ****                 locReport = &cyBle_hidss[serviceIndex].reportArray[charIndex - CYBLE_HIDS_REPORT];
 1872              		.loc 1 722 0
 1873 00b4 FB1C     		add	r3, r7, #3
 1874 00b6 1A78     		ldrb	r2, [r3]
 1875 00b8 4349     		ldr	r1, .L115
 1876 00ba 131C     		mov	r3, r2
 1877 00bc 9B00     		lsl	r3, r3, #2
 1878 00be 9B18     		add	r3, r3, r2
 1879 00c0 DB00     		lsl	r3, r3, #3
 1880 00c2 CB18     		add	r3, r1, r3
 1881 00c4 0833     		add	r3, r3, #8
 1882 00c6 1968     		ldr	r1, [r3]
 1883 00c8 BB1C     		add	r3, r7, #2
 1884 00ca 1A78     		ldrb	r2, [r3]
 1885 00cc 131C     		mov	r3, r2
 1886 00ce 5B00     		lsl	r3, r3, #1
 1887 00d0 9B18     		add	r3, r3, r2
 1888 00d2 5B00     		lsl	r3, r3, #1
 1889 00d4 2A3B     		sub	r3, r3, #42
 1890 00d6 CB18     		add	r3, r1, r3
 1891 00d8 3B62     		str	r3, [r7, #32]
 720:.\Generated_Source\PSoC4/BLE_hids.c ****             {
 1892              		.loc 1 720 0
 1893 00da 08E0     		b	.L105
 1894              	.L108:
 723:.\Generated_Source\PSoC4/BLE_hids.c ****             }
 724:.\Generated_Source\PSoC4/BLE_hids.c ****             else
 725:.\Generated_Source\PSoC4/BLE_hids.c ****             {
 726:.\Generated_Source\PSoC4/BLE_hids.c ****                 apiResult = CYBLE_ERROR_INVALID_PARAMETER;
 1895              		.loc 1 726 0
 1896 00dc 2623     		mov	r3, #38
 1897 00de FB18     		add	r3, r7, r3
 1898 00e0 0122     		mov	r2, #1
 1899 00e2 1A80     		strh	r2, [r3]
 720:.\Generated_Source\PSoC4/BLE_hids.c ****             {
 1900              		.loc 1 720 0
 1901 00e4 03E0     		b	.L105
 1902              	.L107:
 727:.\Generated_Source\PSoC4/BLE_hids.c ****             }
 728:.\Generated_Source\PSoC4/BLE_hids.c ****         }
 729:.\Generated_Source\PSoC4/BLE_hids.c ****         else
 730:.\Generated_Source\PSoC4/BLE_hids.c ****         {
 731:.\Generated_Source\PSoC4/BLE_hids.c ****             apiResult = CYBLE_ERROR_INVALID_PARAMETER;
 1903              		.loc 1 731 0
 1904 00e6 2623     		mov	r3, #38
 1905 00e8 FB18     		add	r3, r7, r3
 1906 00ea 0122     		mov	r2, #1
 1907 00ec 1A80     		strh	r2, [r3]
 1908              	.L105:
 732:.\Generated_Source\PSoC4/BLE_hids.c ****         }
 733:.\Generated_Source\PSoC4/BLE_hids.c ****         if(apiResult == CYBLE_ERROR_OK)
 1909              		.loc 1 733 0
 1910 00ee 2623     		mov	r3, #38
 1911 00f0 FB18     		add	r3, r7, r3
 1912 00f2 1B88     		ldrh	r3, [r3]
 1913 00f4 002B     		cmp	r3, #0
 1914 00f6 60D1     		bne	.L103
ARM GAS  C:\Users\Herry\AppData\Local\Temp\ccuIEJCt.s 			page 48


 734:.\Generated_Source\PSoC4/BLE_hids.c ****         {
 735:.\Generated_Source\PSoC4/BLE_hids.c ****             if(locReport->reportHandle == CYBLE_GATT_INVALID_ATTR_HANDLE_VALUE)
 1915              		.loc 1 735 0
 1916 00f8 3B6A     		ldr	r3, [r7, #32]
 1917 00fa 1B88     		ldrh	r3, [r3]
 1918 00fc 002B     		cmp	r3, #0
 1919 00fe 04D1     		bne	.L110
 736:.\Generated_Source\PSoC4/BLE_hids.c ****             {
 737:.\Generated_Source\PSoC4/BLE_hids.c ****                 apiResult = CYBLE_ERROR_GATT_DB_INVALID_ATTR_HANDLE;
 1920              		.loc 1 737 0
 1921 0100 2623     		mov	r3, #38
 1922 0102 FB18     		add	r3, r7, r3
 1923 0104 1322     		mov	r2, #19
 1924 0106 1A80     		strh	r2, [r3]
 1925 0108 57E0     		b	.L103
 1926              	.L110:
 738:.\Generated_Source\PSoC4/BLE_hids.c ****             }
 739:.\Generated_Source\PSoC4/BLE_hids.c ****             else
 740:.\Generated_Source\PSoC4/BLE_hids.c ****             {
 741:.\Generated_Source\PSoC4/BLE_hids.c ****                 /* Send Notification if it is enabled and connected */
 742:.\Generated_Source\PSoC4/BLE_hids.c ****                 if(CYBLE_IS_NOTIFICATION_ENABLED(locReport->cccdHandle))
 1927              		.loc 1 742 0
 1928 010a 3B6A     		ldr	r3, [r7, #32]
 1929 010c 5B88     		ldrh	r3, [r3, #2]
 1930 010e 5A1E     		sub	r2, r3, #1
 1931 0110 2E49     		ldr	r1, .L115+4
 1932 0112 131C     		mov	r3, r2
 1933 0114 9B00     		lsl	r3, r3, #2
 1934 0116 9B18     		add	r3, r3, r2
 1935 0118 9B00     		lsl	r3, r3, #2
 1936 011a CB18     		add	r3, r1, r3
 1937 011c 0833     		add	r3, r3, #8
 1938 011e 9B68     		ldr	r3, [r3, #8]
 1939 0120 5B68     		ldr	r3, [r3, #4]
 1940 0122 181C     		mov	r0, r3
 1941 0124 FFF7FEFF 		bl	CyBle_Get16ByPtr
 1942 0128 031C     		mov	r3, r0
 1943 012a 1A1C     		mov	r2, r3
 1944 012c 0123     		mov	r3, #1
 1945 012e 1340     		and	r3, r2
 1946 0130 9BB2     		uxth	r3, r3
 1947 0132 002B     		cmp	r3, #0
 1948 0134 24D0     		beq	.L111
 743:.\Generated_Source\PSoC4/BLE_hids.c ****                 {
 744:.\Generated_Source\PSoC4/BLE_hids.c ****                     if(CYBLE_STATE_CONNECTED == cyBle_state)
 1949              		.loc 1 744 0
 1950 0136 264B     		ldr	r3, .L115+8
 1951 0138 1B78     		ldrb	r3, [r3]
 1952 013a 022B     		cmp	r3, #2
 1953 013c 1AD1     		bne	.L112
 745:.\Generated_Source\PSoC4/BLE_hids.c ****                     {
 746:.\Generated_Source\PSoC4/BLE_hids.c ****                         /* Fill all fields of write request structure ... */
 747:.\Generated_Source\PSoC4/BLE_hids.c ****                         ntfReqParam.attrHandle = locReport->reportHandle;
 1954              		.loc 1 747 0
 1955 013e 3B6A     		ldr	r3, [r7, #32]
 1956 0140 1A88     		ldrh	r2, [r3]
 1957 0142 1423     		mov	r3, #20
ARM GAS  C:\Users\Herry\AppData\Local\Temp\ccuIEJCt.s 			page 49


 1958 0144 FB18     		add	r3, r7, r3
 1959 0146 1A81     		strh	r2, [r3, #8]
 748:.\Generated_Source\PSoC4/BLE_hids.c ****                         ntfReqParam.value.val = attrValue;
 1960              		.loc 1 748 0
 1961 0148 1423     		mov	r3, #20
 1962 014a FB18     		add	r3, r7, r3
 1963 014c BA6B     		ldr	r2, [r7, #56]
 1964 014e 1A60     		str	r2, [r3]
 749:.\Generated_Source\PSoC4/BLE_hids.c ****                         ntfReqParam.value.len = attrSize;
 1965              		.loc 1 749 0
 1966 0150 7B1C     		add	r3, r7, #1
 1967 0152 1B78     		ldrb	r3, [r3]
 1968 0154 9AB2     		uxth	r2, r3
 1969 0156 1423     		mov	r3, #20
 1970 0158 FB18     		add	r3, r7, r3
 1971 015a 9A80     		strh	r2, [r3, #4]
 750:.\Generated_Source\PSoC4/BLE_hids.c **** 
 751:.\Generated_Source\PSoC4/BLE_hids.c ****                         /* Send notification to client using previously filled structure */
 752:.\Generated_Source\PSoC4/BLE_hids.c ****                         apiResult = CyBle_GattsNotification(connHandle, &ntfReqParam);
 1972              		.loc 1 752 0
 1973 015c 2623     		mov	r3, #38
 1974 015e FC18     		add	r4, r7, r3
 1975 0160 3B1D     		add	r3, r7, #4
 1976 0162 1422     		mov	r2, #20
 1977 0164 BA18     		add	r2, r7, r2
 1978 0166 1868     		ldr	r0, [r3]
 1979 0168 111C     		mov	r1, r2
 1980 016a FFF7FEFF 		bl	CyBle_GattsNotification
 1981 016e 031C     		mov	r3, r0
 1982 0170 2380     		strh	r3, [r4]
 1983 0172 22E0     		b	.L103
 1984              	.L112:
 753:.\Generated_Source\PSoC4/BLE_hids.c ****                     }
 754:.\Generated_Source\PSoC4/BLE_hids.c ****                     else
 755:.\Generated_Source\PSoC4/BLE_hids.c ****                     {
 756:.\Generated_Source\PSoC4/BLE_hids.c ****                         apiResult = CYBLE_ERROR_INVALID_STATE;
 1985              		.loc 1 756 0
 1986 0174 2623     		mov	r3, #38
 1987 0176 FB18     		add	r3, r7, r3
 1988 0178 0422     		mov	r2, #4
 1989 017a FF32     		add	r2, r2, #255
 1990 017c 1A80     		strh	r2, [r3]
 1991 017e 1CE0     		b	.L103
 1992              	.L111:
 757:.\Generated_Source\PSoC4/BLE_hids.c ****                     }
 758:.\Generated_Source\PSoC4/BLE_hids.c ****                 }
 759:.\Generated_Source\PSoC4/BLE_hids.c ****                 else    /* Store data in database */
 760:.\Generated_Source\PSoC4/BLE_hids.c ****                 {
 761:.\Generated_Source\PSoC4/BLE_hids.c ****                     locHandleValuePair.attrHandle = locReport->reportHandle;
 1993              		.loc 1 761 0
 1994 0180 3B6A     		ldr	r3, [r7, #32]
 1995 0182 1A88     		ldrh	r2, [r3]
 1996 0184 0823     		mov	r3, #8
 1997 0186 FB18     		add	r3, r7, r3
 1998 0188 1A81     		strh	r2, [r3, #8]
 762:.\Generated_Source\PSoC4/BLE_hids.c ****                     locHandleValuePair.value.len = attrSize;
 1999              		.loc 1 762 0
ARM GAS  C:\Users\Herry\AppData\Local\Temp\ccuIEJCt.s 			page 50


 2000 018a 7B1C     		add	r3, r7, #1
 2001 018c 1B78     		ldrb	r3, [r3]
 2002 018e 9AB2     		uxth	r2, r3
 2003 0190 0823     		mov	r3, #8
 2004 0192 FB18     		add	r3, r7, r3
 2005 0194 9A80     		strh	r2, [r3, #4]
 763:.\Generated_Source\PSoC4/BLE_hids.c ****                     locHandleValuePair.value.val = attrValue;
 2006              		.loc 1 763 0
 2007 0196 0823     		mov	r3, #8
 2008 0198 FB18     		add	r3, r7, r3
 2009 019a BA6B     		ldr	r2, [r7, #56]
 2010 019c 1A60     		str	r2, [r3]
 764:.\Generated_Source\PSoC4/BLE_hids.c ****                     if(CYBLE_GATT_ERR_NONE !=
 765:.\Generated_Source\PSoC4/BLE_hids.c ****                         CyBle_GattsWriteAttributeValue(&locHandleValuePair, 0u, NULL, CYBLE_GATT_DB
 2011              		.loc 1 765 0
 2012 019e 0823     		mov	r3, #8
 2013 01a0 FB18     		add	r3, r7, r3
 2014 01a2 181C     		mov	r0, r3
 2015 01a4 0021     		mov	r1, #0
 2016 01a6 0022     		mov	r2, #0
 2017 01a8 0023     		mov	r3, #0
 2018 01aa FFF7FEFF 		bl	CyBle_GattsWriteAttributeValue
 2019 01ae 031E     		sub	r3, r0, #0
 764:.\Generated_Source\PSoC4/BLE_hids.c ****                     if(CYBLE_GATT_ERR_NONE !=
 2020              		.loc 1 764 0
 2021 01b0 03D0     		beq	.L103
 766:.\Generated_Source\PSoC4/BLE_hids.c ****                     {
 767:.\Generated_Source\PSoC4/BLE_hids.c ****                         apiResult = CYBLE_ERROR_INVALID_PARAMETER;
 2022              		.loc 1 767 0
 2023 01b2 2623     		mov	r3, #38
 2024 01b4 FB18     		add	r3, r7, r3
 2025 01b6 0122     		mov	r2, #1
 2026 01b8 1A80     		strh	r2, [r3]
 2027              	.L103:
 768:.\Generated_Source\PSoC4/BLE_hids.c ****                     }
 769:.\Generated_Source\PSoC4/BLE_hids.c ****                 }
 770:.\Generated_Source\PSoC4/BLE_hids.c ****             }
 771:.\Generated_Source\PSoC4/BLE_hids.c ****         }
 772:.\Generated_Source\PSoC4/BLE_hids.c ****     }
 773:.\Generated_Source\PSoC4/BLE_hids.c ****     return (apiResult);
 2028              		.loc 1 773 0
 2029 01ba 2623     		mov	r3, #38
 2030 01bc FB18     		add	r3, r7, r3
 2031 01be 1B88     		ldrh	r3, [r3]
 774:.\Generated_Source\PSoC4/BLE_hids.c **** }
 2032              		.loc 1 774 0
 2033 01c0 181C     		mov	r0, r3
 2034 01c2 BD46     		mov	sp, r7
 2035 01c4 0BB0     		add	sp, sp, #44
 2036              		@ sp needed
 2037 01c6 90BD     		pop	{r4, r7, pc}
 2038              	.L116:
 2039              		.align	2
 2040              	.L115:
 2041 01c8 00000000 		.word	cyBle_hidss
 2042 01cc 00000000 		.word	cyBle_gattDB
 2043 01d0 00000000 		.word	cyBle_state
ARM GAS  C:\Users\Herry\AppData\Local\Temp\ccuIEJCt.s 			page 51


 2044              		.cfi_endproc
 2045              	.LFE9:
 2046              		.size	CyBle_HidssSendNotification, .-CyBle_HidssSendNotification
 2047              		.section	.text.CyBle_HidssOnDeviceConnected,"ax",%progbits
 2048              		.align	2
 2049              		.global	CyBle_HidssOnDeviceConnected
 2050              		.code	16
 2051              		.thumb_func
 2052              		.type	CyBle_HidssOnDeviceConnected, %function
 2053              	CyBle_HidssOnDeviceConnected:
 2054              	.LFB10:
 775:.\Generated_Source\PSoC4/BLE_hids.c **** 
 776:.\Generated_Source\PSoC4/BLE_hids.c **** 
 777:.\Generated_Source\PSoC4/BLE_hids.c **** /****************************************************************************** 
 778:.\Generated_Source\PSoC4/BLE_hids.c **** * Function Name: CyBle_HidssOnDeviceConnected
 779:.\Generated_Source\PSoC4/BLE_hids.c **** ***************************************************************************//**
 780:.\Generated_Source\PSoC4/BLE_hids.c **** * 
 781:.\Generated_Source\PSoC4/BLE_hids.c **** *  Handles the connection establishment request.
 782:.\Generated_Source\PSoC4/BLE_hids.c **** * 
 783:.\Generated_Source\PSoC4/BLE_hids.c **** * \return
 784:.\Generated_Source\PSoC4/BLE_hids.c **** *  None
 785:.\Generated_Source\PSoC4/BLE_hids.c **** * 
 786:.\Generated_Source\PSoC4/BLE_hids.c **** ******************************************************************************/
 787:.\Generated_Source\PSoC4/BLE_hids.c **** void CyBle_HidssOnDeviceConnected(void)
 788:.\Generated_Source\PSoC4/BLE_hids.c **** {
 2055              		.loc 1 788 0
 2056              		.cfi_startproc
 2057 0000 80B5     		push	{r7, lr}
 2058              		.cfi_def_cfa_offset 8
 2059              		.cfi_offset 7, -8
 2060              		.cfi_offset 14, -4
 2061 0002 82B0     		sub	sp, sp, #8
 2062              		.cfi_def_cfa_offset 16
 2063 0004 00AF     		add	r7, sp, #0
 2064              		.cfi_def_cfa_register 7
 789:.\Generated_Source\PSoC4/BLE_hids.c ****     /* The Protocol Mode characteristic value shall be reset to the default value
 790:.\Generated_Source\PSoC4/BLE_hids.c ****        following a connection establishment */
 791:.\Generated_Source\PSoC4/BLE_hids.c ****     uint8 defaultProtocol = CYBLE_HIDS_PROTOCOL_DEFAULT;
 2065              		.loc 1 791 0
 2066 0006 BB1D     		add	r3, r7, #6
 2067 0008 0122     		mov	r2, #1
 2068 000a 1A70     		strb	r2, [r3]
 792:.\Generated_Source\PSoC4/BLE_hids.c ****     uint8 locServIndex = 0u;
 2069              		.loc 1 792 0
 2070 000c FB1D     		add	r3, r7, #7
 2071 000e 0022     		mov	r2, #0
 2072 0010 1A70     		strb	r2, [r3]
 2073              	.L119:
 793:.\Generated_Source\PSoC4/BLE_hids.c ****     do
 794:.\Generated_Source\PSoC4/BLE_hids.c ****     {
 795:.\Generated_Source\PSoC4/BLE_hids.c ****         if(cyBle_hidss[locServIndex].protocolModeHandle !=
 2074              		.loc 1 795 0
 2075 0012 FB1D     		add	r3, r7, #7
 2076 0014 1A78     		ldrb	r2, [r3]
 2077 0016 1549     		ldr	r1, .L120
 2078 0018 131C     		mov	r3, r2
 2079 001a 9B00     		lsl	r3, r3, #2
ARM GAS  C:\Users\Herry\AppData\Local\Temp\ccuIEJCt.s 			page 52


 2080 001c 9B18     		add	r3, r3, r2
 2081 001e DB00     		lsl	r3, r3, #3
 2082 0020 CB18     		add	r3, r1, r3
 2083 0022 5B88     		ldrh	r3, [r3, #2]
 2084 0024 002B     		cmp	r3, #0
 2085 0026 15D0     		beq	.L118
 796:.\Generated_Source\PSoC4/BLE_hids.c ****            CYBLE_GATT_INVALID_ATTR_HANDLE_VALUE)
 797:.\Generated_Source\PSoC4/BLE_hids.c ****         {
 798:.\Generated_Source\PSoC4/BLE_hids.c ****             /* Store default protocol value in database */
 799:.\Generated_Source\PSoC4/BLE_hids.c ****             CYBLE_GATT_DB_ATTR_SET_GEN_VALUE(cyBle_hidss[locServIndex].protocolModeHandle,
 2086              		.loc 1 799 0
 2087 0028 FB1D     		add	r3, r7, #7
 2088 002a 1A78     		ldrb	r2, [r3]
 2089 002c 0F49     		ldr	r1, .L120
 2090 002e 131C     		mov	r3, r2
 2091 0030 9B00     		lsl	r3, r3, #2
 2092 0032 9B18     		add	r3, r3, r2
 2093 0034 DB00     		lsl	r3, r3, #3
 2094 0036 CB18     		add	r3, r1, r3
 2095 0038 5B88     		ldrh	r3, [r3, #2]
 2096 003a 5A1E     		sub	r2, r3, #1
 2097 003c 0C49     		ldr	r1, .L120+4
 2098 003e 131C     		mov	r3, r2
 2099 0040 9B00     		lsl	r3, r3, #2
 2100 0042 9B18     		add	r3, r3, r2
 2101 0044 9B00     		lsl	r3, r3, #2
 2102 0046 CB18     		add	r3, r1, r3
 2103 0048 0833     		add	r3, r3, #8
 2104 004a 9B68     		ldr	r3, [r3, #8]
 2105 004c 5B68     		ldr	r3, [r3, #4]
 2106 004e BA1D     		add	r2, r7, #6
 2107 0050 1278     		ldrb	r2, [r2]
 2108 0052 1A70     		strb	r2, [r3]
 2109              	.L118:
 800:.\Generated_Source\PSoC4/BLE_hids.c ****                                                     &defaultProtocol, sizeof(defaultProtocol));
 801:.\Generated_Source\PSoC4/BLE_hids.c ****         }
 802:.\Generated_Source\PSoC4/BLE_hids.c ****         ++locServIndex;
 2110              		.loc 1 802 0
 2111 0054 FB1D     		add	r3, r7, #7
 2112 0056 FA1D     		add	r2, r7, #7
 2113 0058 1278     		ldrb	r2, [r2]
 2114 005a 0132     		add	r2, r2, #1
 2115 005c 1A70     		strb	r2, [r3]
 803:.\Generated_Source\PSoC4/BLE_hids.c ****     }while(locServIndex < CYBLE_HIDSS_SERVICE_COUNT);
 2116              		.loc 1 803 0
 2117 005e FB1D     		add	r3, r7, #7
 2118 0060 1B78     		ldrb	r3, [r3]
 2119 0062 002B     		cmp	r3, #0
 2120 0064 D5D0     		beq	.L119
 804:.\Generated_Source\PSoC4/BLE_hids.c **** }
 2121              		.loc 1 804 0
 2122 0066 BD46     		mov	sp, r7
 2123 0068 02B0     		add	sp, sp, #8
 2124              		@ sp needed
 2125 006a 80BD     		pop	{r7, pc}
 2126              	.L121:
 2127              		.align	2
ARM GAS  C:\Users\Herry\AppData\Local\Temp\ccuIEJCt.s 			page 53


 2128              	.L120:
 2129 006c 00000000 		.word	cyBle_hidss
 2130 0070 00000000 		.word	cyBle_gattDB
 2131              		.cfi_endproc
 2132              	.LFE10:
 2133              		.size	CyBle_HidssOnDeviceConnected, .-CyBle_HidssOnDeviceConnected
 2134              		.text
 2135              	.Letext0:
 2136              		.file 2 ".\\Generated_Source\\PSoC4\\cytypes.h"
 2137              		.file 3 ".\\Generated_Source\\PSoC4\\BLE_Stack.h"
 2138              		.file 4 ".\\Generated_Source\\PSoC4\\BLE_StackGatt.h"
 2139              		.file 5 ".\\Generated_Source\\PSoC4\\BLE_StackGattServer.h"
 2140              		.file 6 ".\\Generated_Source\\PSoC4\\BLE_StackGattDb.h"
 2141              		.file 7 ".\\Generated_Source\\PSoC4\\BLE.h"
 2142              		.file 8 ".\\Generated_Source\\PSoC4\\BLE_dis.h"
 2143              		.file 9 ".\\Generated_Source\\PSoC4\\BLE_hids.h"
 2144              		.file 10 ".\\Generated_Source\\PSoC4\\BLE_eventHandler.h"
 2145              		.file 11 ".\\Generated_Source\\PSoC4\\BLE_gatt.h"
 2146              		.section	.debug_info,"",%progbits
 2147              	.Ldebug_info0:
 2148 0000 14140000 		.4byte	0x1414
 2149 0004 0400     		.2byte	0x4
 2150 0006 00000000 		.4byte	.Ldebug_abbrev0
 2151 000a 04       		.byte	0x4
 2152 000b 01       		.uleb128 0x1
 2153 000c D62D0000 		.4byte	.LASF538
 2154 0010 01       		.byte	0x1
 2155 0011 AC390000 		.4byte	.LASF539
 2156 0015 88260000 		.4byte	.LASF540
 2157 0019 00000000 		.4byte	.Ldebug_ranges0+0
 2158 001d 00000000 		.4byte	0
 2159 0021 00000000 		.4byte	.Ldebug_line0
 2160 0025 02       		.uleb128 0x2
 2161 0026 01       		.byte	0x1
 2162 0027 06       		.byte	0x6
 2163 0028 6D0D0000 		.4byte	.LASF0
 2164 002c 02       		.uleb128 0x2
 2165 002d 01       		.byte	0x1
 2166 002e 08       		.byte	0x8
 2167 002f 760E0000 		.4byte	.LASF1
 2168 0033 02       		.uleb128 0x2
 2169 0034 02       		.byte	0x2
 2170 0035 05       		.byte	0x5
 2171 0036 74330000 		.4byte	.LASF2
 2172 003a 02       		.uleb128 0x2
 2173 003b 02       		.byte	0x2
 2174 003c 07       		.byte	0x7
 2175 003d 2A3B0000 		.4byte	.LASF3
 2176 0041 02       		.uleb128 0x2
 2177 0042 04       		.byte	0x4
 2178 0043 05       		.byte	0x5
 2179 0044 500A0000 		.4byte	.LASF4
 2180 0048 02       		.uleb128 0x2
 2181 0049 04       		.byte	0x4
 2182 004a 07       		.byte	0x7
 2183 004b 1D1A0000 		.4byte	.LASF5
 2184 004f 02       		.uleb128 0x2
ARM GAS  C:\Users\Herry\AppData\Local\Temp\ccuIEJCt.s 			page 54


 2185 0050 08       		.byte	0x8
 2186 0051 05       		.byte	0x5
 2187 0052 891E0000 		.4byte	.LASF6
 2188 0056 02       		.uleb128 0x2
 2189 0057 08       		.byte	0x8
 2190 0058 07       		.byte	0x7
 2191 0059 782B0000 		.4byte	.LASF7
 2192 005d 03       		.uleb128 0x3
 2193 005e 04       		.byte	0x4
 2194 005f 05       		.byte	0x5
 2195 0060 696E7400 		.ascii	"int\000"
 2196 0064 02       		.uleb128 0x2
 2197 0065 04       		.byte	0x4
 2198 0066 07       		.byte	0x7
 2199 0067 A9230000 		.4byte	.LASF8
 2200 006b 04       		.uleb128 0x4
 2201 006c DC320000 		.4byte	.LASF9
 2202 0070 02       		.byte	0x2
 2203 0071 9801     		.2byte	0x198
 2204 0073 2C000000 		.4byte	0x2c
 2205 0077 04       		.uleb128 0x4
 2206 0078 293E0000 		.4byte	.LASF10
 2207 007c 02       		.byte	0x2
 2208 007d 9901     		.2byte	0x199
 2209 007f 3A000000 		.4byte	0x3a
 2210 0083 04       		.uleb128 0x4
 2211 0084 06030000 		.4byte	.LASF11
 2212 0088 02       		.byte	0x2
 2213 0089 9A01     		.2byte	0x19a
 2214 008b 48000000 		.4byte	0x48
 2215 008f 02       		.uleb128 0x2
 2216 0090 04       		.byte	0x4
 2217 0091 04       		.byte	0x4
 2218 0092 12220000 		.4byte	.LASF12
 2219 0096 02       		.uleb128 0x2
 2220 0097 08       		.byte	0x8
 2221 0098 04       		.byte	0x4
 2222 0099 DA1F0000 		.4byte	.LASF13
 2223 009d 02       		.uleb128 0x2
 2224 009e 01       		.byte	0x1
 2225 009f 08       		.byte	0x8
 2226 00a0 E7100000 		.4byte	.LASF14
 2227 00a4 05       		.uleb128 0x5
 2228 00a5 6B000000 		.4byte	0x6b
 2229 00a9 02       		.uleb128 0x2
 2230 00aa 04       		.byte	0x4
 2231 00ab 07       		.byte	0x7
 2232 00ac 89000000 		.4byte	.LASF15
 2233 00b0 06       		.uleb128 0x6
 2234 00b1 04       		.byte	0x4
 2235 00b2 07       		.uleb128 0x7
 2236 00b3 01       		.byte	0x1
 2237 00b4 03       		.byte	0x3
 2238 00b5 4201     		.2byte	0x142
 2239 00b7 6F020000 		.4byte	0x26f
 2240 00bb 08       		.uleb128 0x8
 2241 00bc 4D110000 		.4byte	.LASF16
ARM GAS  C:\Users\Herry\AppData\Local\Temp\ccuIEJCt.s 			page 55


 2242 00c0 00       		.sleb128 0
 2243 00c1 08       		.uleb128 0x8
 2244 00c2 0B0B0000 		.4byte	.LASF17
 2245 00c6 01       		.sleb128 1
 2246 00c7 08       		.uleb128 0x8
 2247 00c8 AD2B0000 		.4byte	.LASF18
 2248 00cc 02       		.sleb128 2
 2249 00cd 08       		.uleb128 0x8
 2250 00ce E30D0000 		.4byte	.LASF19
 2251 00d2 03       		.sleb128 3
 2252 00d3 08       		.uleb128 0x8
 2253 00d4 3D3C0000 		.4byte	.LASF20
 2254 00d8 04       		.sleb128 4
 2255 00d9 08       		.uleb128 0x8
 2256 00da 90390000 		.4byte	.LASF21
 2257 00de 05       		.sleb128 5
 2258 00df 08       		.uleb128 0x8
 2259 00e0 DF280000 		.4byte	.LASF22
 2260 00e4 06       		.sleb128 6
 2261 00e5 08       		.uleb128 0x8
 2262 00e6 85350000 		.4byte	.LASF23
 2263 00ea 20       		.sleb128 32
 2264 00eb 08       		.uleb128 0x8
 2265 00ec AA070000 		.4byte	.LASF24
 2266 00f0 21       		.sleb128 33
 2267 00f1 08       		.uleb128 0x8
 2268 00f2 731D0000 		.4byte	.LASF25
 2269 00f6 22       		.sleb128 34
 2270 00f7 08       		.uleb128 0x8
 2271 00f8 FF260000 		.4byte	.LASF26
 2272 00fc 23       		.sleb128 35
 2273 00fd 08       		.uleb128 0x8
 2274 00fe C7180000 		.4byte	.LASF27
 2275 0102 24       		.sleb128 36
 2276 0103 08       		.uleb128 0x8
 2277 0104 2A190000 		.4byte	.LASF28
 2278 0108 25       		.sleb128 37
 2279 0109 08       		.uleb128 0x8
 2280 010a 1D320000 		.4byte	.LASF29
 2281 010e 26       		.sleb128 38
 2282 010f 08       		.uleb128 0x8
 2283 0110 86020000 		.4byte	.LASF30
 2284 0114 27       		.sleb128 39
 2285 0115 08       		.uleb128 0x8
 2286 0116 773D0000 		.4byte	.LASF31
 2287 011a 28       		.sleb128 40
 2288 011b 08       		.uleb128 0x8
 2289 011c 9B290000 		.4byte	.LASF32
 2290 0120 29       		.sleb128 41
 2291 0121 08       		.uleb128 0x8
 2292 0122 721C0000 		.4byte	.LASF33
 2293 0126 2A       		.sleb128 42
 2294 0127 08       		.uleb128 0x8
 2295 0128 14260000 		.4byte	.LASF34
 2296 012c 2B       		.sleb128 43
 2297 012d 08       		.uleb128 0x8
 2298 012e 123A0000 		.4byte	.LASF35
ARM GAS  C:\Users\Herry\AppData\Local\Temp\ccuIEJCt.s 			page 56


 2299 0132 2C       		.sleb128 44
 2300 0133 08       		.uleb128 0x8
 2301 0134 7F010000 		.4byte	.LASF36
 2302 0138 2D       		.sleb128 45
 2303 0139 08       		.uleb128 0x8
 2304 013a 04330000 		.4byte	.LASF37
 2305 013e 2E       		.sleb128 46
 2306 013f 08       		.uleb128 0x8
 2307 0140 E1080000 		.4byte	.LASF38
 2308 0144 2F       		.sleb128 47
 2309 0145 08       		.uleb128 0x8
 2310 0146 A1100000 		.4byte	.LASF39
 2311 014a 30       		.sleb128 48
 2312 014b 08       		.uleb128 0x8
 2313 014c E3200000 		.4byte	.LASF40
 2314 0150 31       		.sleb128 49
 2315 0151 08       		.uleb128 0x8
 2316 0152 82110000 		.4byte	.LASF41
 2317 0156 32       		.sleb128 50
 2318 0157 08       		.uleb128 0x8
 2319 0158 4D0F0000 		.4byte	.LASF42
 2320 015c 33       		.sleb128 51
 2321 015d 08       		.uleb128 0x8
 2322 015e 5C340000 		.4byte	.LASF43
 2323 0162 C000     		.sleb128 64
 2324 0164 08       		.uleb128 0x8
 2325 0165 C8020000 		.4byte	.LASF44
 2326 0169 C100     		.sleb128 65
 2327 016b 08       		.uleb128 0x8
 2328 016c 523C0000 		.4byte	.LASF45
 2329 0170 C200     		.sleb128 66
 2330 0172 08       		.uleb128 0x8
 2331 0173 FD290000 		.4byte	.LASF46
 2332 0177 C300     		.sleb128 67
 2333 0179 08       		.uleb128 0x8
 2334 017a 840E0000 		.4byte	.LASF47
 2335 017e C400     		.sleb128 68
 2336 0180 08       		.uleb128 0x8
 2337 0181 180E0000 		.4byte	.LASF48
 2338 0185 C500     		.sleb128 69
 2339 0187 08       		.uleb128 0x8
 2340 0188 A22F0000 		.4byte	.LASF49
 2341 018c C600     		.sleb128 70
 2342 018e 08       		.uleb128 0x8
 2343 018f 842F0000 		.4byte	.LASF50
 2344 0193 C700     		.sleb128 71
 2345 0195 08       		.uleb128 0x8
 2346 0196 55100000 		.4byte	.LASF51
 2347 019a C800     		.sleb128 72
 2348 019c 08       		.uleb128 0x8
 2349 019d 64270000 		.4byte	.LASF52
 2350 01a1 C900     		.sleb128 73
 2351 01a3 08       		.uleb128 0x8
 2352 01a4 E3110000 		.4byte	.LASF53
 2353 01a8 CA00     		.sleb128 74
 2354 01aa 08       		.uleb128 0x8
 2355 01ab 2E110000 		.4byte	.LASF54
ARM GAS  C:\Users\Herry\AppData\Local\Temp\ccuIEJCt.s 			page 57


 2356 01af CB00     		.sleb128 75
 2357 01b1 08       		.uleb128 0x8
 2358 01b2 6E260000 		.4byte	.LASF55
 2359 01b6 CC00     		.sleb128 76
 2360 01b8 08       		.uleb128 0x8
 2361 01b9 34310000 		.4byte	.LASF56
 2362 01bd CD00     		.sleb128 77
 2363 01bf 08       		.uleb128 0x8
 2364 01c0 0E0A0000 		.4byte	.LASF57
 2365 01c4 CE00     		.sleb128 78
 2366 01c6 08       		.uleb128 0x8
 2367 01c7 B6230000 		.4byte	.LASF58
 2368 01cb CF00     		.sleb128 79
 2369 01cd 08       		.uleb128 0x8
 2370 01ce 66350000 		.4byte	.LASF59
 2371 01d2 D000     		.sleb128 80
 2372 01d4 08       		.uleb128 0x8
 2373 01d5 47120000 		.4byte	.LASF60
 2374 01d9 D100     		.sleb128 81
 2375 01db 08       		.uleb128 0x8
 2376 01dc 89070000 		.4byte	.LASF61
 2377 01e0 D200     		.sleb128 82
 2378 01e2 08       		.uleb128 0x8
 2379 01e3 ED380000 		.4byte	.LASF62
 2380 01e7 D300     		.sleb128 83
 2381 01e9 08       		.uleb128 0x8
 2382 01ea B93D0000 		.4byte	.LASF63
 2383 01ee D400     		.sleb128 84
 2384 01f0 08       		.uleb128 0x8
 2385 01f1 04060000 		.4byte	.LASF64
 2386 01f5 D500     		.sleb128 85
 2387 01f7 08       		.uleb128 0x8
 2388 01f8 40130000 		.4byte	.LASF65
 2389 01fc D600     		.sleb128 86
 2390 01fe 08       		.uleb128 0x8
 2391 01ff BE220000 		.4byte	.LASF66
 2392 0203 D700     		.sleb128 87
 2393 0205 08       		.uleb128 0x8
 2394 0206 383D0000 		.4byte	.LASF67
 2395 020a D800     		.sleb128 88
 2396 020c 08       		.uleb128 0x8
 2397 020d 5B3A0000 		.4byte	.LASF68
 2398 0211 F000     		.sleb128 112
 2399 0213 08       		.uleb128 0x8
 2400 0214 AB170000 		.4byte	.LASF69
 2401 0218 F100     		.sleb128 113
 2402 021a 08       		.uleb128 0x8
 2403 021b D80C0000 		.4byte	.LASF70
 2404 021f F200     		.sleb128 114
 2405 0221 08       		.uleb128 0x8
 2406 0222 48350000 		.4byte	.LASF71
 2407 0226 F300     		.sleb128 115
 2408 0228 08       		.uleb128 0x8
 2409 0229 D7270000 		.4byte	.LASF72
 2410 022d F400     		.sleb128 116
 2411 022f 08       		.uleb128 0x8
 2412 0230 FB1C0000 		.4byte	.LASF73
ARM GAS  C:\Users\Herry\AppData\Local\Temp\ccuIEJCt.s 			page 58


 2413 0234 F500     		.sleb128 117
 2414 0236 08       		.uleb128 0x8
 2415 0237 34100000 		.4byte	.LASF74
 2416 023b F600     		.sleb128 118
 2417 023d 08       		.uleb128 0x8
 2418 023e 3F2C0000 		.4byte	.LASF75
 2419 0242 F700     		.sleb128 119
 2420 0244 08       		.uleb128 0x8
 2421 0245 28060000 		.4byte	.LASF76
 2422 0249 F800     		.sleb128 120
 2423 024b 08       		.uleb128 0x8
 2424 024c 740F0000 		.4byte	.LASF77
 2425 0250 F900     		.sleb128 121
 2426 0252 08       		.uleb128 0x8
 2427 0253 963C0000 		.4byte	.LASF78
 2428 0257 FA00     		.sleb128 122
 2429 0259 08       		.uleb128 0x8
 2430 025a 26200000 		.4byte	.LASF79
 2431 025e FA01     		.sleb128 250
 2432 0260 08       		.uleb128 0x8
 2433 0261 01380000 		.4byte	.LASF80
 2434 0265 FB01     		.sleb128 251
 2435 0267 08       		.uleb128 0x8
 2436 0268 06260000 		.4byte	.LASF81
 2437 026c FF01     		.sleb128 255
 2438 026e 00       		.byte	0
 2439 026f 07       		.uleb128 0x7
 2440 0270 02       		.byte	0x2
 2441 0271 03       		.byte	0x3
 2442 0272 FF02     		.2byte	0x2ff
 2443 0274 3F030000 		.4byte	0x33f
 2444 0278 08       		.uleb128 0x8
 2445 0279 FC0D0000 		.4byte	.LASF82
 2446 027d 00       		.sleb128 0
 2447 027e 08       		.uleb128 0x8
 2448 027f D8140000 		.4byte	.LASF83
 2449 0283 01       		.sleb128 1
 2450 0284 08       		.uleb128 0x8
 2451 0285 1F3C0000 		.4byte	.LASF84
 2452 0289 02       		.sleb128 2
 2453 028a 08       		.uleb128 0x8
 2454 028b 24160000 		.4byte	.LASF85
 2455 028f 03       		.sleb128 3
 2456 0290 08       		.uleb128 0x8
 2457 0291 8B190000 		.4byte	.LASF86
 2458 0295 04       		.sleb128 4
 2459 0296 08       		.uleb128 0x8
 2460 0297 991F0000 		.4byte	.LASF87
 2461 029b 05       		.sleb128 5
 2462 029c 08       		.uleb128 0x8
 2463 029d A0370000 		.4byte	.LASF88
 2464 02a1 06       		.sleb128 6
 2465 02a2 08       		.uleb128 0x8
 2466 02a3 C6110000 		.4byte	.LASF89
 2467 02a7 07       		.sleb128 7
 2468 02a8 08       		.uleb128 0x8
 2469 02a9 99210000 		.4byte	.LASF90
ARM GAS  C:\Users\Herry\AppData\Local\Temp\ccuIEJCt.s 			page 59


 2470 02ad 08       		.sleb128 8
 2471 02ae 08       		.uleb128 0x8
 2472 02af 61360000 		.4byte	.LASF91
 2473 02b3 09       		.sleb128 9
 2474 02b4 08       		.uleb128 0x8
 2475 02b5 543E0000 		.4byte	.LASF92
 2476 02b9 0A       		.sleb128 10
 2477 02ba 08       		.uleb128 0x8
 2478 02bb 20080000 		.4byte	.LASF93
 2479 02bf 0B       		.sleb128 11
 2480 02c0 08       		.uleb128 0x8
 2481 02c1 60390000 		.4byte	.LASF94
 2482 02c5 0C       		.sleb128 12
 2483 02c6 08       		.uleb128 0x8
 2484 02c7 49250000 		.4byte	.LASF95
 2485 02cb 0D       		.sleb128 13
 2486 02cc 08       		.uleb128 0x8
 2487 02cd 3D1B0000 		.4byte	.LASF96
 2488 02d1 0E       		.sleb128 14
 2489 02d2 08       		.uleb128 0x8
 2490 02d3 741F0000 		.4byte	.LASF97
 2491 02d7 0F       		.sleb128 15
 2492 02d8 08       		.uleb128 0x8
 2493 02d9 4E050000 		.4byte	.LASF98
 2494 02dd 10       		.sleb128 16
 2495 02de 08       		.uleb128 0x8
 2496 02df 51210000 		.4byte	.LASF99
 2497 02e3 11       		.sleb128 17
 2498 02e4 08       		.uleb128 0x8
 2499 02e5 1E0B0000 		.4byte	.LASF100
 2500 02e9 12       		.sleb128 18
 2501 02ea 08       		.uleb128 0x8
 2502 02eb 450D0000 		.4byte	.LASF101
 2503 02ef 13       		.sleb128 19
 2504 02f0 08       		.uleb128 0x8
 2505 02f1 E11F0000 		.4byte	.LASF102
 2506 02f5 27       		.sleb128 39
 2507 02f6 08       		.uleb128 0x8
 2508 02f7 73220000 		.4byte	.LASF103
 2509 02fb 28       		.sleb128 40
 2510 02fc 08       		.uleb128 0x8
 2511 02fd AB050000 		.4byte	.LASF104
 2512 0301 29       		.sleb128 41
 2513 0302 08       		.uleb128 0x8
 2514 0303 C6330000 		.4byte	.LASF105
 2515 0307 2A       		.sleb128 42
 2516 0308 08       		.uleb128 0x8
 2517 0309 C51A0000 		.4byte	.LASF106
 2518 030d 2B       		.sleb128 43
 2519 030e 08       		.uleb128 0x8
 2520 030f 0F2D0000 		.4byte	.LASF107
 2521 0313 2C       		.sleb128 44
 2522 0314 08       		.uleb128 0x8
 2523 0315 BC140000 		.4byte	.LASF108
 2524 0319 FE01     		.sleb128 254
 2525 031b 08       		.uleb128 0x8
 2526 031c 78170000 		.4byte	.LASF109
ARM GAS  C:\Users\Herry\AppData\Local\Temp\ccuIEJCt.s 			page 60


 2527 0320 FF01     		.sleb128 255
 2528 0322 08       		.uleb128 0x8
 2529 0323 3E270000 		.4byte	.LASF110
 2530 0327 8002     		.sleb128 256
 2531 0329 08       		.uleb128 0x8
 2532 032a 25270000 		.4byte	.LASF111
 2533 032e 8102     		.sleb128 257
 2534 0330 08       		.uleb128 0x8
 2535 0331 290C0000 		.4byte	.LASF112
 2536 0335 8202     		.sleb128 258
 2537 0337 08       		.uleb128 0x8
 2538 0338 092C0000 		.4byte	.LASF113
 2539 033c 8302     		.sleb128 259
 2540 033e 00       		.byte	0
 2541 033f 04       		.uleb128 0x4
 2542 0340 20380000 		.4byte	.LASF114
 2543 0344 03       		.byte	0x3
 2544 0345 6B03     		.2byte	0x36b
 2545 0347 6F020000 		.4byte	0x26f
 2546 034b 09       		.uleb128 0x9
 2547 034c 04       		.byte	0x4
 2548 034d 6B000000 		.4byte	0x6b
 2549 0351 0A       		.uleb128 0xa
 2550 0352 01       		.byte	0x1
 2551 0353 04       		.byte	0x4
 2552 0354 AB       		.byte	0xab
 2553 0355 52040000 		.4byte	0x452
 2554 0359 08       		.uleb128 0x8
 2555 035a 5E2C0000 		.4byte	.LASF115
 2556 035e 00       		.sleb128 0
 2557 035f 08       		.uleb128 0x8
 2558 0360 8F2B0000 		.4byte	.LASF116
 2559 0364 01       		.sleb128 1
 2560 0365 08       		.uleb128 0x8
 2561 0366 CC040000 		.4byte	.LASF117
 2562 036a 02       		.sleb128 2
 2563 036b 08       		.uleb128 0x8
 2564 036c 073B0000 		.4byte	.LASF118
 2565 0370 03       		.sleb128 3
 2566 0371 08       		.uleb128 0x8
 2567 0372 020C0000 		.4byte	.LASF119
 2568 0376 04       		.sleb128 4
 2569 0377 08       		.uleb128 0x8
 2570 0378 E2230000 		.4byte	.LASF120
 2571 037c 05       		.sleb128 5
 2572 037d 08       		.uleb128 0x8
 2573 037e 37340000 		.4byte	.LASF121
 2574 0382 06       		.sleb128 6
 2575 0383 08       		.uleb128 0x8
 2576 0384 97270000 		.4byte	.LASF122
 2577 0388 07       		.sleb128 7
 2578 0389 08       		.uleb128 0x8
 2579 038a 0B230000 		.4byte	.LASF123
 2580 038e 08       		.sleb128 8
 2581 038f 08       		.uleb128 0x8
 2582 0390 2A1F0000 		.4byte	.LASF124
 2583 0394 09       		.sleb128 9
ARM GAS  C:\Users\Herry\AppData\Local\Temp\ccuIEJCt.s 			page 61


 2584 0395 08       		.uleb128 0x8
 2585 0396 93250000 		.4byte	.LASF125
 2586 039a 0A       		.sleb128 10
 2587 039b 08       		.uleb128 0x8
 2588 039c C0120000 		.4byte	.LASF126
 2589 03a0 0B       		.sleb128 11
 2590 03a1 08       		.uleb128 0x8
 2591 03a2 44200000 		.4byte	.LASF127
 2592 03a6 0C       		.sleb128 12
 2593 03a7 08       		.uleb128 0x8
 2594 03a8 0D0D0000 		.4byte	.LASF128
 2595 03ac 0D       		.sleb128 13
 2596 03ad 08       		.uleb128 0x8
 2597 03ae 64110000 		.4byte	.LASF129
 2598 03b2 0E       		.sleb128 14
 2599 03b3 08       		.uleb128 0x8
 2600 03b4 3D3B0000 		.4byte	.LASF130
 2601 03b8 0F       		.sleb128 15
 2602 03b9 08       		.uleb128 0x8
 2603 03ba 28050000 		.4byte	.LASF131
 2604 03be 10       		.sleb128 16
 2605 03bf 08       		.uleb128 0x8
 2606 03c0 EE040000 		.4byte	.LASF132
 2607 03c4 11       		.sleb128 17
 2608 03c5 08       		.uleb128 0x8
 2609 03c6 66120000 		.4byte	.LASF133
 2610 03ca 8001     		.sleb128 128
 2611 03cc 08       		.uleb128 0x8
 2612 03cd 99180000 		.4byte	.LASF134
 2613 03d1 8001     		.sleb128 128
 2614 03d3 08       		.uleb128 0x8
 2615 03d4 E3330000 		.4byte	.LASF135
 2616 03d8 8001     		.sleb128 128
 2617 03da 08       		.uleb128 0x8
 2618 03db 4A2D0000 		.4byte	.LASF136
 2619 03df 8001     		.sleb128 128
 2620 03e1 08       		.uleb128 0x8
 2621 03e2 EF240000 		.4byte	.LASF137
 2622 03e6 8001     		.sleb128 128
 2623 03e8 08       		.uleb128 0x8
 2624 03e9 D4190000 		.4byte	.LASF138
 2625 03ed 8001     		.sleb128 128
 2626 03ef 08       		.uleb128 0x8
 2627 03f0 EE2B0000 		.4byte	.LASF139
 2628 03f4 8001     		.sleb128 128
 2629 03f6 08       		.uleb128 0x8
 2630 03f7 13170000 		.4byte	.LASF140
 2631 03fb 8101     		.sleb128 129
 2632 03fd 08       		.uleb128 0x8
 2633 03fe 30300000 		.4byte	.LASF141
 2634 0402 8101     		.sleb128 129
 2635 0404 08       		.uleb128 0x8
 2636 0405 59000000 		.4byte	.LASF142
 2637 0409 8101     		.sleb128 129
 2638 040b 08       		.uleb128 0x8
 2639 040c 890B0000 		.4byte	.LASF143
 2640 0410 8101     		.sleb128 129
ARM GAS  C:\Users\Herry\AppData\Local\Temp\ccuIEJCt.s 			page 62


 2641 0412 08       		.uleb128 0x8
 2642 0413 13090000 		.4byte	.LASF144
 2643 0417 8201     		.sleb128 130
 2644 0419 08       		.uleb128 0x8
 2645 041a F9360000 		.4byte	.LASF145
 2646 041e A001     		.sleb128 160
 2647 0420 08       		.uleb128 0x8
 2648 0421 9D1B0000 		.4byte	.LASF146
 2649 0425 A001     		.sleb128 160
 2650 0427 08       		.uleb128 0x8
 2651 0428 5E090000 		.4byte	.LASF147
 2652 042c A101     		.sleb128 161
 2653 042e 08       		.uleb128 0x8
 2654 042f 3B360000 		.4byte	.LASF148
 2655 0433 A201     		.sleb128 162
 2656 0435 08       		.uleb128 0x8
 2657 0436 A1130000 		.4byte	.LASF149
 2658 043a A301     		.sleb128 163
 2659 043c 08       		.uleb128 0x8
 2660 043d 61190000 		.4byte	.LASF150
 2661 0441 FD01     		.sleb128 253
 2662 0443 08       		.uleb128 0x8
 2663 0444 92200000 		.4byte	.LASF151
 2664 0448 FE01     		.sleb128 254
 2665 044a 08       		.uleb128 0x8
 2666 044b 68280000 		.4byte	.LASF152
 2667 044f FF01     		.sleb128 255
 2668 0451 00       		.byte	0
 2669 0452 04       		.uleb128 0x4
 2670 0453 25360000 		.4byte	.LASF153
 2671 0457 04       		.byte	0x4
 2672 0458 6201     		.2byte	0x162
 2673 045a 51030000 		.4byte	0x351
 2674 045e 04       		.uleb128 0x4
 2675 045f 232C0000 		.4byte	.LASF154
 2676 0463 04       		.byte	0x4
 2677 0464 9201     		.2byte	0x192
 2678 0466 77000000 		.4byte	0x77
 2679 046a 0B       		.uleb128 0xb
 2680 046b 02       		.byte	0x2
 2681 046c 04       		.byte	0x4
 2682 046d 9C01     		.2byte	0x19c
 2683 046f 8E040000 		.4byte	0x48e
 2684 0473 0C       		.uleb128 0xc
 2685 0474 0A090000 		.4byte	.LASF155
 2686 0478 04       		.byte	0x4
 2687 0479 A301     		.2byte	0x1a3
 2688 047b 6B000000 		.4byte	0x6b
 2689 047f 00       		.byte	0
 2690 0480 0C       		.uleb128 0xc
 2691 0481 193C0000 		.4byte	.LASF156
 2692 0485 04       		.byte	0x4
 2693 0486 A901     		.2byte	0x1a9
 2694 0488 6B000000 		.4byte	0x6b
 2695 048c 01       		.byte	0x1
 2696 048d 00       		.byte	0
 2697 048e 04       		.uleb128 0x4
ARM GAS  C:\Users\Herry\AppData\Local\Temp\ccuIEJCt.s 			page 63


 2698 048f E9070000 		.4byte	.LASF157
 2699 0493 04       		.byte	0x4
 2700 0494 AB01     		.2byte	0x1ab
 2701 0496 6A040000 		.4byte	0x46a
 2702 049a 0B       		.uleb128 0xb
 2703 049b 08       		.byte	0x8
 2704 049c 04       		.byte	0x4
 2705 049d C701     		.2byte	0x1c7
 2706 049f CB040000 		.4byte	0x4cb
 2707 04a3 0D       		.uleb128 0xd
 2708 04a4 76616C00 		.ascii	"val\000"
 2709 04a8 04       		.byte	0x4
 2710 04a9 CA01     		.2byte	0x1ca
 2711 04ab 4B030000 		.4byte	0x34b
 2712 04af 00       		.byte	0
 2713 04b0 0D       		.uleb128 0xd
 2714 04b1 6C656E00 		.ascii	"len\000"
 2715 04b5 04       		.byte	0x4
 2716 04b6 CD01     		.2byte	0x1cd
 2717 04b8 77000000 		.4byte	0x77
 2718 04bc 04       		.byte	0x4
 2719 04bd 0C       		.uleb128 0xc
 2720 04be AD3B0000 		.4byte	.LASF158
 2721 04c2 04       		.byte	0x4
 2722 04c3 D401     		.2byte	0x1d4
 2723 04c5 77000000 		.4byte	0x77
 2724 04c9 06       		.byte	0x6
 2725 04ca 00       		.byte	0
 2726 04cb 04       		.uleb128 0x4
 2727 04cc 4B060000 		.4byte	.LASF159
 2728 04d0 04       		.byte	0x4
 2729 04d1 D601     		.2byte	0x1d6
 2730 04d3 9A040000 		.4byte	0x49a
 2731 04d7 0B       		.uleb128 0xb
 2732 04d8 0C       		.byte	0xc
 2733 04d9 04       		.byte	0x4
 2734 04da D901     		.2byte	0x1d9
 2735 04dc FB040000 		.4byte	0x4fb
 2736 04e0 0C       		.uleb128 0xc
 2737 04e1 722C0000 		.4byte	.LASF160
 2738 04e5 04       		.byte	0x4
 2739 04e6 DC01     		.2byte	0x1dc
 2740 04e8 CB040000 		.4byte	0x4cb
 2741 04ec 00       		.byte	0
 2742 04ed 0C       		.uleb128 0xc
 2743 04ee 40230000 		.4byte	.LASF161
 2744 04f2 04       		.byte	0x4
 2745 04f3 DF01     		.2byte	0x1df
 2746 04f5 5E040000 		.4byte	0x45e
 2747 04f9 08       		.byte	0x8
 2748 04fa 00       		.byte	0
 2749 04fb 04       		.uleb128 0x4
 2750 04fc 650C0000 		.4byte	.LASF162
 2751 0500 04       		.byte	0x4
 2752 0501 E101     		.2byte	0x1e1
 2753 0503 D7040000 		.4byte	0x4d7
 2754 0507 0E       		.uleb128 0xe
ARM GAS  C:\Users\Herry\AppData\Local\Temp\ccuIEJCt.s 			page 64


 2755 0508 B4000000 		.4byte	.LASF163
 2756 050c 05       		.byte	0x5
 2757 050d 34       		.byte	0x34
 2758 050e FB040000 		.4byte	0x4fb
 2759 0512 0F       		.uleb128 0xf
 2760 0513 10       		.byte	0x10
 2761 0514 05       		.byte	0x5
 2762 0515 8A       		.byte	0x8a
 2763 0516 33050000 		.4byte	0x533
 2764 051a 10       		.uleb128 0x10
 2765 051b BB2E0000 		.4byte	.LASF164
 2766 051f 05       		.byte	0x5
 2767 0520 8D       		.byte	0x8d
 2768 0521 8E040000 		.4byte	0x48e
 2769 0525 00       		.byte	0
 2770 0526 10       		.uleb128 0x10
 2771 0527 7E330000 		.4byte	.LASF165
 2772 052b 05       		.byte	0x5
 2773 052c 90       		.byte	0x90
 2774 052d FB040000 		.4byte	0x4fb
 2775 0531 04       		.byte	0x4
 2776 0532 00       		.byte	0
 2777 0533 0E       		.uleb128 0xe
 2778 0534 8B230000 		.4byte	.LASF166
 2779 0538 05       		.byte	0x5
 2780 0539 92       		.byte	0x92
 2781 053a 12050000 		.4byte	0x512
 2782 053e 0F       		.uleb128 0xf
 2783 053f 08       		.byte	0x8
 2784 0540 06       		.byte	0x6
 2785 0541 C3       		.byte	0xc3
 2786 0542 5F050000 		.4byte	0x55f
 2787 0546 10       		.uleb128 0x10
 2788 0547 C62E0000 		.4byte	.LASF167
 2789 054b 06       		.byte	0x6
 2790 054c C6       		.byte	0xc6
 2791 054d 77000000 		.4byte	0x77
 2792 0551 00       		.byte	0
 2793 0552 10       		.uleb128 0x10
 2794 0553 AA320000 		.4byte	.LASF168
 2795 0557 06       		.byte	0x6
 2796 0558 CB       		.byte	0xcb
 2797 0559 B0000000 		.4byte	0xb0
 2798 055d 04       		.byte	0x4
 2799 055e 00       		.byte	0
 2800 055f 0E       		.uleb128 0xe
 2801 0560 0D280000 		.4byte	.LASF169
 2802 0564 06       		.byte	0x6
 2803 0565 CD       		.byte	0xcd
 2804 0566 3E050000 		.4byte	0x53e
 2805 056a 0F       		.uleb128 0xf
 2806 056b 08       		.byte	0x8
 2807 056c 06       		.byte	0x6
 2808 056d D0       		.byte	0xd0
 2809 056e 8B050000 		.4byte	0x58b
 2810 0572 10       		.uleb128 0x10
 2811 0573 EC100000 		.4byte	.LASF170
ARM GAS  C:\Users\Herry\AppData\Local\Temp\ccuIEJCt.s 			page 65


 2812 0577 06       		.byte	0x6
 2813 0578 D3       		.byte	0xd3
 2814 0579 77000000 		.4byte	0x77
 2815 057d 00       		.byte	0
 2816 057e 10       		.uleb128 0x10
 2817 057f A6330000 		.4byte	.LASF171
 2818 0583 06       		.byte	0x6
 2819 0584 D8       		.byte	0xd8
 2820 0585 8B050000 		.4byte	0x58b
 2821 0589 04       		.byte	0x4
 2822 058a 00       		.byte	0
 2823 058b 09       		.uleb128 0x9
 2824 058c 04       		.byte	0x4
 2825 058d 5F050000 		.4byte	0x55f
 2826 0591 0E       		.uleb128 0xe
 2827 0592 FE310000 		.4byte	.LASF172
 2828 0596 06       		.byte	0x6
 2829 0597 DA       		.byte	0xda
 2830 0598 6A050000 		.4byte	0x56a
 2831 059c 11       		.uleb128 0x11
 2832 059d 08       		.byte	0x8
 2833 059e 06       		.byte	0x6
 2834 059f DD       		.byte	0xdd
 2835 05a0 BB050000 		.4byte	0x5bb
 2836 05a4 12       		.uleb128 0x12
 2837 05a5 B7330000 		.4byte	.LASF173
 2838 05a9 06       		.byte	0x6
 2839 05aa E4       		.byte	0xe4
 2840 05ab 91050000 		.4byte	0x591
 2841 05af 12       		.uleb128 0x12
 2842 05b0 901B0000 		.4byte	.LASF174
 2843 05b4 06       		.byte	0x6
 2844 05b5 E7       		.byte	0xe7
 2845 05b6 77000000 		.4byte	0x77
 2846 05ba 00       		.byte	0
 2847 05bb 0E       		.uleb128 0xe
 2848 05bc AC310000 		.4byte	.LASF175
 2849 05c0 06       		.byte	0x6
 2850 05c1 E9       		.byte	0xe9
 2851 05c2 9C050000 		.4byte	0x59c
 2852 05c6 0F       		.uleb128 0xf
 2853 05c7 14       		.byte	0x14
 2854 05c8 06       		.byte	0x6
 2855 05c9 EC       		.byte	0xec
 2856 05ca 0D060000 		.4byte	0x60d
 2857 05ce 10       		.uleb128 0x10
 2858 05cf 970F0000 		.4byte	.LASF176
 2859 05d3 06       		.byte	0x6
 2860 05d4 EF       		.byte	0xef
 2861 05d5 77000000 		.4byte	0x77
 2862 05d9 00       		.byte	0
 2863 05da 10       		.uleb128 0x10
 2864 05db 840C0000 		.4byte	.LASF177
 2865 05df 06       		.byte	0x6
 2866 05e0 F5       		.byte	0xf5
 2867 05e1 77000000 		.4byte	0x77
 2868 05e5 02       		.byte	0x2
ARM GAS  C:\Users\Herry\AppData\Local\Temp\ccuIEJCt.s 			page 66


 2869 05e6 10       		.uleb128 0x10
 2870 05e7 81060000 		.4byte	.LASF178
 2871 05eb 06       		.byte	0x6
 2872 05ec FF       		.byte	0xff
 2873 05ed 83000000 		.4byte	0x83
 2874 05f1 04       		.byte	0x4
 2875 05f2 0C       		.uleb128 0xc
 2876 05f3 D5230000 		.4byte	.LASF179
 2877 05f7 06       		.byte	0x6
 2878 05f8 0201     		.2byte	0x102
 2879 05fa 77000000 		.4byte	0x77
 2880 05fe 08       		.byte	0x8
 2881 05ff 0C       		.uleb128 0xc
 2882 0600 B82C0000 		.4byte	.LASF180
 2883 0604 06       		.byte	0x6
 2884 0605 0B01     		.2byte	0x10b
 2885 0607 BB050000 		.4byte	0x5bb
 2886 060b 0C       		.byte	0xc
 2887 060c 00       		.byte	0
 2888 060d 04       		.uleb128 0x4
 2889 060e FF130000 		.4byte	.LASF181
 2890 0612 06       		.byte	0x6
 2891 0613 0C01     		.2byte	0x10c
 2892 0615 C6050000 		.4byte	0x5c6
 2893 0619 04       		.uleb128 0x4
 2894 061a 2E070000 		.4byte	.LASF182
 2895 061e 07       		.byte	0x7
 2896 061f E801     		.2byte	0x1e8
 2897 0621 25060000 		.4byte	0x625
 2898 0625 09       		.uleb128 0x9
 2899 0626 04       		.byte	0x4
 2900 0627 2B060000 		.4byte	0x62b
 2901 062b 13       		.uleb128 0x13
 2902 062c 3B060000 		.4byte	0x63b
 2903 0630 14       		.uleb128 0x14
 2904 0631 83000000 		.4byte	0x83
 2905 0635 14       		.uleb128 0x14
 2906 0636 B0000000 		.4byte	0xb0
 2907 063a 00       		.byte	0
 2908 063b 09       		.uleb128 0x9
 2909 063c 04       		.byte	0x4
 2910 063d CB040000 		.4byte	0x4cb
 2911 0641 0A       		.uleb128 0xa
 2912 0642 01       		.byte	0x1
 2913 0643 08       		.byte	0x8
 2914 0644 22       		.byte	0x22
 2915 0645 86060000 		.4byte	0x686
 2916 0649 08       		.uleb128 0x8
 2917 064a 072B0000 		.4byte	.LASF183
 2918 064e 00       		.sleb128 0
 2919 064f 08       		.uleb128 0x8
 2920 0650 C3130000 		.4byte	.LASF184
 2921 0654 01       		.sleb128 1
 2922 0655 08       		.uleb128 0x8
 2923 0656 5A1C0000 		.4byte	.LASF185
 2924 065a 02       		.sleb128 2
 2925 065b 08       		.uleb128 0x8
ARM GAS  C:\Users\Herry\AppData\Local\Temp\ccuIEJCt.s 			page 67


 2926 065c 410B0000 		.4byte	.LASF186
 2927 0660 03       		.sleb128 3
 2928 0661 08       		.uleb128 0x8
 2929 0662 72070000 		.4byte	.LASF187
 2930 0666 04       		.sleb128 4
 2931 0667 08       		.uleb128 0x8
 2932 0668 29130000 		.4byte	.LASF188
 2933 066c 05       		.sleb128 5
 2934 066d 08       		.uleb128 0x8
 2935 066e 6A140000 		.4byte	.LASF189
 2936 0672 06       		.sleb128 6
 2937 0673 08       		.uleb128 0x8
 2938 0674 78240000 		.4byte	.LASF190
 2939 0678 07       		.sleb128 7
 2940 0679 08       		.uleb128 0x8
 2941 067a D41E0000 		.4byte	.LASF191
 2942 067e 08       		.sleb128 8
 2943 067f 08       		.uleb128 0x8
 2944 0680 74000000 		.4byte	.LASF192
 2945 0684 09       		.sleb128 9
 2946 0685 00       		.byte	0
 2947 0686 0A       		.uleb128 0xa
 2948 0687 01       		.byte	0x1
 2949 0688 09       		.byte	0x9
 2950 0689 4E       		.byte	0x4e
 2951 068a D1060000 		.4byte	0x6d1
 2952 068e 08       		.uleb128 0x8
 2953 068f 77390000 		.4byte	.LASF193
 2954 0693 00       		.sleb128 0
 2955 0694 08       		.uleb128 0x8
 2956 0695 971D0000 		.4byte	.LASF194
 2957 0699 01       		.sleb128 1
 2958 069a 08       		.uleb128 0x8
 2959 069b 371D0000 		.4byte	.LASF195
 2960 069f 02       		.sleb128 2
 2961 06a0 08       		.uleb128 0x8
 2962 06a1 91080000 		.4byte	.LASF196
 2963 06a5 03       		.sleb128 3
 2964 06a6 08       		.uleb128 0x8
 2965 06a7 D1170000 		.4byte	.LASF197
 2966 06ab 04       		.sleb128 4
 2967 06ac 08       		.uleb128 0x8
 2968 06ad 9D2E0000 		.4byte	.LASF198
 2969 06b1 05       		.sleb128 5
 2970 06b2 08       		.uleb128 0x8
 2971 06b3 C4310000 		.4byte	.LASF199
 2972 06b7 06       		.sleb128 6
 2973 06b8 08       		.uleb128 0x8
 2974 06b9 33380000 		.4byte	.LASF200
 2975 06bd 07       		.sleb128 7
 2976 06be 08       		.uleb128 0x8
 2977 06bf C9060000 		.4byte	.LASF201
 2978 06c3 07       		.sleb128 7
 2979 06c4 08       		.uleb128 0x8
 2980 06c5 A73A0000 		.4byte	.LASF202
 2981 06c9 07       		.sleb128 7
 2982 06ca 08       		.uleb128 0x8
ARM GAS  C:\Users\Herry\AppData\Local\Temp\ccuIEJCt.s 			page 68


 2983 06cb 223D0000 		.4byte	.LASF203
 2984 06cf 08       		.sleb128 8
 2985 06d0 00       		.byte	0
 2986 06d1 0E       		.uleb128 0xe
 2987 06d2 16110000 		.4byte	.LASF204
 2988 06d6 09       		.byte	0x9
 2989 06d7 5B       		.byte	0x5b
 2990 06d8 86060000 		.4byte	0x686
 2991 06dc 0A       		.uleb128 0xa
 2992 06dd 01       		.byte	0x1
 2993 06de 09       		.byte	0x9
 2994 06df 5F       		.byte	0x5f
 2995 06e0 FD060000 		.4byte	0x6fd
 2996 06e4 08       		.uleb128 0x8
 2997 06e5 82210000 		.4byte	.LASF205
 2998 06e9 00       		.sleb128 0
 2999 06ea 08       		.uleb128 0x8
 3000 06eb 402A0000 		.4byte	.LASF206
 3001 06ef 01       		.sleb128 1
 3002 06f0 08       		.uleb128 0x8
 3003 06f1 85370000 		.4byte	.LASF207
 3004 06f5 02       		.sleb128 2
 3005 06f6 08       		.uleb128 0x8
 3006 06f7 61170000 		.4byte	.LASF208
 3007 06fb 03       		.sleb128 3
 3008 06fc 00       		.byte	0
 3009 06fd 0E       		.uleb128 0xe
 3010 06fe 1B3F0000 		.4byte	.LASF209
 3011 0702 09       		.byte	0x9
 3012 0703 64       		.byte	0x64
 3013 0704 DC060000 		.4byte	0x6dc
 3014 0708 0F       		.uleb128 0xf
 3015 0709 06       		.byte	0x6
 3016 070a 09       		.byte	0x9
 3017 070b 7E       		.byte	0x7e
 3018 070c 35070000 		.4byte	0x735
 3019 0710 10       		.uleb128 0x10
 3020 0711 57270000 		.4byte	.LASF210
 3021 0715 09       		.byte	0x9
 3022 0716 80       		.byte	0x80
 3023 0717 5E040000 		.4byte	0x45e
 3024 071b 00       		.byte	0
 3025 071c 10       		.uleb128 0x10
 3026 071d B73B0000 		.4byte	.LASF211
 3027 0721 09       		.byte	0x9
 3028 0722 81       		.byte	0x81
 3029 0723 5E040000 		.4byte	0x45e
 3030 0727 02       		.byte	0x2
 3031 0728 10       		.uleb128 0x10
 3032 0729 FC250000 		.4byte	.LASF212
 3033 072d 09       		.byte	0x9
 3034 072e 82       		.byte	0x82
 3035 072f 5E040000 		.4byte	0x45e
 3036 0733 04       		.byte	0x4
 3037 0734 00       		.byte	0
 3038 0735 0E       		.uleb128 0xe
 3039 0736 13050000 		.4byte	.LASF213
ARM GAS  C:\Users\Herry\AppData\Local\Temp\ccuIEJCt.s 			page 69


 3040 073a 09       		.byte	0x9
 3041 073b 83       		.byte	0x83
 3042 073c 08070000 		.4byte	0x708
 3043 0740 0F       		.uleb128 0xf
 3044 0741 28       		.byte	0x28
 3045 0742 09       		.byte	0x9
 3046 0743 86       		.byte	0x86
 3047 0744 B5070000 		.4byte	0x7b5
 3048 0748 10       		.uleb128 0x10
 3049 0749 D00B0000 		.4byte	.LASF214
 3050 074d 09       		.byte	0x9
 3051 074e 88       		.byte	0x88
 3052 074f 5E040000 		.4byte	0x45e
 3053 0753 00       		.byte	0
 3054 0754 10       		.uleb128 0x10
 3055 0755 320D0000 		.4byte	.LASF215
 3056 0759 09       		.byte	0x9
 3057 075a 89       		.byte	0x89
 3058 075b 5E040000 		.4byte	0x45e
 3059 075f 02       		.byte	0x2
 3060 0760 10       		.uleb128 0x10
 3061 0761 E22B0000 		.4byte	.LASF216
 3062 0765 09       		.byte	0x9
 3063 0766 8A       		.byte	0x8a
 3064 0767 6B000000 		.4byte	0x6b
 3065 076b 04       		.byte	0x4
 3066 076c 10       		.uleb128 0x10
 3067 076d 971E0000 		.4byte	.LASF217
 3068 0771 09       		.byte	0x9
 3069 0772 8B       		.byte	0x8b
 3070 0773 B5070000 		.4byte	0x7b5
 3071 0777 08       		.byte	0x8
 3072 0778 10       		.uleb128 0x10
 3073 0779 FF2C0000 		.4byte	.LASF218
 3074 077d 09       		.byte	0x9
 3075 077e 8C       		.byte	0x8c
 3076 077f C0070000 		.4byte	0x7c0
 3077 0783 0C       		.byte	0xc
 3078 0784 10       		.uleb128 0x10
 3079 0785 643B0000 		.4byte	.LASF219
 3080 0789 09       		.byte	0x9
 3081 078a 8D       		.byte	0x8d
 3082 078b 5E040000 		.4byte	0x45e
 3083 078f 1E       		.byte	0x1e
 3084 0790 10       		.uleb128 0x10
 3085 0791 E51B0000 		.4byte	.LASF220
 3086 0795 09       		.byte	0x9
 3087 0796 8E       		.byte	0x8e
 3088 0797 5E040000 		.4byte	0x45e
 3089 079b 20       		.byte	0x20
 3090 079c 10       		.uleb128 0x10
 3091 079d 90240000 		.4byte	.LASF221
 3092 07a1 09       		.byte	0x9
 3093 07a2 8F       		.byte	0x8f
 3094 07a3 5E040000 		.4byte	0x45e
 3095 07a7 22       		.byte	0x22
 3096 07a8 10       		.uleb128 0x10
ARM GAS  C:\Users\Herry\AppData\Local\Temp\ccuIEJCt.s 			page 70


 3097 07a9 8A2E0000 		.4byte	.LASF222
 3098 07ad 09       		.byte	0x9
 3099 07ae 90       		.byte	0x90
 3100 07af 5E040000 		.4byte	0x45e
 3101 07b3 24       		.byte	0x24
 3102 07b4 00       		.byte	0
 3103 07b5 09       		.uleb128 0x9
 3104 07b6 04       		.byte	0x4
 3105 07b7 BB070000 		.4byte	0x7bb
 3106 07bb 15       		.uleb128 0x15
 3107 07bc 35070000 		.4byte	0x735
 3108 07c0 16       		.uleb128 0x16
 3109 07c1 35070000 		.4byte	0x735
 3110 07c5 D0070000 		.4byte	0x7d0
 3111 07c9 17       		.uleb128 0x17
 3112 07ca A9000000 		.4byte	0xa9
 3113 07ce 02       		.byte	0x2
 3114 07cf 00       		.byte	0
 3115 07d0 0E       		.uleb128 0xe
 3116 07d1 7C050000 		.4byte	.LASF223
 3117 07d5 09       		.byte	0x9
 3118 07d6 91       		.byte	0x91
 3119 07d7 40070000 		.4byte	0x740
 3120 07db 0F       		.uleb128 0xf
 3121 07dc 08       		.byte	0x8
 3122 07dd 09       		.byte	0x9
 3123 07de C9       		.byte	0xc9
 3124 07df 14080000 		.4byte	0x814
 3125 07e3 10       		.uleb128 0x10
 3126 07e4 BB2E0000 		.4byte	.LASF164
 3127 07e8 09       		.byte	0x9
 3128 07e9 CB       		.byte	0xcb
 3129 07ea 8E040000 		.4byte	0x48e
 3130 07ee 00       		.byte	0
 3131 07ef 10       		.uleb128 0x10
 3132 07f0 8C0C0000 		.4byte	.LASF224
 3133 07f4 09       		.byte	0x9
 3134 07f5 CC       		.byte	0xcc
 3135 07f6 6B000000 		.4byte	0x6b
 3136 07fa 02       		.byte	0x2
 3137 07fb 10       		.uleb128 0x10
 3138 07fc 30010000 		.4byte	.LASF225
 3139 0800 09       		.byte	0x9
 3140 0801 CD       		.byte	0xcd
 3141 0802 D1060000 		.4byte	0x6d1
 3142 0806 03       		.byte	0x3
 3143 0807 10       		.uleb128 0x10
 3144 0808 722C0000 		.4byte	.LASF160
 3145 080c 09       		.byte	0x9
 3146 080d CE       		.byte	0xce
 3147 080e 3B060000 		.4byte	0x63b
 3148 0812 04       		.byte	0x4
 3149 0813 00       		.byte	0
 3150 0814 0E       		.uleb128 0xe
 3151 0815 F5270000 		.4byte	.LASF226
 3152 0819 09       		.byte	0x9
 3153 081a CF       		.byte	0xcf
ARM GAS  C:\Users\Herry\AppData\Local\Temp\ccuIEJCt.s 			page 71


 3154 081b DB070000 		.4byte	0x7db
 3155 081f 0A       		.uleb128 0xa
 3156 0820 02       		.byte	0x2
 3157 0821 0A       		.byte	0xa
 3158 0822 AB       		.byte	0xab
 3159 0823 920F0000 		.4byte	0xf92
 3160 0827 08       		.uleb128 0x8
 3161 0828 26250000 		.4byte	.LASF227
 3162 082c 8002     		.sleb128 256
 3163 082e 08       		.uleb128 0x8
 3164 082f BA3C0000 		.4byte	.LASF228
 3165 0833 8102     		.sleb128 257
 3166 0835 08       		.uleb128 0x8
 3167 0836 E90A0000 		.4byte	.LASF229
 3168 083a 8202     		.sleb128 258
 3169 083c 08       		.uleb128 0x8
 3170 083d 703C0000 		.4byte	.LASF230
 3171 0841 8302     		.sleb128 259
 3172 0843 08       		.uleb128 0x8
 3173 0844 552B0000 		.4byte	.LASF231
 3174 0848 8402     		.sleb128 260
 3175 084a 08       		.uleb128 0x8
 3176 084b 61370000 		.4byte	.LASF232
 3177 084f 8502     		.sleb128 261
 3178 0851 08       		.uleb128 0x8
 3179 0852 A10F0000 		.4byte	.LASF233
 3180 0856 8602     		.sleb128 262
 3181 0858 08       		.uleb128 0x8
 3182 0859 DC340000 		.4byte	.LASF234
 3183 085d 8702     		.sleb128 263
 3184 085f 08       		.uleb128 0x8
 3185 0860 E13A0000 		.4byte	.LASF235
 3186 0864 8802     		.sleb128 264
 3187 0866 08       		.uleb128 0x8
 3188 0867 C7050000 		.4byte	.LASF236
 3189 086b 8902     		.sleb128 265
 3190 086d 08       		.uleb128 0x8
 3191 086e 0D030000 		.4byte	.LASF237
 3192 0872 8A02     		.sleb128 266
 3193 0874 08       		.uleb128 0x8
 3194 0875 762D0000 		.4byte	.LASF238
 3195 0879 8B02     		.sleb128 267
 3196 087b 08       		.uleb128 0x8
 3197 087c E51E0000 		.4byte	.LASF239
 3198 0880 8C02     		.sleb128 268
 3199 0882 08       		.uleb128 0x8
 3200 0883 DB290000 		.4byte	.LASF240
 3201 0887 8D02     		.sleb128 269
 3202 0889 08       		.uleb128 0x8
 3203 088a DC030000 		.4byte	.LASF241
 3204 088e 8E02     		.sleb128 270
 3205 0890 08       		.uleb128 0x8
 3206 0891 57010000 		.4byte	.LASF242
 3207 0895 8F02     		.sleb128 271
 3208 0897 08       		.uleb128 0x8
 3209 0898 C1070000 		.4byte	.LASF243
 3210 089c 9002     		.sleb128 272
ARM GAS  C:\Users\Herry\AppData\Local\Temp\ccuIEJCt.s 			page 72


 3211 089e 08       		.uleb128 0x8
 3212 089f 8B380000 		.4byte	.LASF244
 3213 08a3 9102     		.sleb128 273
 3214 08a5 08       		.uleb128 0x8
 3215 08a6 7C100000 		.4byte	.LASF245
 3216 08aa 9202     		.sleb128 274
 3217 08ac 08       		.uleb128 0x8
 3218 08ad 642E0000 		.4byte	.LASF246
 3219 08b1 9302     		.sleb128 275
 3220 08b3 08       		.uleb128 0x8
 3221 08b4 C23B0000 		.4byte	.LASF247
 3222 08b8 9402     		.sleb128 276
 3223 08ba 08       		.uleb128 0x8
 3224 08bb 8D320000 		.4byte	.LASF248
 3225 08bf 9502     		.sleb128 277
 3226 08c1 08       		.uleb128 0x8
 3227 08c2 7E0A0000 		.4byte	.LASF249
 3228 08c6 9602     		.sleb128 278
 3229 08c8 08       		.uleb128 0x8
 3230 08c9 303E0000 		.4byte	.LASF250
 3231 08cd 9702     		.sleb128 279
 3232 08cf 08       		.uleb128 0x8
 3233 08d0 E7220000 		.4byte	.LASF251
 3234 08d4 9802     		.sleb128 280
 3235 08d6 08       		.uleb128 0x8
 3236 08d7 10150000 		.4byte	.LASF252
 3237 08db 9902     		.sleb128 281
 3238 08dd 08       		.uleb128 0x8
 3239 08de 99340000 		.4byte	.LASF253
 3240 08e2 9A02     		.sleb128 282
 3241 08e4 08       		.uleb128 0x8
 3242 08e5 33260000 		.4byte	.LASF254
 3243 08e9 9B02     		.sleb128 283
 3244 08eb 08       		.uleb128 0x8
 3245 08ec 933E0000 		.4byte	.LASF255
 3246 08f0 9C02     		.sleb128 284
 3247 08f2 08       		.uleb128 0x8
 3248 08f3 24350000 		.4byte	.LASF256
 3249 08f7 9D02     		.sleb128 285
 3250 08f9 08       		.uleb128 0x8
 3251 08fa 5B3D0000 		.4byte	.LASF257
 3252 08fe 9E02     		.sleb128 286
 3253 0900 08       		.uleb128 0x8
 3254 0901 1B1B0000 		.4byte	.LASF258
 3255 0905 9F02     		.sleb128 287
 3256 0907 08       		.uleb128 0x8
 3257 0908 311E0000 		.4byte	.LASF259
 3258 090c A002     		.sleb128 288
 3259 090e 08       		.uleb128 0x8
 3260 090f A9040000 		.4byte	.LASF260
 3261 0913 A102     		.sleb128 289
 3262 0915 08       		.uleb128 0x8
 3263 0916 C12A0000 		.4byte	.LASF261
 3264 091a A202     		.sleb128 290
 3265 091c 08       		.uleb128 0x8
 3266 091d C11B0000 		.4byte	.LASF262
 3267 0921 A302     		.sleb128 291
ARM GAS  C:\Users\Herry\AppData\Local\Temp\ccuIEJCt.s 			page 73


 3268 0923 08       		.uleb128 0x8
 3269 0924 D32E0000 		.4byte	.LASF263
 3270 0928 A402     		.sleb128 292
 3271 092a 08       		.uleb128 0x8
 3272 092b 7F290000 		.4byte	.LASF264
 3273 092f A502     		.sleb128 293
 3274 0931 08       		.uleb128 0x8
 3275 0932 BB360000 		.4byte	.LASF265
 3276 0936 A602     		.sleb128 294
 3277 0938 08       		.uleb128 0x8
 3278 0939 C00D0000 		.4byte	.LASF266
 3279 093d A702     		.sleb128 295
 3280 093f 08       		.uleb128 0x8
 3281 0940 B8340000 		.4byte	.LASF267
 3282 0944 A802     		.sleb128 296
 3283 0946 08       		.uleb128 0x8
 3284 0947 F1160000 		.4byte	.LASF268
 3285 094b A902     		.sleb128 297
 3286 094d 08       		.uleb128 0x8
 3287 094e 52180000 		.4byte	.LASF269
 3288 0952 AA02     		.sleb128 298
 3289 0954 08       		.uleb128 0x8
 3290 0955 59030000 		.4byte	.LASF270
 3291 0959 AB02     		.sleb128 299
 3292 095b 08       		.uleb128 0x8
 3293 095c 7D030000 		.4byte	.LASF271
 3294 0960 AC02     		.sleb128 300
 3295 0962 08       		.uleb128 0x8
 3296 0963 92000000 		.4byte	.LASF272
 3297 0967 AD02     		.sleb128 301
 3298 0969 08       		.uleb128 0x8
 3299 096a 790D0000 		.4byte	.LASF273
 3300 096e AE02     		.sleb128 302
 3301 0970 08       		.uleb128 0x8
 3302 0971 DC3C0000 		.4byte	.LASF274
 3303 0975 AF02     		.sleb128 303
 3304 0977 08       		.uleb128 0x8
 3305 0978 F0060000 		.4byte	.LASF275
 3306 097c B002     		.sleb128 304
 3307 097e 08       		.uleb128 0x8
 3308 097f 55240000 		.4byte	.LASF276
 3309 0983 B102     		.sleb128 305
 3310 0985 08       		.uleb128 0x8
 3311 0986 45320000 		.4byte	.LASF277
 3312 098a B202     		.sleb128 306
 3313 098c 08       		.uleb128 0x8
 3314 098d 46140000 		.4byte	.LASF278
 3315 0991 B302     		.sleb128 307
 3316 0993 08       		.uleb128 0x8
 3317 0994 6E250000 		.4byte	.LASF279
 3318 0998 B402     		.sleb128 308
 3319 099a 08       		.uleb128 0x8
 3320 099b 9B160000 		.4byte	.LASF280
 3321 099f B502     		.sleb128 309
 3322 09a1 08       		.uleb128 0x8
 3323 09a2 12070000 		.4byte	.LASF281
 3324 09a6 B602     		.sleb128 310
ARM GAS  C:\Users\Herry\AppData\Local\Temp\ccuIEJCt.s 			page 74


 3325 09a8 08       		.uleb128 0x8
 3326 09a9 64020000 		.4byte	.LASF282
 3327 09ad B702     		.sleb128 311
 3328 09af 08       		.uleb128 0x8
 3329 09b0 82090000 		.4byte	.LASF283
 3330 09b4 B802     		.sleb128 312
 3331 09b6 08       		.uleb128 0x8
 3332 09b7 942C0000 		.4byte	.LASF284
 3333 09bb B902     		.sleb128 313
 3334 09bd 08       		.uleb128 0x8
 3335 09be 8C330000 		.4byte	.LASF285
 3336 09c2 BA02     		.sleb128 314
 3337 09c4 08       		.uleb128 0x8
 3338 09c5 A7080000 		.4byte	.LASF286
 3339 09c9 BB02     		.sleb128 315
 3340 09cb 08       		.uleb128 0x8
 3341 09cc 0D240000 		.4byte	.LASF287
 3342 09d0 BC02     		.sleb128 316
 3343 09d2 08       		.uleb128 0x8
 3344 09d3 DE370000 		.4byte	.LASF288
 3345 09d7 BD02     		.sleb128 317
 3346 09d9 08       		.uleb128 0x8
 3347 09da B71F0000 		.4byte	.LASF289
 3348 09de BE02     		.sleb128 318
 3349 09e0 08       		.uleb128 0x8
 3350 09e1 45380000 		.4byte	.LASF290
 3351 09e5 BF02     		.sleb128 319
 3352 09e7 08       		.uleb128 0x8
 3353 09e8 39090000 		.4byte	.LASF291
 3354 09ec C002     		.sleb128 320
 3355 09ee 08       		.uleb128 0x8
 3356 09ef 9E280000 		.4byte	.LASF292
 3357 09f3 C102     		.sleb128 321
 3358 09f5 08       		.uleb128 0x8
 3359 09f6 813A0000 		.4byte	.LASF293
 3360 09fa C202     		.sleb128 322
 3361 09fc 08       		.uleb128 0x8
 3362 09fd AE380000 		.4byte	.LASF294
 3363 0a01 C302     		.sleb128 323
 3364 0a03 08       		.uleb128 0x8
 3365 0a04 D3000000 		.4byte	.LASF295
 3366 0a08 C402     		.sleb128 324
 3367 0a0a 08       		.uleb128 0x8
 3368 0a0b 1A340000 		.4byte	.LASF296
 3369 0a0f C502     		.sleb128 325
 3370 0a11 08       		.uleb128 0x8
 3371 0a12 9B1C0000 		.4byte	.LASF297
 3372 0a16 C602     		.sleb128 326
 3373 0a18 08       		.uleb128 0x8
 3374 0a19 B8320000 		.4byte	.LASF298
 3375 0a1d C702     		.sleb128 327
 3376 0a1f 08       		.uleb128 0x8
 3377 0a20 E92F0000 		.4byte	.LASF299
 3378 0a24 C802     		.sleb128 328
 3379 0a26 08       		.uleb128 0x8
 3380 0a27 0F020000 		.4byte	.LASF300
 3381 0a2b C902     		.sleb128 329
ARM GAS  C:\Users\Herry\AppData\Local\Temp\ccuIEJCt.s 			page 75


 3382 0a2d 08       		.uleb128 0x8
 3383 0a2e F82E0000 		.4byte	.LASF301
 3384 0a32 CA02     		.sleb128 330
 3385 0a34 08       		.uleb128 0x8
 3386 0a35 C60E0000 		.4byte	.LASF302
 3387 0a39 CB02     		.sleb128 331
 3388 0a3b 08       		.uleb128 0x8
 3389 0a3c C8090000 		.4byte	.LASF303
 3390 0a40 CC02     		.sleb128 332
 3391 0a42 08       		.uleb128 0x8
 3392 0a43 A5090000 		.4byte	.LASF304
 3393 0a47 CD02     		.sleb128 333
 3394 0a49 08       		.uleb128 0x8
 3395 0a4a A20E0000 		.4byte	.LASF305
 3396 0a4e CE02     		.sleb128 334
 3397 0a50 08       		.uleb128 0x8
 3398 0a51 CA1D0000 		.4byte	.LASF306
 3399 0a55 CF02     		.sleb128 335
 3400 0a57 08       		.uleb128 0x8
 3401 0a58 F73B0000 		.4byte	.LASF307
 3402 0a5c D002     		.sleb128 336
 3403 0a5e 08       		.uleb128 0x8
 3404 0a5f 62130000 		.4byte	.LASF308
 3405 0a63 D102     		.sleb128 337
 3406 0a65 08       		.uleb128 0x8
 3407 0a66 782C0000 		.4byte	.LASF309
 3408 0a6a D202     		.sleb128 338
 3409 0a6c 08       		.uleb128 0x8
 3410 0a6d 7D270000 		.4byte	.LASF310
 3411 0a71 D302     		.sleb128 339
 3412 0a73 08       		.uleb128 0x8
 3413 0a74 CA010000 		.4byte	.LASF311
 3414 0a78 D402     		.sleb128 340
 3415 0a7a 08       		.uleb128 0x8
 3416 0a7b 371C0000 		.4byte	.LASF312
 3417 0a7f D502     		.sleb128 341
 3418 0a81 08       		.uleb128 0x8
 3419 0a82 EE000000 		.4byte	.LASF313
 3420 0a86 D602     		.sleb128 342
 3421 0a88 08       		.uleb128 0x8
 3422 0a89 2C0A0000 		.4byte	.LASF314
 3423 0a8d D702     		.sleb128 343
 3424 0a8f 08       		.uleb128 0x8
 3425 0a90 0E390000 		.4byte	.LASF315
 3426 0a94 D802     		.sleb128 344
 3427 0a96 08       		.uleb128 0x8
 3428 0a97 6C160000 		.4byte	.LASF316
 3429 0a9b D902     		.sleb128 345
 3430 0a9d 08       		.uleb128 0x8
 3431 0a9e 7D150000 		.4byte	.LASF317
 3432 0aa2 DA02     		.sleb128 346
 3433 0aa4 08       		.uleb128 0x8
 3434 0aa5 5E060000 		.4byte	.LASF318
 3435 0aa9 DB02     		.sleb128 347
 3436 0aab 08       		.uleb128 0x8
 3437 0aac BA370000 		.4byte	.LASF319
 3438 0ab0 DC02     		.sleb128 348
ARM GAS  C:\Users\Herry\AppData\Local\Temp\ccuIEJCt.s 			page 76


 3439 0ab2 08       		.uleb128 0x8
 3440 0ab3 29210000 		.4byte	.LASF320
 3441 0ab7 DD02     		.sleb128 349
 3442 0ab9 08       		.uleb128 0x8
 3443 0aba 1C1D0000 		.4byte	.LASF321
 3444 0abe DE02     		.sleb128 350
 3445 0ac0 08       		.uleb128 0x8
 3446 0ac1 40080000 		.4byte	.LASF322
 3447 0ac5 DF02     		.sleb128 351
 3448 0ac7 08       		.uleb128 0x8
 3449 0ac8 3F070000 		.4byte	.LASF323
 3450 0acc E002     		.sleb128 352
 3451 0ace 08       		.uleb128 0x8
 3452 0acf EC010000 		.4byte	.LASF324
 3453 0ad3 E102     		.sleb128 353
 3454 0ad5 08       		.uleb128 0x8
 3455 0ad6 D71C0000 		.4byte	.LASF325
 3456 0ada E202     		.sleb128 354
 3457 0adc 08       		.uleb128 0x8
 3458 0add 053E0000 		.4byte	.LASF326
 3459 0ae1 E302     		.sleb128 355
 3460 0ae3 08       		.uleb128 0x8
 3461 0ae4 13180000 		.4byte	.LASF327
 3462 0ae8 E402     		.sleb128 356
 3463 0aea 08       		.uleb128 0x8
 3464 0aeb A3150000 		.4byte	.LASF328
 3465 0aef E502     		.sleb128 357
 3466 0af1 08       		.uleb128 0x8
 3467 0af2 30240000 		.4byte	.LASF329
 3468 0af6 E602     		.sleb128 358
 3469 0af8 08       		.uleb128 0x8
 3470 0af9 CC350000 		.4byte	.LASF330
 3471 0afd E702     		.sleb128 359
 3472 0aff 08       		.uleb128 0x8
 3473 0b00 BD3A0000 		.4byte	.LASF331
 3474 0b04 E802     		.sleb128 360
 3475 0b06 08       		.uleb128 0x8
 3476 0b07 BA030000 		.4byte	.LASF332
 3477 0b0b E902     		.sleb128 361
 3478 0b0d 08       		.uleb128 0x8
 3479 0b0e BF2B0000 		.4byte	.LASF333
 3480 0b12 EA02     		.sleb128 362
 3481 0b14 08       		.uleb128 0x8
 3482 0b15 E2120000 		.4byte	.LASF334
 3483 0b19 EB02     		.sleb128 363
 3484 0b1b 08       		.uleb128 0x8
 3485 0b1c F91B0000 		.4byte	.LASF335
 3486 0b20 EC02     		.sleb128 364
 3487 0b22 08       		.uleb128 0x8
 3488 0b23 B5270000 		.4byte	.LASF336
 3489 0b27 ED02     		.sleb128 365
 3490 0b29 08       		.uleb128 0x8
 3491 0b2a 4E310000 		.4byte	.LASF337
 3492 0b2e EE02     		.sleb128 366
 3493 0b30 08       		.uleb128 0x8
 3494 0b31 DA130000 		.4byte	.LASF338
 3495 0b35 EF02     		.sleb128 367
ARM GAS  C:\Users\Herry\AppData\Local\Temp\ccuIEJCt.s 			page 77


 3496 0b37 08       		.uleb128 0x8
 3497 0b38 D2210000 		.4byte	.LASF339
 3498 0b3c F002     		.sleb128 368
 3499 0b3e 08       		.uleb128 0x8
 3500 0b3f 03200000 		.4byte	.LASF340
 3501 0b43 F102     		.sleb128 369
 3502 0b45 08       		.uleb128 0x8
 3503 0b46 C8240000 		.4byte	.LASF341
 3504 0b4a F202     		.sleb128 370
 3505 0b4c 08       		.uleb128 0x8
 3506 0b4d 1A310000 		.4byte	.LASF342
 3507 0b51 F302     		.sleb128 371
 3508 0b53 08       		.uleb128 0x8
 3509 0b54 F4210000 		.4byte	.LASF343
 3510 0b58 F402     		.sleb128 372
 3511 0b5a 08       		.uleb128 0x8
 3512 0b5b B7210000 		.4byte	.LASF344
 3513 0b5f F502     		.sleb128 373
 3514 0b61 08       		.uleb128 0x8
 3515 0b62 57220000 		.4byte	.LASF345
 3516 0b66 F602     		.sleb128 374
 3517 0b68 08       		.uleb128 0x8
 3518 0b69 F6140000 		.4byte	.LASF346
 3519 0b6d F702     		.sleb128 375
 3520 0b6f 08       		.uleb128 0x8
 3521 0b70 990C0000 		.4byte	.LASF347
 3522 0b74 F802     		.sleb128 376
 3523 0b76 08       		.uleb128 0x8
 3524 0b77 76340000 		.4byte	.LASF348
 3525 0b7b F902     		.sleb128 377
 3526 0b7d 08       		.uleb128 0x8
 3527 0b7e 07190000 		.4byte	.LASF349
 3528 0b82 FA02     		.sleb128 378
 3529 0b84 08       		.uleb128 0x8
 3530 0b85 650B0000 		.4byte	.LASF350
 3531 0b89 FB02     		.sleb128 379
 3532 0b8b 08       		.uleb128 0x8
 3533 0b8c 02350000 		.4byte	.LASF351
 3534 0b90 FC02     		.sleb128 380
 3535 0b92 08       		.uleb128 0x8
 3536 0b93 272D0000 		.4byte	.LASF352
 3537 0b97 FD02     		.sleb128 381
 3538 0b99 08       		.uleb128 0x8
 3539 0b9a 232B0000 		.4byte	.LASF353
 3540 0b9e FE02     		.sleb128 382
 3541 0ba0 08       		.uleb128 0x8
 3542 0ba1 061F0000 		.4byte	.LASF354
 3543 0ba5 FF02     		.sleb128 383
 3544 0ba7 08       		.uleb128 0x8
 3545 0ba8 34020000 		.4byte	.LASF355
 3546 0bac 8003     		.sleb128 384
 3547 0bae 08       		.uleb128 0x8
 3548 0baf 84280000 		.4byte	.LASF356
 3549 0bb3 8103     		.sleb128 385
 3550 0bb5 08       		.uleb128 0x8
 3551 0bb6 DD3B0000 		.4byte	.LASF357
 3552 0bba 8203     		.sleb128 386
ARM GAS  C:\Users\Herry\AppData\Local\Temp\ccuIEJCt.s 			page 78


 3553 0bbc 08       		.uleb128 0x8
 3554 0bbd DD360000 		.4byte	.LASF358
 3555 0bc1 8303     		.sleb128 387
 3556 0bc3 08       		.uleb128 0x8
 3557 0bc4 0F1E0000 		.4byte	.LASF359
 3558 0bc8 8403     		.sleb128 388
 3559 0bca 08       		.uleb128 0x8
 3560 0bcb E3020000 		.4byte	.LASF360
 3561 0bcf 8503     		.sleb128 389
 3562 0bd1 08       		.uleb128 0x8
 3563 0bd2 A3110000 		.4byte	.LASF361
 3564 0bd6 8603     		.sleb128 390
 3565 0bd8 08       		.uleb128 0x8
 3566 0bd9 C9380000 		.4byte	.LASF362
 3567 0bdd 8703     		.sleb128 391
 3568 0bdf 08       		.uleb128 0x8
 3569 0be0 D23E0000 		.4byte	.LASF363
 3570 0be4 8803     		.sleb128 392
 3571 0be6 08       		.uleb128 0x8
 3572 0be7 98220000 		.4byte	.LASF364
 3573 0beb 8903     		.sleb128 393
 3574 0bed 08       		.uleb128 0x8
 3575 0bee 993D0000 		.4byte	.LASF365
 3576 0bf2 8A03     		.sleb128 394
 3577 0bf4 08       		.uleb128 0x8
 3578 0bf5 35220000 		.4byte	.LASF366
 3579 0bf9 8B03     		.sleb128 395
 3580 0bfb 08       		.uleb128 0x8
 3581 0bfc 5A070000 		.4byte	.LASF367
 3582 0c00 8C03     		.sleb128 396
 3583 0c02 08       		.uleb128 0x8
 3584 0c03 44190000 		.4byte	.LASF368
 3585 0c07 8D03     		.sleb128 397
 3586 0c09 08       		.uleb128 0x8
 3587 0c0a CF160000 		.4byte	.LASF369
 3588 0c0e 8E03     		.sleb128 398
 3589 0c10 08       		.uleb128 0x8
 3590 0c11 BB0C0000 		.4byte	.LASF370
 3591 0c15 8F03     		.sleb128 399
 3592 0c17 08       		.uleb128 0x8
 3593 0c18 0D300000 		.4byte	.LASF371
 3594 0c1c 9003     		.sleb128 400
 3595 0c1e 08       		.uleb128 0x8
 3596 0c1f F9190000 		.4byte	.LASF372
 3597 0c23 9103     		.sleb128 401
 3598 0c25 08       		.uleb128 0x8
 3599 0c26 2D290000 		.4byte	.LASF373
 3600 0c2a 9203     		.sleb128 402
 3601 0c2c 08       		.uleb128 0x8
 3602 0c2d 43040000 		.4byte	.LASF374
 3603 0c31 9303     		.sleb128 403
 3604 0c33 08       		.uleb128 0x8
 3605 0c34 BC0F0000 		.4byte	.LASF375
 3606 0c38 9403     		.sleb128 404
 3607 0c3a 08       		.uleb128 0x8
 3608 0c3b 1B2A0000 		.4byte	.LASF376
 3609 0c3f 9503     		.sleb128 405
ARM GAS  C:\Users\Herry\AppData\Local\Temp\ccuIEJCt.s 			page 79


 3610 0c41 08       		.uleb128 0x8
 3611 0c42 B5160000 		.4byte	.LASF377
 3612 0c46 9603     		.sleb128 406
 3613 0c48 08       		.uleb128 0x8
 3614 0c49 AE1D0000 		.4byte	.LASF378
 3615 0c4d 9703     		.sleb128 407
 3616 0c4f 08       		.uleb128 0x8
 3617 0c50 521F0000 		.4byte	.LASF379
 3618 0c54 9803     		.sleb128 408
 3619 0c56 08       		.uleb128 0x8
 3620 0c57 A9350000 		.4byte	.LASF380
 3621 0c5b 9903     		.sleb128 409
 3622 0c5d 08       		.uleb128 0x8
 3623 0c5e 7E140000 		.4byte	.LASF381
 3624 0c62 9A03     		.sleb128 410
 3625 0c64 08       		.uleb128 0x8
 3626 0c65 D9250000 		.4byte	.LASF382
 3627 0c69 9B03     		.sleb128 411
 3628 0c6b 08       		.uleb128 0x8
 3629 0c6c 7C130000 		.4byte	.LASF383
 3630 0c70 9C03     		.sleb128 412
 3631 0c72 08       		.uleb128 0x8
 3632 0c73 75180000 		.4byte	.LASF384
 3633 0c77 9D03     		.sleb128 413
 3634 0c79 08       		.uleb128 0x8
 3635 0c7a 533F0000 		.4byte	.LASF385
 3636 0c7e 9E03     		.sleb128 414
 3637 0c80 08       		.uleb128 0x8
 3638 0c81 C3280000 		.4byte	.LASF386
 3639 0c85 9F03     		.sleb128 415
 3640 0c87 08       		.uleb128 0x8
 3641 0c88 5D290000 		.4byte	.LASF387
 3642 0c8c A003     		.sleb128 416
 3643 0c8e 08       		.uleb128 0x8
 3644 0c8f FD070000 		.4byte	.LASF388
 3645 0c93 A103     		.sleb128 417
 3646 0c95 08       		.uleb128 0x8
 3647 0c96 49160000 		.4byte	.LASF389
 3648 0c9a A203     		.sleb128 418
 3649 0c9c 08       		.uleb128 0x8
 3650 0c9d DC300000 		.4byte	.LASF390
 3651 0ca1 A303     		.sleb128 419
 3652 0ca3 08       		.uleb128 0x8
 3653 0ca4 DE0B0000 		.4byte	.LASF391
 3654 0ca8 A403     		.sleb128 420
 3655 0caa 08       		.uleb128 0x8
 3656 0cab 34000000 		.4byte	.LASF392
 3657 0caf A503     		.sleb128 421
 3658 0cb1 08       		.uleb128 0x8
 3659 0cb2 76360000 		.4byte	.LASF393
 3660 0cb6 A603     		.sleb128 422
 3661 0cb8 08       		.uleb128 0x8
 3662 0cb9 01120000 		.4byte	.LASF394
 3663 0cbd A703     		.sleb128 423
 3664 0cbf 08       		.uleb128 0x8
 3665 0cc0 F73E0000 		.4byte	.LASF395
 3666 0cc4 A803     		.sleb128 424
ARM GAS  C:\Users\Herry\AppData\Local\Temp\ccuIEJCt.s 			page 80


 3667 0cc6 08       		.uleb128 0x8
 3668 0cc7 761B0000 		.4byte	.LASF396
 3669 0ccb A903     		.sleb128 425
 3670 0ccd 08       		.uleb128 0x8
 3671 0cce 6D1E0000 		.4byte	.LASF397
 3672 0cd2 AA03     		.sleb128 426
 3673 0cd4 08       		.uleb128 0x8
 3674 0cd5 B83E0000 		.4byte	.LASF398
 3675 0cd9 AB03     		.sleb128 427
 3676 0cdb 08       		.uleb128 0x8
 3677 0cdc E2320000 		.4byte	.LASF399
 3678 0ce0 AC03     		.sleb128 428
 3679 0ce2 08       		.uleb128 0x8
 3680 0ce3 B6250000 		.4byte	.LASF400
 3681 0ce7 AD03     		.sleb128 429
 3682 0ce9 08       		.uleb128 0x8
 3683 0cea 2B280000 		.4byte	.LASF401
 3684 0cee AE03     		.sleb128 430
 3685 0cf0 08       		.uleb128 0x8
 3686 0cf1 EE390000 		.4byte	.LASF402
 3687 0cf5 AF03     		.sleb128 431
 3688 0cf7 08       		.uleb128 0x8
 3689 0cf8 521A0000 		.4byte	.LASF403
 3690 0cfc B003     		.sleb128 432
 3691 0cfe 08       		.uleb128 0x8
 3692 0cff F40C0000 		.4byte	.LASF404
 3693 0d03 B103     		.sleb128 433
 3694 0d05 08       		.uleb128 0x8
 3695 0d06 77080000 		.4byte	.LASF405
 3696 0d0a B203     		.sleb128 434
 3697 0d0c 08       		.uleb128 0x8
 3698 0d0d 8E310000 		.4byte	.LASF406
 3699 0d11 B303     		.sleb128 435
 3700 0d13 08       		.uleb128 0x8
 3701 0d14 05100000 		.4byte	.LASF407
 3702 0d18 B403     		.sleb128 436
 3703 0d1a 08       		.uleb128 0x8
 3704 0d1b DA3D0000 		.4byte	.LASF408
 3705 0d1f B503     		.sleb128 437
 3706 0d21 08       		.uleb128 0x8
 3707 0d22 AD0B0000 		.4byte	.LASF409
 3708 0d26 B603     		.sleb128 438
 3709 0d28 08       		.uleb128 0x8
 3710 0d29 2F1A0000 		.4byte	.LASF410
 3711 0d2d B703     		.sleb128 439
 3712 0d2f 08       		.uleb128 0x8
 3713 0d30 EB1D0000 		.4byte	.LASF411
 3714 0d34 B803     		.sleb128 440
 3715 0d36 08       		.uleb128 0x8
 3716 0d37 D0390000 		.4byte	.LASF412
 3717 0d3b B903     		.sleb128 441
 3718 0d3d 08       		.uleb128 0x8
 3719 0d3e 08360000 		.4byte	.LASF413
 3720 0d42 BA03     		.sleb128 442
 3721 0d44 08       		.uleb128 0x8
 3722 0d45 06160000 		.4byte	.LASF414
 3723 0d49 BB03     		.sleb128 443
ARM GAS  C:\Users\Herry\AppData\Local\Temp\ccuIEJCt.s 			page 81


 3724 0d4b 08       		.uleb128 0x8
 3725 0d4c 07210000 		.4byte	.LASF415
 3726 0d50 BC03     		.sleb128 444
 3727 0d52 08       		.uleb128 0x8
 3728 0d53 A5020000 		.4byte	.LASF416
 3729 0d57 BD03     		.sleb128 445
 3730 0d59 08       		.uleb128 0x8
 3731 0d5a 972D0000 		.4byte	.LASF417
 3732 0d5e BE03     		.sleb128 446
 3733 0d60 08       		.uleb128 0x8
 3734 0d61 97030000 		.4byte	.LASF418
 3735 0d65 BF03     		.sleb128 447
 3736 0d67 08       		.uleb128 0x8
 3737 0d68 7A2A0000 		.4byte	.LASF419
 3738 0d6c C003     		.sleb128 448
 3739 0d6e 08       		.uleb128 0x8
 3740 0d6f EA090000 		.4byte	.LASF420
 3741 0d73 C103     		.sleb128 449
 3742 0d75 08       		.uleb128 0x8
 3743 0d76 590A0000 		.4byte	.LASF421
 3744 0d7a C203     		.sleb128 450
 3745 0d7c 08       		.uleb128 0x8
 3746 0d7d 00310000 		.4byte	.LASF422
 3747 0d81 C303     		.sleb128 451
 3748 0d83 08       		.uleb128 0x8
 3749 0d84 8C060000 		.4byte	.LASF423
 3750 0d88 C403     		.sleb128 452
 3751 0d8a 08       		.uleb128 0x8
 3752 0d8b C12C0000 		.4byte	.LASF424
 3753 0d8f C503     		.sleb128 453
 3754 0d91 08       		.uleb128 0x8
 3755 0d92 E52A0000 		.4byte	.LASF425
 3756 0d96 C603     		.sleb128 454
 3757 0d98 08       		.uleb128 0x8
 3758 0d99 88170000 		.4byte	.LASF426
 3759 0d9d C703     		.sleb128 455
 3760 0d9f 08       		.uleb128 0x8
 3761 0da0 743B0000 		.4byte	.LASF427
 3762 0da4 C803     		.sleb128 456
 3763 0da6 08       		.uleb128 0x8
 3764 0da7 BF200000 		.4byte	.LASF428
 3765 0dab C903     		.sleb128 457
 3766 0dad 08       		.uleb128 0x8
 3767 0dae B8290000 		.4byte	.LASF429
 3768 0db2 CA03     		.sleb128 458
 3769 0db4 08       		.uleb128 0x8
 3770 0db5 831A0000 		.4byte	.LASF430
 3771 0db9 CB03     		.sleb128 459
 3772 0dbb 08       		.uleb128 0x8
 3773 0dbc C32F0000 		.4byte	.LASF431
 3774 0dc0 CC03     		.sleb128 460
 3775 0dc2 08       		.uleb128 0x8
 3776 0dc3 1C1C0000 		.4byte	.LASF432
 3777 0dc7 CD03     		.sleb128 461
 3778 0dc9 08       		.uleb128 0x8
 3779 0dca A81A0000 		.4byte	.LASF433
 3780 0dce CE03     		.sleb128 462
ARM GAS  C:\Users\Herry\AppData\Local\Temp\ccuIEJCt.s 			page 82


 3781 0dd0 08       		.uleb128 0x8
 3782 0dd1 A6060000 		.4byte	.LASF434
 3783 0dd5 CF03     		.sleb128 463
 3784 0dd7 08       		.uleb128 0x8
 3785 0dd8 A10A0000 		.4byte	.LASF435
 3786 0ddc D003     		.sleb128 464
 3787 0dde 08       		.uleb128 0x8
 3788 0ddf E3180000 		.4byte	.LASF436
 3789 0de3 D103     		.sleb128 465
 3790 0de5 08       		.uleb128 0x8
 3791 0de6 28330000 		.4byte	.LASF437
 3792 0dea D203     		.sleb128 466
 3793 0dec 08       		.uleb128 0x8
 3794 0ded 6E3E0000 		.4byte	.LASF438
 3795 0df1 D303     		.sleb128 467
 3796 0df3 08       		.uleb128 0x8
 3797 0df4 AE190000 		.4byte	.LASF439
 3798 0df8 D403     		.sleb128 468
 3799 0dfa 08       		.uleb128 0x8
 3800 0dfb 530E0000 		.4byte	.LASF440
 3801 0dff D503     		.sleb128 469
 3802 0e01 08       		.uleb128 0x8
 3803 0e02 C7150000 		.4byte	.LASF441
 3804 0e06 D603     		.sleb128 470
 3805 0e08 08       		.uleb128 0x8
 3806 0e09 05290000 		.4byte	.LASF442
 3807 0e0d D703     		.sleb128 471
 3808 0e0f 08       		.uleb128 0x8
 3809 0e10 04040000 		.4byte	.LASF443
 3810 0e14 D803     		.sleb128 472
 3811 0e16 08       		.uleb128 0x8
 3812 0e17 E1310000 		.4byte	.LASF444
 3813 0e1b D903     		.sleb128 473
 3814 0e1d 08       		.uleb128 0x8
 3815 0e1e EB0E0000 		.4byte	.LASF445
 3816 0e22 DA03     		.sleb128 474
 3817 0e24 08       		.uleb128 0x8
 3818 0e25 501D0000 		.4byte	.LASF446
 3819 0e29 DB03     		.sleb128 475
 3820 0e2b 08       		.uleb128 0x8
 3821 0e2c 35150000 		.4byte	.LASF447
 3822 0e30 DC03     		.sleb128 476
 3823 0e32 08       		.uleb128 0x8
 3824 0e33 32390000 		.4byte	.LASF448
 3825 0e37 DD03     		.sleb128 477
 3826 0e39 08       		.uleb128 0x8
 3827 0e3a 34030000 		.4byte	.LASF449
 3828 0e3e DE03     		.sleb128 478
 3829 0e40 08       		.uleb128 0x8
 3830 0e41 11010000 		.4byte	.LASF450
 3831 0e45 DF03     		.sleb128 479
 3832 0e47 08       		.uleb128 0x8
 3833 0e48 24120000 		.4byte	.LASF451
 3834 0e4c E003     		.sleb128 480
 3835 0e4e 08       		.uleb128 0x8
 3836 0e4f E00F0000 		.4byte	.LASF452
 3837 0e53 E103     		.sleb128 481
ARM GAS  C:\Users\Herry\AppData\Local\Temp\ccuIEJCt.s 			page 83


 3838 0e55 08       		.uleb128 0x8
 3839 0e56 A2240000 		.4byte	.LASF453
 3840 0e5a E203     		.sleb128 482
 3841 0e5c 08       		.uleb128 0x8
 3842 0e5d 22370000 		.4byte	.LASF454
 3843 0e61 E303     		.sleb128 483
 3844 0e63 08       		.uleb128 0x8
 3845 0e64 18220000 		.4byte	.LASF455
 3846 0e68 E403     		.sleb128 484
 3847 0e6a 08       		.uleb128 0x8
 3848 0e6b B8300000 		.4byte	.LASF456
 3849 0e6f E503     		.sleb128 485
 3850 0e71 08       		.uleb128 0x8
 3851 0e72 C2100000 		.4byte	.LASF457
 3852 0e76 E603     		.sleb128 486
 3853 0e78 08       		.uleb128 0x8
 3854 0e79 85040000 		.4byte	.LASF458
 3855 0e7d E703     		.sleb128 487
 3856 0e7f 08       		.uleb128 0x8
 3857 0e80 93300000 		.4byte	.LASF459
 3858 0e84 E803     		.sleb128 488
 3859 0e86 08       		.uleb128 0x8
 3860 0e87 FA100000 		.4byte	.LASF460
 3861 0e8b E903     		.sleb128 489
 3862 0e8d 08       		.uleb128 0x8
 3863 0e8e B21E0000 		.4byte	.LASF461
 3864 0e92 EA03     		.sleb128 490
 3865 0e94 08       		.uleb128 0x8
 3866 0e95 1C2F0000 		.4byte	.LASF462
 3867 0e99 EB03     		.sleb128 491
 3868 0e9b 08       		.uleb128 0x8
 3869 0e9c 59150000 		.4byte	.LASF463
 3870 0ea0 EC03     		.sleb128 492
 3871 0ea2 08       		.uleb128 0x8
 3872 0ea3 E6350000 		.4byte	.LASF464
 3873 0ea7 ED03     		.sleb128 493
 3874 0ea9 08       		.uleb128 0x8
 3875 0eaa 06130000 		.4byte	.LASF465
 3876 0eae EE03     		.sleb128 494
 3877 0eb0 08       		.uleb128 0x8
 3878 0eb1 C50A0000 		.4byte	.LASF466
 3879 0eb5 EF03     		.sleb128 495
 3880 0eb7 08       		.uleb128 0x8
 3881 0eb8 562A0000 		.4byte	.LASF467
 3882 0ebc F003     		.sleb128 496
 3883 0ebe 08       		.uleb128 0x8
 3884 0ebf EE170000 		.4byte	.LASF468
 3885 0ec3 F103     		.sleb128 497
 3886 0ec5 08       		.uleb128 0x8
 3887 0ec6 4C0C0000 		.4byte	.LASF469
 3888 0eca F203     		.sleb128 498
 3889 0ecc 08       		.uleb128 0x8
 3890 0ecd 38180000 		.4byte	.LASF470
 3891 0ed1 F303     		.sleb128 499
 3892 0ed3 08       		.uleb128 0x8
 3893 0ed4 5D080000 		.4byte	.LASF471
 3894 0ed8 F403     		.sleb128 500
ARM GAS  C:\Users\Herry\AppData\Local\Temp\ccuIEJCt.s 			page 84


 3895 0eda 08       		.uleb128 0x8
 3896 0edb 4B230000 		.4byte	.LASF472
 3897 0edf F503     		.sleb128 501
 3898 0ee1 08       		.uleb128 0x8
 3899 0ee2 12000000 		.4byte	.LASF473
 3900 0ee6 F603     		.sleb128 502
 3901 0ee8 08       		.uleb128 0x8
 3902 0ee9 C1260000 		.4byte	.LASF474
 3903 0eed F703     		.sleb128 503
 3904 0eef 08       		.uleb128 0x8
 3905 0ef0 98360000 		.4byte	.LASF475
 3906 0ef4 F803     		.sleb128 504
 3907 0ef6 08       		.uleb128 0x8
 3908 0ef7 1F040000 		.4byte	.LASF476
 3909 0efb F903     		.sleb128 505
 3910 0efd 08       		.uleb128 0x8
 3911 0efe 662F0000 		.4byte	.LASF477
 3912 0f02 FA03     		.sleb128 506
 3913 0f04 08       		.uleb128 0x8
 3914 0f05 6D200000 		.4byte	.LASF478
 3915 0f09 FB03     		.sleb128 507
 3916 0f0b 08       		.uleb128 0x8
 3917 0f0c 10140000 		.4byte	.LASF479
 3918 0f10 FC03     		.sleb128 508
 3919 0f12 08       		.uleb128 0x8
 3920 0f13 F81A0000 		.4byte	.LASF480
 3921 0f17 FD03     		.sleb128 509
 3922 0f19 08       		.uleb128 0x8
 3923 0f1a 290F0000 		.4byte	.LASF481
 3924 0f1e FE03     		.sleb128 510
 3925 0f20 08       		.uleb128 0x8
 3926 0f21 2E3F0000 		.4byte	.LASF482
 3927 0f25 FF03     		.sleb128 511
 3928 0f27 08       		.uleb128 0x8
 3929 0f28 EB150000 		.4byte	.LASF483
 3930 0f2c 8004     		.sleb128 512
 3931 0f2e 08       		.uleb128 0x8
 3932 0f2f 3A010000 		.4byte	.LASF484
 3933 0f33 8104     		.sleb128 513
 3934 0f35 08       		.uleb128 0x8
 3935 0f36 E4260000 		.4byte	.LASF485
 3936 0f3a 8204     		.sleb128 514
 3937 0f3c 08       		.uleb128 0x8
 3938 0f3d 67230000 		.4byte	.LASF486
 3939 0f41 8304     		.sleb128 515
 3940 0f43 08       		.uleb128 0x8
 3941 0f44 3E170000 		.4byte	.LASF487
 3942 0f48 8404     		.sleb128 516
 3943 0f4a 08       		.uleb128 0x8
 3944 0f4b 69320000 		.4byte	.LASF488
 3945 0f4f 8504     		.sleb128 517
 3946 0f51 08       		.uleb128 0x8
 3947 0f52 363A0000 		.4byte	.LASF489
 3948 0f56 8604     		.sleb128 518
 3949 0f58 08       		.uleb128 0x8
 3950 0f59 A8010000 		.4byte	.LASF490
 3951 0f5d 8704     		.sleb128 519
ARM GAS  C:\Users\Herry\AppData\Local\Temp\ccuIEJCt.s 			page 85


 3952 0f5f 08       		.uleb128 0x8
 3953 0f60 9E2A0000 		.4byte	.LASF491
 3954 0f64 8804     		.sleb128 520
 3955 0f66 08       		.uleb128 0x8
 3956 0f67 9C120000 		.4byte	.LASF492
 3957 0f6b 8904     		.sleb128 521
 3958 0f6d 08       		.uleb128 0x8
 3959 0f6e A2140000 		.4byte	.LASF493
 3960 0f72 8A04     		.sleb128 522
 3961 0f74 08       		.uleb128 0x8
 3962 0f75 003D0000 		.4byte	.LASF494
 3963 0f79 8B04     		.sleb128 523
 3964 0f7b 08       		.uleb128 0x8
 3965 0f7c 060F0000 		.4byte	.LASF495
 3966 0f80 8C04     		.sleb128 524
 3967 0f82 08       		.uleb128 0x8
 3968 0f83 9C0D0000 		.4byte	.LASF496
 3969 0f87 8D04     		.sleb128 525
 3970 0f89 08       		.uleb128 0x8
 3971 0f8a 4E280000 		.4byte	.LASF497
 3972 0f8e 80C003   		.sleb128 57344
 3973 0f91 00       		.byte	0
 3974 0f92 07       		.uleb128 0x7
 3975 0f93 01       		.byte	0x1
 3976 0f94 0A       		.byte	0xa
 3977 0f95 BF07     		.2byte	0x7bf
 3978 0f97 BA0F0000 		.4byte	0xfba
 3979 0f9b 08       		.uleb128 0x8
 3980 0f9c 3F0E0000 		.4byte	.LASF498
 3981 0fa0 00       		.sleb128 0
 3982 0fa1 08       		.uleb128 0x8
 3983 0fa2 BE1C0000 		.4byte	.LASF499
 3984 0fa6 01       		.sleb128 1
 3985 0fa7 08       		.uleb128 0x8
 3986 0fa8 973B0000 		.4byte	.LASF500
 3987 0fac 02       		.sleb128 2
 3988 0fad 08       		.uleb128 0x8
 3989 0fae C9080000 		.4byte	.LASF501
 3990 0fb2 03       		.sleb128 3
 3991 0fb3 08       		.uleb128 0x8
 3992 0fb4 541E0000 		.4byte	.LASF502
 3993 0fb8 04       		.sleb128 4
 3994 0fb9 00       		.byte	0
 3995 0fba 04       		.uleb128 0x4
 3996 0fbb 472B0000 		.4byte	.LASF503
 3997 0fbf 0A       		.byte	0xa
 3998 0fc0 CD07     		.2byte	0x7cd
 3999 0fc2 920F0000 		.4byte	0xf92
 4000 0fc6 18       		.uleb128 0x18
 4001 0fc7 A31E0000 		.4byte	.LASF541
 4002 0fcb 01       		.byte	0x1
 4003 0fcc 54       		.byte	0x54
 4004 0fcd 00000000 		.4byte	.LFB2
 4005 0fd1 08000000 		.4byte	.LFE2-.LFB2
 4006 0fd5 01       		.uleb128 0x1
 4007 0fd6 9C       		.byte	0x9c
 4008 0fd7 19       		.uleb128 0x19
ARM GAS  C:\Users\Herry\AppData\Local\Temp\ccuIEJCt.s 			page 86


 4009 0fd8 5B300000 		.4byte	.LASF527
 4010 0fdc 01       		.byte	0x1
 4011 0fdd 87       		.byte	0x87
 4012 0fde 00000000 		.4byte	.LFB3
 4013 0fe2 18000000 		.4byte	.LFE3-.LFB3
 4014 0fe6 01       		.uleb128 0x1
 4015 0fe7 9C       		.byte	0x9c
 4016 0fe8 FB0F0000 		.4byte	0xffb
 4017 0fec 1A       		.uleb128 0x1a
 4018 0fed 580B0000 		.4byte	.LASF504
 4019 0ff1 01       		.byte	0x1
 4020 0ff2 87       		.byte	0x87
 4021 0ff3 19060000 		.4byte	0x619
 4022 0ff7 02       		.uleb128 0x2
 4023 0ff8 91       		.byte	0x91
 4024 0ff9 74       		.sleb128 -12
 4025 0ffa 00       		.byte	0
 4026 0ffb 1B       		.uleb128 0x1b
 4027 0ffc 69380000 		.4byte	.LASF510
 4028 1000 01       		.byte	0x1
 4029 1001 B1       		.byte	0xb1
 4030 1002 3F030000 		.4byte	0x33f
 4031 1006 00000000 		.4byte	.LFB4
 4032 100a D0010000 		.4byte	.LFE4-.LFB4
 4033 100e 01       		.uleb128 0x1
 4034 100f 9C       		.byte	0x9c
 4035 1010 77100000 		.4byte	0x1077
 4036 1014 1A       		.uleb128 0x1a
 4037 1015 8C0C0000 		.4byte	.LASF224
 4038 1019 01       		.byte	0x1
 4039 101a B1       		.byte	0xb1
 4040 101b 6B000000 		.4byte	0x6b
 4041 101f 02       		.uleb128 0x2
 4042 1020 91       		.byte	0x91
 4043 1021 5F       		.sleb128 -33
 4044 1022 1A       		.uleb128 0x1a
 4045 1023 30010000 		.4byte	.LASF225
 4046 1027 01       		.byte	0x1
 4047 1028 B1       		.byte	0xb1
 4048 1029 D1060000 		.4byte	0x6d1
 4049 102d 02       		.uleb128 0x2
 4050 102e 91       		.byte	0x91
 4051 102f 5E       		.sleb128 -34
 4052 1030 1A       		.uleb128 0x1a
 4053 1031 1D250000 		.4byte	.LASF505
 4054 1035 01       		.byte	0x1
 4055 1036 B2       		.byte	0xb2
 4056 1037 6B000000 		.4byte	0x6b
 4057 103b 02       		.uleb128 0x2
 4058 103c 91       		.byte	0x91
 4059 103d 5D       		.sleb128 -35
 4060 103e 1A       		.uleb128 0x1a
 4061 103f 91160000 		.4byte	.LASF506
 4062 1043 01       		.byte	0x1
 4063 1044 B2       		.byte	0xb2
 4064 1045 4B030000 		.4byte	0x34b
 4065 1049 02       		.uleb128 0x2
ARM GAS  C:\Users\Herry\AppData\Local\Temp\ccuIEJCt.s 			page 87


 4066 104a 91       		.byte	0x91
 4067 104b 58       		.sleb128 -40
 4068 104c 1C       		.uleb128 0x1c
 4069 104d 51300000 		.4byte	.LASF507
 4070 1051 01       		.byte	0x1
 4071 1052 B4       		.byte	0xb4
 4072 1053 3F030000 		.4byte	0x33f
 4073 1057 02       		.uleb128 0x2
 4074 1058 91       		.byte	0x91
 4075 1059 6E       		.sleb128 -18
 4076 105a 1C       		.uleb128 0x1c
 4077 105b 36140000 		.4byte	.LASF508
 4078 105f 01       		.byte	0x1
 4079 1060 B5       		.byte	0xb5
 4080 1061 5E040000 		.4byte	0x45e
 4081 1065 02       		.uleb128 0x2
 4082 1066 91       		.byte	0x91
 4083 1067 6C       		.sleb128 -20
 4084 1068 1C       		.uleb128 0x1c
 4085 1069 701A0000 		.4byte	.LASF509
 4086 106d 01       		.byte	0x1
 4087 106e B6       		.byte	0xb6
 4088 106f FB040000 		.4byte	0x4fb
 4089 1073 02       		.uleb128 0x2
 4090 1074 91       		.byte	0x91
 4091 1075 60       		.sleb128 -32
 4092 1076 00       		.byte	0
 4093 1077 1D       		.uleb128 0x1d
 4094 1078 DD2C0000 		.4byte	.LASF511
 4095 107c 01       		.byte	0x1
 4096 107d 1D01     		.2byte	0x11d
 4097 107f 3F030000 		.4byte	0x33f
 4098 1083 00000000 		.4byte	.LFB5
 4099 1087 D0010000 		.4byte	.LFE5-.LFB5
 4100 108b 01       		.uleb128 0x1
 4101 108c 9C       		.byte	0x9c
 4102 108d FB100000 		.4byte	0x10fb
 4103 1091 1E       		.uleb128 0x1e
 4104 1092 8C0C0000 		.4byte	.LASF224
 4105 1096 01       		.byte	0x1
 4106 1097 1D01     		.2byte	0x11d
 4107 1099 6B000000 		.4byte	0x6b
 4108 109d 02       		.uleb128 0x2
 4109 109e 91       		.byte	0x91
 4110 109f 5F       		.sleb128 -33
 4111 10a0 1E       		.uleb128 0x1e
 4112 10a1 30010000 		.4byte	.LASF225
 4113 10a5 01       		.byte	0x1
 4114 10a6 1D01     		.2byte	0x11d
 4115 10a8 D1060000 		.4byte	0x6d1
 4116 10ac 02       		.uleb128 0x2
 4117 10ad 91       		.byte	0x91
 4118 10ae 5E       		.sleb128 -34
 4119 10af 1E       		.uleb128 0x1e
 4120 10b0 1D250000 		.4byte	.LASF505
 4121 10b4 01       		.byte	0x1
 4122 10b5 1E01     		.2byte	0x11e
ARM GAS  C:\Users\Herry\AppData\Local\Temp\ccuIEJCt.s 			page 88


 4123 10b7 6B000000 		.4byte	0x6b
 4124 10bb 02       		.uleb128 0x2
 4125 10bc 91       		.byte	0x91
 4126 10bd 5D       		.sleb128 -35
 4127 10be 1E       		.uleb128 0x1e
 4128 10bf 91160000 		.4byte	.LASF506
 4129 10c3 01       		.byte	0x1
 4130 10c4 1E01     		.2byte	0x11e
 4131 10c6 4B030000 		.4byte	0x34b
 4132 10ca 02       		.uleb128 0x2
 4133 10cb 91       		.byte	0x91
 4134 10cc 58       		.sleb128 -40
 4135 10cd 1F       		.uleb128 0x1f
 4136 10ce 51300000 		.4byte	.LASF507
 4137 10d2 01       		.byte	0x1
 4138 10d3 2001     		.2byte	0x120
 4139 10d5 3F030000 		.4byte	0x33f
 4140 10d9 02       		.uleb128 0x2
 4141 10da 91       		.byte	0x91
 4142 10db 6E       		.sleb128 -18
 4143 10dc 1F       		.uleb128 0x1f
 4144 10dd 36140000 		.4byte	.LASF508
 4145 10e1 01       		.byte	0x1
 4146 10e2 2101     		.2byte	0x121
 4147 10e4 5E040000 		.4byte	0x45e
 4148 10e8 02       		.uleb128 0x2
 4149 10e9 91       		.byte	0x91
 4150 10ea 6C       		.sleb128 -20
 4151 10eb 1F       		.uleb128 0x1f
 4152 10ec 701A0000 		.4byte	.LASF509
 4153 10f0 01       		.byte	0x1
 4154 10f1 2201     		.2byte	0x122
 4155 10f3 FB040000 		.4byte	0x4fb
 4156 10f7 02       		.uleb128 0x2
 4157 10f8 91       		.byte	0x91
 4158 10f9 60       		.sleb128 -32
 4159 10fa 00       		.byte	0
 4160 10fb 1D       		.uleb128 0x1d
 4161 10fc 4D330000 		.4byte	.LASF512
 4162 1100 01       		.byte	0x1
 4163 1101 8C01     		.2byte	0x18c
 4164 1103 3F030000 		.4byte	0x33f
 4165 1107 00000000 		.4byte	.LFB6
 4166 110b 9C010000 		.4byte	.LFE6-.LFB6
 4167 110f 01       		.uleb128 0x1
 4168 1110 9C       		.byte	0x9c
 4169 1111 9D110000 		.4byte	0x119d
 4170 1115 1E       		.uleb128 0x1e
 4171 1116 8C0C0000 		.4byte	.LASF224
 4172 111a 01       		.byte	0x1
 4173 111b 8C01     		.2byte	0x18c
 4174 111d 6B000000 		.4byte	0x6b
 4175 1121 02       		.uleb128 0x2
 4176 1122 91       		.byte	0x91
 4177 1123 57       		.sleb128 -41
 4178 1124 1E       		.uleb128 0x1e
 4179 1125 30010000 		.4byte	.LASF225
ARM GAS  C:\Users\Herry\AppData\Local\Temp\ccuIEJCt.s 			page 89


 4180 1129 01       		.byte	0x1
 4181 112a 8C01     		.2byte	0x18c
 4182 112c D1060000 		.4byte	0x6d1
 4183 1130 02       		.uleb128 0x2
 4184 1131 91       		.byte	0x91
 4185 1132 56       		.sleb128 -42
 4186 1133 1E       		.uleb128 0x1e
 4187 1134 35230000 		.4byte	.LASF513
 4188 1138 01       		.byte	0x1
 4189 1139 8D01     		.2byte	0x18d
 4190 113b FD060000 		.4byte	0x6fd
 4191 113f 02       		.uleb128 0x2
 4192 1140 91       		.byte	0x91
 4193 1141 55       		.sleb128 -43
 4194 1142 1E       		.uleb128 0x1e
 4195 1143 1D250000 		.4byte	.LASF505
 4196 1147 01       		.byte	0x1
 4197 1148 8D01     		.2byte	0x18d
 4198 114a 6B000000 		.4byte	0x6b
 4199 114e 02       		.uleb128 0x2
 4200 114f 91       		.byte	0x91
 4201 1150 54       		.sleb128 -44
 4202 1151 1E       		.uleb128 0x1e
 4203 1152 91160000 		.4byte	.LASF506
 4204 1156 01       		.byte	0x1
 4205 1157 8D01     		.2byte	0x18d
 4206 1159 4B030000 		.4byte	0x34b
 4207 115d 02       		.uleb128 0x2
 4208 115e 91       		.byte	0x91
 4209 115f 00       		.sleb128 0
 4210 1160 1F       		.uleb128 0x1f
 4211 1161 51300000 		.4byte	.LASF507
 4212 1165 01       		.byte	0x1
 4213 1166 8F01     		.2byte	0x18f
 4214 1168 3F030000 		.4byte	0x33f
 4215 116c 02       		.uleb128 0x2
 4216 116d 91       		.byte	0x91
 4217 116e 6E       		.sleb128 -18
 4218 116f 1F       		.uleb128 0x1f
 4219 1170 3F2F0000 		.4byte	.LASF514
 4220 1174 01       		.byte	0x1
 4221 1175 9001     		.2byte	0x190
 4222 1177 5E040000 		.4byte	0x45e
 4223 117b 02       		.uleb128 0x2
 4224 117c 91       		.byte	0x91
 4225 117d 6C       		.sleb128 -20
 4226 117e 1F       		.uleb128 0x1f
 4227 117f 3E350000 		.4byte	.LASF515
 4228 1183 01       		.byte	0x1
 4229 1184 9101     		.2byte	0x191
 4230 1186 B5070000 		.4byte	0x7b5
 4231 118a 02       		.uleb128 0x2
 4232 118b 91       		.byte	0x91
 4233 118c 68       		.sleb128 -24
 4234 118d 1F       		.uleb128 0x1f
 4235 118e 701A0000 		.4byte	.LASF509
 4236 1192 01       		.byte	0x1
ARM GAS  C:\Users\Herry\AppData\Local\Temp\ccuIEJCt.s 			page 90


 4237 1193 9201     		.2byte	0x192
 4238 1195 FB040000 		.4byte	0x4fb
 4239 1199 02       		.uleb128 0x2
 4240 119a 91       		.byte	0x91
 4241 119b 5C       		.sleb128 -36
 4242 119c 00       		.byte	0
 4243 119d 20       		.uleb128 0x20
 4244 119e 8A050000 		.4byte	.LASF542
 4245 11a2 01       		.byte	0x1
 4246 11a3 E701     		.2byte	0x1e7
 4247 11a5 83000000 		.4byte	0x83
 4248 11a9 00000000 		.4byte	.LFB7
 4249 11ad 70000000 		.4byte	.LFE7-.LFB7
 4250 11b1 01       		.uleb128 0x1
 4251 11b2 9C       		.byte	0x9c
 4252 11b3 E5110000 		.4byte	0x11e5
 4253 11b7 1E       		.uleb128 0x1e
 4254 11b8 8C0C0000 		.4byte	.LASF224
 4255 11bc 01       		.byte	0x1
 4256 11bd E701     		.2byte	0x1e7
 4257 11bf 6B000000 		.4byte	0x6b
 4258 11c3 02       		.uleb128 0x2
 4259 11c4 91       		.byte	0x91
 4260 11c5 6F       		.sleb128 -17
 4261 11c6 1E       		.uleb128 0x1e
 4262 11c7 59020000 		.4byte	.LASF516
 4263 11cb 01       		.byte	0x1
 4264 11cc E701     		.2byte	0x1e7
 4265 11ce E5110000 		.4byte	0x11e5
 4266 11d2 02       		.uleb128 0x2
 4267 11d3 91       		.byte	0x91
 4268 11d4 68       		.sleb128 -24
 4269 11d5 1F       		.uleb128 0x1f
 4270 11d6 56390000 		.4byte	.LASF517
 4271 11da 01       		.byte	0x1
 4272 11db E901     		.2byte	0x1e9
 4273 11dd 83000000 		.4byte	0x83
 4274 11e1 02       		.uleb128 0x2
 4275 11e2 91       		.byte	0x91
 4276 11e3 74       		.sleb128 -12
 4277 11e4 00       		.byte	0
 4278 11e5 09       		.uleb128 0x9
 4279 11e6 04       		.byte	0x4
 4280 11e7 EB110000 		.4byte	0x11eb
 4281 11eb 15       		.uleb128 0x15
 4282 11ec 33050000 		.4byte	0x533
 4283 11f0 1D       		.uleb128 0x1d
 4284 11f1 B92D0000 		.4byte	.LASF518
 4285 11f5 01       		.byte	0x1
 4286 11f6 0E02     		.2byte	0x20e
 4287 11f8 52040000 		.4byte	0x452
 4288 11fc 00000000 		.4byte	.LFB8
 4289 1200 18040000 		.4byte	.LFE8-.LFB8
 4290 1204 01       		.uleb128 0x1
 4291 1205 9C       		.byte	0x9c
 4292 1206 8D120000 		.4byte	0x128d
 4293 120a 1E       		.uleb128 0x1e
ARM GAS  C:\Users\Herry\AppData\Local\Temp\ccuIEJCt.s 			page 91


 4294 120b 59020000 		.4byte	.LASF516
 4295 120f 01       		.byte	0x1
 4296 1210 0E02     		.2byte	0x20e
 4297 1212 8D120000 		.4byte	0x128d
 4298 1216 02       		.uleb128 0x2
 4299 1217 91       		.byte	0x91
 4300 1218 54       		.sleb128 -44
 4301 1219 1F       		.uleb128 0x1f
 4302 121a D93A0000 		.4byte	.LASF519
 4303 121e 01       		.byte	0x1
 4304 121f 1002     		.2byte	0x210
 4305 1221 52040000 		.4byte	0x452
 4306 1225 02       		.uleb128 0x2
 4307 1226 91       		.byte	0x91
 4308 1227 6F       		.sleb128 -17
 4309 1228 1F       		.uleb128 0x1f
 4310 1229 27100000 		.4byte	.LASF520
 4311 122d 01       		.byte	0x1
 4312 122e 1102     		.2byte	0x211
 4313 1230 6B000000 		.4byte	0x6b
 4314 1234 02       		.uleb128 0x2
 4315 1235 91       		.byte	0x91
 4316 1236 6E       		.sleb128 -18
 4317 1237 1F       		.uleb128 0x1f
 4318 1238 6A2D0000 		.4byte	.LASF521
 4319 123c 01       		.byte	0x1
 4320 123d 1202     		.2byte	0x212
 4321 123f 6B000000 		.4byte	0x6b
 4322 1243 02       		.uleb128 0x2
 4323 1244 91       		.byte	0x91
 4324 1245 6D       		.sleb128 -19
 4325 1246 1F       		.uleb128 0x1f
 4326 1247 86300000 		.4byte	.LASF522
 4327 124b 01       		.byte	0x1
 4328 124c 1302     		.2byte	0x213
 4329 124e D1060000 		.4byte	0x6d1
 4330 1252 02       		.uleb128 0x2
 4331 1253 91       		.byte	0x91
 4332 1254 6C       		.sleb128 -20
 4333 1255 1F       		.uleb128 0x1f
 4334 1256 0B0E0000 		.4byte	.LASF523
 4335 125a 01       		.byte	0x1
 4336 125b 1402     		.2byte	0x214
 4337 125d 14080000 		.4byte	0x814
 4338 1261 02       		.uleb128 0x2
 4339 1262 91       		.byte	0x91
 4340 1263 5C       		.sleb128 -36
 4341 1264 1F       		.uleb128 0x1f
 4342 1265 56390000 		.4byte	.LASF517
 4343 1269 01       		.byte	0x1
 4344 126a 1502     		.2byte	0x215
 4345 126c 83000000 		.4byte	0x83
 4346 1270 02       		.uleb128 0x2
 4347 1271 91       		.byte	0x91
 4348 1272 68       		.sleb128 -24
 4349 1273 21       		.uleb128 0x21
 4350 1274 76020000 		.4byte	.LBB2
ARM GAS  C:\Users\Herry\AppData\Local\Temp\ccuIEJCt.s 			page 92


 4351 1278 28010000 		.4byte	.LBE2-.LBB2
 4352 127c 1F       		.uleb128 0x1f
 4353 127d F8280000 		.4byte	.LASF524
 4354 1281 01       		.byte	0x1
 4355 1282 6E02     		.2byte	0x26e
 4356 1284 6B000000 		.4byte	0x6b
 4357 1288 02       		.uleb128 0x2
 4358 1289 91       		.byte	0x91
 4359 128a 67       		.sleb128 -25
 4360 128b 00       		.byte	0
 4361 128c 00       		.byte	0
 4362 128d 09       		.uleb128 0x9
 4363 128e 04       		.byte	0x4
 4364 128f 33050000 		.4byte	0x533
 4365 1293 1D       		.uleb128 0x1d
 4366 1294 72310000 		.4byte	.LASF525
 4367 1298 01       		.byte	0x1
 4368 1299 B702     		.2byte	0x2b7
 4369 129b 3F030000 		.4byte	0x33f
 4370 129f 00000000 		.4byte	.LFB9
 4371 12a3 D4010000 		.4byte	.LFE9-.LFB9
 4372 12a7 01       		.uleb128 0x1
 4373 12a8 9C       		.byte	0x9c
 4374 12a9 35130000 		.4byte	0x1335
 4375 12ad 1E       		.uleb128 0x1e
 4376 12ae BB2E0000 		.4byte	.LASF164
 4377 12b2 01       		.byte	0x1
 4378 12b3 B702     		.2byte	0x2b7
 4379 12b5 8E040000 		.4byte	0x48e
 4380 12b9 02       		.uleb128 0x2
 4381 12ba 91       		.byte	0x91
 4382 12bb 4C       		.sleb128 -52
 4383 12bc 1E       		.uleb128 0x1e
 4384 12bd 8C0C0000 		.4byte	.LASF224
 4385 12c1 01       		.byte	0x1
 4386 12c2 B802     		.2byte	0x2b8
 4387 12c4 6B000000 		.4byte	0x6b
 4388 12c8 02       		.uleb128 0x2
 4389 12c9 91       		.byte	0x91
 4390 12ca 4B       		.sleb128 -53
 4391 12cb 1E       		.uleb128 0x1e
 4392 12cc 30010000 		.4byte	.LASF225
 4393 12d0 01       		.byte	0x1
 4394 12d1 B802     		.2byte	0x2b8
 4395 12d3 D1060000 		.4byte	0x6d1
 4396 12d7 02       		.uleb128 0x2
 4397 12d8 91       		.byte	0x91
 4398 12d9 4A       		.sleb128 -54
 4399 12da 1E       		.uleb128 0x1e
 4400 12db 1D250000 		.4byte	.LASF505
 4401 12df 01       		.byte	0x1
 4402 12e0 B802     		.2byte	0x2b8
 4403 12e2 6B000000 		.4byte	0x6b
 4404 12e6 02       		.uleb128 0x2
 4405 12e7 91       		.byte	0x91
 4406 12e8 49       		.sleb128 -55
 4407 12e9 1E       		.uleb128 0x1e
ARM GAS  C:\Users\Herry\AppData\Local\Temp\ccuIEJCt.s 			page 93


 4408 12ea 91160000 		.4byte	.LASF506
 4409 12ee 01       		.byte	0x1
 4410 12ef B802     		.2byte	0x2b8
 4411 12f1 4B030000 		.4byte	0x34b
 4412 12f5 02       		.uleb128 0x2
 4413 12f6 91       		.byte	0x91
 4414 12f7 00       		.sleb128 0
 4415 12f8 1F       		.uleb128 0x1f
 4416 12f9 51300000 		.4byte	.LASF507
 4417 12fd 01       		.byte	0x1
 4418 12fe BA02     		.2byte	0x2ba
 4419 1300 3F030000 		.4byte	0x33f
 4420 1304 02       		.uleb128 0x2
 4421 1305 91       		.byte	0x91
 4422 1306 6E       		.sleb128 -18
 4423 1307 1F       		.uleb128 0x1f
 4424 1308 3E350000 		.4byte	.LASF515
 4425 130c 01       		.byte	0x1
 4426 130d BB02     		.2byte	0x2bb
 4427 130f B5070000 		.4byte	0x7b5
 4428 1313 02       		.uleb128 0x2
 4429 1314 91       		.byte	0x91
 4430 1315 68       		.sleb128 -24
 4431 1316 1F       		.uleb128 0x1f
 4432 1317 51290000 		.4byte	.LASF526
 4433 131b 01       		.byte	0x1
 4434 131c BC02     		.2byte	0x2bc
 4435 131e 07050000 		.4byte	0x507
 4436 1322 02       		.uleb128 0x2
 4437 1323 91       		.byte	0x91
 4438 1324 5C       		.sleb128 -36
 4439 1325 1F       		.uleb128 0x1f
 4440 1326 701A0000 		.4byte	.LASF509
 4441 132a 01       		.byte	0x1
 4442 132b BD02     		.2byte	0x2bd
 4443 132d FB040000 		.4byte	0x4fb
 4444 1331 02       		.uleb128 0x2
 4445 1332 91       		.byte	0x91
 4446 1333 50       		.sleb128 -48
 4447 1334 00       		.byte	0
 4448 1335 22       		.uleb128 0x22
 4449 1336 68040000 		.4byte	.LASF528
 4450 133a 01       		.byte	0x1
 4451 133b 1303     		.2byte	0x313
 4452 133d 00000000 		.4byte	.LFB10
 4453 1341 74000000 		.4byte	.LFE10-.LFB10
 4454 1345 01       		.uleb128 0x1
 4455 1346 9C       		.byte	0x9c
 4456 1347 6A130000 		.4byte	0x136a
 4457 134b 1F       		.uleb128 0x1f
 4458 134c 661B0000 		.4byte	.LASF529
 4459 1350 01       		.byte	0x1
 4460 1351 1703     		.2byte	0x317
 4461 1353 6B000000 		.4byte	0x6b
 4462 1357 02       		.uleb128 0x2
 4463 1358 91       		.byte	0x91
 4464 1359 76       		.sleb128 -10
ARM GAS  C:\Users\Herry\AppData\Local\Temp\ccuIEJCt.s 			page 94


 4465 135a 1F       		.uleb128 0x1f
 4466 135b 27100000 		.4byte	.LASF520
 4467 135f 01       		.byte	0x1
 4468 1360 1803     		.2byte	0x318
 4469 1362 6B000000 		.4byte	0x6b
 4470 1366 02       		.uleb128 0x2
 4471 1367 91       		.byte	0x91
 4472 1368 77       		.sleb128 -9
 4473 1369 00       		.byte	0
 4474 136a 1C       		.uleb128 0x1c
 4475 136b ED050000 		.4byte	.LASF530
 4476 136f 01       		.byte	0x1
 4477 1370 12       		.byte	0x12
 4478 1371 19060000 		.4byte	0x619
 4479 1375 05       		.uleb128 0x5
 4480 1376 03       		.byte	0x3
 4481 1377 00000000 		.4byte	CyBle_HidsApplCallback
 4482 137b 16       		.uleb128 0x16
 4483 137c 35070000 		.4byte	0x735
 4484 1380 8B130000 		.4byte	0x138b
 4485 1384 17       		.uleb128 0x17
 4486 1385 A9000000 		.4byte	0xa9
 4487 1389 00       		.byte	0
 4488 138a 00       		.byte	0
 4489 138b 1C       		.uleb128 0x1c
 4490 138c 57260000 		.4byte	.LASF531
 4491 1390 01       		.byte	0x1
 4492 1391 16       		.byte	0x16
 4493 1392 9C130000 		.4byte	0x139c
 4494 1396 05       		.uleb128 0x5
 4495 1397 03       		.byte	0x3
 4496 1398 00000000 		.4byte	cyBle_hids1ReportArray
 4497 139c 15       		.uleb128 0x15
 4498 139d 7B130000 		.4byte	0x137b
 4499 13a1 23       		.uleb128 0x23
 4500 13a2 4A370000 		.4byte	.LASF532
 4501 13a6 07       		.byte	0x7
 4502 13a7 8802     		.2byte	0x288
 4503 13a9 A4000000 		.4byte	0xa4
 4504 13ad 23       		.uleb128 0x23
 4505 13ae 4E2F0000 		.4byte	.LASF533
 4506 13b2 07       		.byte	0x7
 4507 13b3 A702     		.2byte	0x2a7
 4508 13b5 6B000000 		.4byte	0x6b
 4509 13b9 23       		.uleb128 0x23
 4510 13ba 00000000 		.4byte	.LASF534
 4511 13be 07       		.byte	0x7
 4512 13bf AD02     		.2byte	0x2ad
 4513 13c1 6B000000 		.4byte	0x6b
 4514 13c5 16       		.uleb128 0x16
 4515 13c6 0D060000 		.4byte	0x60d
 4516 13ca D5130000 		.4byte	0x13d5
 4517 13ce 17       		.uleb128 0x17
 4518 13cf A9000000 		.4byte	0xa9
 4519 13d3 2C       		.byte	0x2c
 4520 13d4 00       		.byte	0
 4521 13d5 24       		.uleb128 0x24
ARM GAS  C:\Users\Herry\AppData\Local\Temp\ccuIEJCt.s 			page 95


 4522 13d6 75210000 		.4byte	.LASF535
 4523 13da 0B       		.byte	0xb
 4524 13db EE       		.byte	0xee
 4525 13dc E0130000 		.4byte	0x13e0
 4526 13e0 15       		.uleb128 0x15
 4527 13e1 C5130000 		.4byte	0x13c5
 4528 13e5 16       		.uleb128 0x16
 4529 13e6 D0070000 		.4byte	0x7d0
 4530 13ea F5130000 		.4byte	0x13f5
 4531 13ee 17       		.uleb128 0x17
 4532 13ef A9000000 		.4byte	0xa9
 4533 13f3 00       		.byte	0
 4534 13f4 00       		.byte	0
 4535 13f5 25       		.uleb128 0x25
 4536 13f6 1D0C0000 		.4byte	.LASF536
 4537 13fa 01       		.byte	0x1
 4538 13fb 1E       		.byte	0x1e
 4539 13fc 06140000 		.4byte	0x1406
 4540 1400 05       		.uleb128 0x5
 4541 1401 03       		.byte	0x3
 4542 1402 00000000 		.4byte	cyBle_hidss
 4543 1406 15       		.uleb128 0x15
 4544 1407 E5130000 		.4byte	0x13e5
 4545 140b 23       		.uleb128 0x23
 4546 140c 7A300000 		.4byte	.LASF537
 4547 1410 0A       		.byte	0xa
 4548 1411 DA09     		.2byte	0x9da
 4549 1413 BA0F0000 		.4byte	0xfba
 4550 1417 00       		.byte	0
 4551              		.section	.debug_abbrev,"",%progbits
 4552              	.Ldebug_abbrev0:
 4553 0000 01       		.uleb128 0x1
 4554 0001 11       		.uleb128 0x11
 4555 0002 01       		.byte	0x1
 4556 0003 25       		.uleb128 0x25
 4557 0004 0E       		.uleb128 0xe
 4558 0005 13       		.uleb128 0x13
 4559 0006 0B       		.uleb128 0xb
 4560 0007 03       		.uleb128 0x3
 4561 0008 0E       		.uleb128 0xe
 4562 0009 1B       		.uleb128 0x1b
 4563 000a 0E       		.uleb128 0xe
 4564 000b 55       		.uleb128 0x55
 4565 000c 17       		.uleb128 0x17
 4566 000d 11       		.uleb128 0x11
 4567 000e 01       		.uleb128 0x1
 4568 000f 10       		.uleb128 0x10
 4569 0010 17       		.uleb128 0x17
 4570 0011 00       		.byte	0
 4571 0012 00       		.byte	0
 4572 0013 02       		.uleb128 0x2
 4573 0014 24       		.uleb128 0x24
 4574 0015 00       		.byte	0
 4575 0016 0B       		.uleb128 0xb
 4576 0017 0B       		.uleb128 0xb
 4577 0018 3E       		.uleb128 0x3e
 4578 0019 0B       		.uleb128 0xb
ARM GAS  C:\Users\Herry\AppData\Local\Temp\ccuIEJCt.s 			page 96


 4579 001a 03       		.uleb128 0x3
 4580 001b 0E       		.uleb128 0xe
 4581 001c 00       		.byte	0
 4582 001d 00       		.byte	0
 4583 001e 03       		.uleb128 0x3
 4584 001f 24       		.uleb128 0x24
 4585 0020 00       		.byte	0
 4586 0021 0B       		.uleb128 0xb
 4587 0022 0B       		.uleb128 0xb
 4588 0023 3E       		.uleb128 0x3e
 4589 0024 0B       		.uleb128 0xb
 4590 0025 03       		.uleb128 0x3
 4591 0026 08       		.uleb128 0x8
 4592 0027 00       		.byte	0
 4593 0028 00       		.byte	0
 4594 0029 04       		.uleb128 0x4
 4595 002a 16       		.uleb128 0x16
 4596 002b 00       		.byte	0
 4597 002c 03       		.uleb128 0x3
 4598 002d 0E       		.uleb128 0xe
 4599 002e 3A       		.uleb128 0x3a
 4600 002f 0B       		.uleb128 0xb
 4601 0030 3B       		.uleb128 0x3b
 4602 0031 05       		.uleb128 0x5
 4603 0032 49       		.uleb128 0x49
 4604 0033 13       		.uleb128 0x13
 4605 0034 00       		.byte	0
 4606 0035 00       		.byte	0
 4607 0036 05       		.uleb128 0x5
 4608 0037 35       		.uleb128 0x35
 4609 0038 00       		.byte	0
 4610 0039 49       		.uleb128 0x49
 4611 003a 13       		.uleb128 0x13
 4612 003b 00       		.byte	0
 4613 003c 00       		.byte	0
 4614 003d 06       		.uleb128 0x6
 4615 003e 0F       		.uleb128 0xf
 4616 003f 00       		.byte	0
 4617 0040 0B       		.uleb128 0xb
 4618 0041 0B       		.uleb128 0xb
 4619 0042 00       		.byte	0
 4620 0043 00       		.byte	0
 4621 0044 07       		.uleb128 0x7
 4622 0045 04       		.uleb128 0x4
 4623 0046 01       		.byte	0x1
 4624 0047 0B       		.uleb128 0xb
 4625 0048 0B       		.uleb128 0xb
 4626 0049 3A       		.uleb128 0x3a
 4627 004a 0B       		.uleb128 0xb
 4628 004b 3B       		.uleb128 0x3b
 4629 004c 05       		.uleb128 0x5
 4630 004d 01       		.uleb128 0x1
 4631 004e 13       		.uleb128 0x13
 4632 004f 00       		.byte	0
 4633 0050 00       		.byte	0
 4634 0051 08       		.uleb128 0x8
 4635 0052 28       		.uleb128 0x28
ARM GAS  C:\Users\Herry\AppData\Local\Temp\ccuIEJCt.s 			page 97


 4636 0053 00       		.byte	0
 4637 0054 03       		.uleb128 0x3
 4638 0055 0E       		.uleb128 0xe
 4639 0056 1C       		.uleb128 0x1c
 4640 0057 0D       		.uleb128 0xd
 4641 0058 00       		.byte	0
 4642 0059 00       		.byte	0
 4643 005a 09       		.uleb128 0x9
 4644 005b 0F       		.uleb128 0xf
 4645 005c 00       		.byte	0
 4646 005d 0B       		.uleb128 0xb
 4647 005e 0B       		.uleb128 0xb
 4648 005f 49       		.uleb128 0x49
 4649 0060 13       		.uleb128 0x13
 4650 0061 00       		.byte	0
 4651 0062 00       		.byte	0
 4652 0063 0A       		.uleb128 0xa
 4653 0064 04       		.uleb128 0x4
 4654 0065 01       		.byte	0x1
 4655 0066 0B       		.uleb128 0xb
 4656 0067 0B       		.uleb128 0xb
 4657 0068 3A       		.uleb128 0x3a
 4658 0069 0B       		.uleb128 0xb
 4659 006a 3B       		.uleb128 0x3b
 4660 006b 0B       		.uleb128 0xb
 4661 006c 01       		.uleb128 0x1
 4662 006d 13       		.uleb128 0x13
 4663 006e 00       		.byte	0
 4664 006f 00       		.byte	0
 4665 0070 0B       		.uleb128 0xb
 4666 0071 13       		.uleb128 0x13
 4667 0072 01       		.byte	0x1
 4668 0073 0B       		.uleb128 0xb
 4669 0074 0B       		.uleb128 0xb
 4670 0075 3A       		.uleb128 0x3a
 4671 0076 0B       		.uleb128 0xb
 4672 0077 3B       		.uleb128 0x3b
 4673 0078 05       		.uleb128 0x5
 4674 0079 01       		.uleb128 0x1
 4675 007a 13       		.uleb128 0x13
 4676 007b 00       		.byte	0
 4677 007c 00       		.byte	0
 4678 007d 0C       		.uleb128 0xc
 4679 007e 0D       		.uleb128 0xd
 4680 007f 00       		.byte	0
 4681 0080 03       		.uleb128 0x3
 4682 0081 0E       		.uleb128 0xe
 4683 0082 3A       		.uleb128 0x3a
 4684 0083 0B       		.uleb128 0xb
 4685 0084 3B       		.uleb128 0x3b
 4686 0085 05       		.uleb128 0x5
 4687 0086 49       		.uleb128 0x49
 4688 0087 13       		.uleb128 0x13
 4689 0088 38       		.uleb128 0x38
 4690 0089 0B       		.uleb128 0xb
 4691 008a 00       		.byte	0
 4692 008b 00       		.byte	0
ARM GAS  C:\Users\Herry\AppData\Local\Temp\ccuIEJCt.s 			page 98


 4693 008c 0D       		.uleb128 0xd
 4694 008d 0D       		.uleb128 0xd
 4695 008e 00       		.byte	0
 4696 008f 03       		.uleb128 0x3
 4697 0090 08       		.uleb128 0x8
 4698 0091 3A       		.uleb128 0x3a
 4699 0092 0B       		.uleb128 0xb
 4700 0093 3B       		.uleb128 0x3b
 4701 0094 05       		.uleb128 0x5
 4702 0095 49       		.uleb128 0x49
 4703 0096 13       		.uleb128 0x13
 4704 0097 38       		.uleb128 0x38
 4705 0098 0B       		.uleb128 0xb
 4706 0099 00       		.byte	0
 4707 009a 00       		.byte	0
 4708 009b 0E       		.uleb128 0xe
 4709 009c 16       		.uleb128 0x16
 4710 009d 00       		.byte	0
 4711 009e 03       		.uleb128 0x3
 4712 009f 0E       		.uleb128 0xe
 4713 00a0 3A       		.uleb128 0x3a
 4714 00a1 0B       		.uleb128 0xb
 4715 00a2 3B       		.uleb128 0x3b
 4716 00a3 0B       		.uleb128 0xb
 4717 00a4 49       		.uleb128 0x49
 4718 00a5 13       		.uleb128 0x13
 4719 00a6 00       		.byte	0
 4720 00a7 00       		.byte	0
 4721 00a8 0F       		.uleb128 0xf
 4722 00a9 13       		.uleb128 0x13
 4723 00aa 01       		.byte	0x1
 4724 00ab 0B       		.uleb128 0xb
 4725 00ac 0B       		.uleb128 0xb
 4726 00ad 3A       		.uleb128 0x3a
 4727 00ae 0B       		.uleb128 0xb
 4728 00af 3B       		.uleb128 0x3b
 4729 00b0 0B       		.uleb128 0xb
 4730 00b1 01       		.uleb128 0x1
 4731 00b2 13       		.uleb128 0x13
 4732 00b3 00       		.byte	0
 4733 00b4 00       		.byte	0
 4734 00b5 10       		.uleb128 0x10
 4735 00b6 0D       		.uleb128 0xd
 4736 00b7 00       		.byte	0
 4737 00b8 03       		.uleb128 0x3
 4738 00b9 0E       		.uleb128 0xe
 4739 00ba 3A       		.uleb128 0x3a
 4740 00bb 0B       		.uleb128 0xb
 4741 00bc 3B       		.uleb128 0x3b
 4742 00bd 0B       		.uleb128 0xb
 4743 00be 49       		.uleb128 0x49
 4744 00bf 13       		.uleb128 0x13
 4745 00c0 38       		.uleb128 0x38
 4746 00c1 0B       		.uleb128 0xb
 4747 00c2 00       		.byte	0
 4748 00c3 00       		.byte	0
 4749 00c4 11       		.uleb128 0x11
ARM GAS  C:\Users\Herry\AppData\Local\Temp\ccuIEJCt.s 			page 99


 4750 00c5 17       		.uleb128 0x17
 4751 00c6 01       		.byte	0x1
 4752 00c7 0B       		.uleb128 0xb
 4753 00c8 0B       		.uleb128 0xb
 4754 00c9 3A       		.uleb128 0x3a
 4755 00ca 0B       		.uleb128 0xb
 4756 00cb 3B       		.uleb128 0x3b
 4757 00cc 0B       		.uleb128 0xb
 4758 00cd 01       		.uleb128 0x1
 4759 00ce 13       		.uleb128 0x13
 4760 00cf 00       		.byte	0
 4761 00d0 00       		.byte	0
 4762 00d1 12       		.uleb128 0x12
 4763 00d2 0D       		.uleb128 0xd
 4764 00d3 00       		.byte	0
 4765 00d4 03       		.uleb128 0x3
 4766 00d5 0E       		.uleb128 0xe
 4767 00d6 3A       		.uleb128 0x3a
 4768 00d7 0B       		.uleb128 0xb
 4769 00d8 3B       		.uleb128 0x3b
 4770 00d9 0B       		.uleb128 0xb
 4771 00da 49       		.uleb128 0x49
 4772 00db 13       		.uleb128 0x13
 4773 00dc 00       		.byte	0
 4774 00dd 00       		.byte	0
 4775 00de 13       		.uleb128 0x13
 4776 00df 15       		.uleb128 0x15
 4777 00e0 01       		.byte	0x1
 4778 00e1 27       		.uleb128 0x27
 4779 00e2 19       		.uleb128 0x19
 4780 00e3 01       		.uleb128 0x1
 4781 00e4 13       		.uleb128 0x13
 4782 00e5 00       		.byte	0
 4783 00e6 00       		.byte	0
 4784 00e7 14       		.uleb128 0x14
 4785 00e8 05       		.uleb128 0x5
 4786 00e9 00       		.byte	0
 4787 00ea 49       		.uleb128 0x49
 4788 00eb 13       		.uleb128 0x13
 4789 00ec 00       		.byte	0
 4790 00ed 00       		.byte	0
 4791 00ee 15       		.uleb128 0x15
 4792 00ef 26       		.uleb128 0x26
 4793 00f0 00       		.byte	0
 4794 00f1 49       		.uleb128 0x49
 4795 00f2 13       		.uleb128 0x13
 4796 00f3 00       		.byte	0
 4797 00f4 00       		.byte	0
 4798 00f5 16       		.uleb128 0x16
 4799 00f6 01       		.uleb128 0x1
 4800 00f7 01       		.byte	0x1
 4801 00f8 49       		.uleb128 0x49
 4802 00f9 13       		.uleb128 0x13
 4803 00fa 01       		.uleb128 0x1
 4804 00fb 13       		.uleb128 0x13
 4805 00fc 00       		.byte	0
 4806 00fd 00       		.byte	0
ARM GAS  C:\Users\Herry\AppData\Local\Temp\ccuIEJCt.s 			page 100


 4807 00fe 17       		.uleb128 0x17
 4808 00ff 21       		.uleb128 0x21
 4809 0100 00       		.byte	0
 4810 0101 49       		.uleb128 0x49
 4811 0102 13       		.uleb128 0x13
 4812 0103 2F       		.uleb128 0x2f
 4813 0104 0B       		.uleb128 0xb
 4814 0105 00       		.byte	0
 4815 0106 00       		.byte	0
 4816 0107 18       		.uleb128 0x18
 4817 0108 2E       		.uleb128 0x2e
 4818 0109 00       		.byte	0
 4819 010a 3F       		.uleb128 0x3f
 4820 010b 19       		.uleb128 0x19
 4821 010c 03       		.uleb128 0x3
 4822 010d 0E       		.uleb128 0xe
 4823 010e 3A       		.uleb128 0x3a
 4824 010f 0B       		.uleb128 0xb
 4825 0110 3B       		.uleb128 0x3b
 4826 0111 0B       		.uleb128 0xb
 4827 0112 27       		.uleb128 0x27
 4828 0113 19       		.uleb128 0x19
 4829 0114 11       		.uleb128 0x11
 4830 0115 01       		.uleb128 0x1
 4831 0116 12       		.uleb128 0x12
 4832 0117 06       		.uleb128 0x6
 4833 0118 40       		.uleb128 0x40
 4834 0119 18       		.uleb128 0x18
 4835 011a 9742     		.uleb128 0x2117
 4836 011c 19       		.uleb128 0x19
 4837 011d 00       		.byte	0
 4838 011e 00       		.byte	0
 4839 011f 19       		.uleb128 0x19
 4840 0120 2E       		.uleb128 0x2e
 4841 0121 01       		.byte	0x1
 4842 0122 3F       		.uleb128 0x3f
 4843 0123 19       		.uleb128 0x19
 4844 0124 03       		.uleb128 0x3
 4845 0125 0E       		.uleb128 0xe
 4846 0126 3A       		.uleb128 0x3a
 4847 0127 0B       		.uleb128 0xb
 4848 0128 3B       		.uleb128 0x3b
 4849 0129 0B       		.uleb128 0xb
 4850 012a 27       		.uleb128 0x27
 4851 012b 19       		.uleb128 0x19
 4852 012c 11       		.uleb128 0x11
 4853 012d 01       		.uleb128 0x1
 4854 012e 12       		.uleb128 0x12
 4855 012f 06       		.uleb128 0x6
 4856 0130 40       		.uleb128 0x40
 4857 0131 18       		.uleb128 0x18
 4858 0132 9742     		.uleb128 0x2117
 4859 0134 19       		.uleb128 0x19
 4860 0135 01       		.uleb128 0x1
 4861 0136 13       		.uleb128 0x13
 4862 0137 00       		.byte	0
 4863 0138 00       		.byte	0
ARM GAS  C:\Users\Herry\AppData\Local\Temp\ccuIEJCt.s 			page 101


 4864 0139 1A       		.uleb128 0x1a
 4865 013a 05       		.uleb128 0x5
 4866 013b 00       		.byte	0
 4867 013c 03       		.uleb128 0x3
 4868 013d 0E       		.uleb128 0xe
 4869 013e 3A       		.uleb128 0x3a
 4870 013f 0B       		.uleb128 0xb
 4871 0140 3B       		.uleb128 0x3b
 4872 0141 0B       		.uleb128 0xb
 4873 0142 49       		.uleb128 0x49
 4874 0143 13       		.uleb128 0x13
 4875 0144 02       		.uleb128 0x2
 4876 0145 18       		.uleb128 0x18
 4877 0146 00       		.byte	0
 4878 0147 00       		.byte	0
 4879 0148 1B       		.uleb128 0x1b
 4880 0149 2E       		.uleb128 0x2e
 4881 014a 01       		.byte	0x1
 4882 014b 3F       		.uleb128 0x3f
 4883 014c 19       		.uleb128 0x19
 4884 014d 03       		.uleb128 0x3
 4885 014e 0E       		.uleb128 0xe
 4886 014f 3A       		.uleb128 0x3a
 4887 0150 0B       		.uleb128 0xb
 4888 0151 3B       		.uleb128 0x3b
 4889 0152 0B       		.uleb128 0xb
 4890 0153 27       		.uleb128 0x27
 4891 0154 19       		.uleb128 0x19
 4892 0155 49       		.uleb128 0x49
 4893 0156 13       		.uleb128 0x13
 4894 0157 11       		.uleb128 0x11
 4895 0158 01       		.uleb128 0x1
 4896 0159 12       		.uleb128 0x12
 4897 015a 06       		.uleb128 0x6
 4898 015b 40       		.uleb128 0x40
 4899 015c 18       		.uleb128 0x18
 4900 015d 9642     		.uleb128 0x2116
 4901 015f 19       		.uleb128 0x19
 4902 0160 01       		.uleb128 0x1
 4903 0161 13       		.uleb128 0x13
 4904 0162 00       		.byte	0
 4905 0163 00       		.byte	0
 4906 0164 1C       		.uleb128 0x1c
 4907 0165 34       		.uleb128 0x34
 4908 0166 00       		.byte	0
 4909 0167 03       		.uleb128 0x3
 4910 0168 0E       		.uleb128 0xe
 4911 0169 3A       		.uleb128 0x3a
 4912 016a 0B       		.uleb128 0xb
 4913 016b 3B       		.uleb128 0x3b
 4914 016c 0B       		.uleb128 0xb
 4915 016d 49       		.uleb128 0x49
 4916 016e 13       		.uleb128 0x13
 4917 016f 02       		.uleb128 0x2
 4918 0170 18       		.uleb128 0x18
 4919 0171 00       		.byte	0
 4920 0172 00       		.byte	0
ARM GAS  C:\Users\Herry\AppData\Local\Temp\ccuIEJCt.s 			page 102


 4921 0173 1D       		.uleb128 0x1d
 4922 0174 2E       		.uleb128 0x2e
 4923 0175 01       		.byte	0x1
 4924 0176 3F       		.uleb128 0x3f
 4925 0177 19       		.uleb128 0x19
 4926 0178 03       		.uleb128 0x3
 4927 0179 0E       		.uleb128 0xe
 4928 017a 3A       		.uleb128 0x3a
 4929 017b 0B       		.uleb128 0xb
 4930 017c 3B       		.uleb128 0x3b
 4931 017d 05       		.uleb128 0x5
 4932 017e 27       		.uleb128 0x27
 4933 017f 19       		.uleb128 0x19
 4934 0180 49       		.uleb128 0x49
 4935 0181 13       		.uleb128 0x13
 4936 0182 11       		.uleb128 0x11
 4937 0183 01       		.uleb128 0x1
 4938 0184 12       		.uleb128 0x12
 4939 0185 06       		.uleb128 0x6
 4940 0186 40       		.uleb128 0x40
 4941 0187 18       		.uleb128 0x18
 4942 0188 9642     		.uleb128 0x2116
 4943 018a 19       		.uleb128 0x19
 4944 018b 01       		.uleb128 0x1
 4945 018c 13       		.uleb128 0x13
 4946 018d 00       		.byte	0
 4947 018e 00       		.byte	0
 4948 018f 1E       		.uleb128 0x1e
 4949 0190 05       		.uleb128 0x5
 4950 0191 00       		.byte	0
 4951 0192 03       		.uleb128 0x3
 4952 0193 0E       		.uleb128 0xe
 4953 0194 3A       		.uleb128 0x3a
 4954 0195 0B       		.uleb128 0xb
 4955 0196 3B       		.uleb128 0x3b
 4956 0197 05       		.uleb128 0x5
 4957 0198 49       		.uleb128 0x49
 4958 0199 13       		.uleb128 0x13
 4959 019a 02       		.uleb128 0x2
 4960 019b 18       		.uleb128 0x18
 4961 019c 00       		.byte	0
 4962 019d 00       		.byte	0
 4963 019e 1F       		.uleb128 0x1f
 4964 019f 34       		.uleb128 0x34
 4965 01a0 00       		.byte	0
 4966 01a1 03       		.uleb128 0x3
 4967 01a2 0E       		.uleb128 0xe
 4968 01a3 3A       		.uleb128 0x3a
 4969 01a4 0B       		.uleb128 0xb
 4970 01a5 3B       		.uleb128 0x3b
 4971 01a6 05       		.uleb128 0x5
 4972 01a7 49       		.uleb128 0x49
 4973 01a8 13       		.uleb128 0x13
 4974 01a9 02       		.uleb128 0x2
 4975 01aa 18       		.uleb128 0x18
 4976 01ab 00       		.byte	0
 4977 01ac 00       		.byte	0
ARM GAS  C:\Users\Herry\AppData\Local\Temp\ccuIEJCt.s 			page 103


 4978 01ad 20       		.uleb128 0x20
 4979 01ae 2E       		.uleb128 0x2e
 4980 01af 01       		.byte	0x1
 4981 01b0 03       		.uleb128 0x3
 4982 01b1 0E       		.uleb128 0xe
 4983 01b2 3A       		.uleb128 0x3a
 4984 01b3 0B       		.uleb128 0xb
 4985 01b4 3B       		.uleb128 0x3b
 4986 01b5 05       		.uleb128 0x5
 4987 01b6 27       		.uleb128 0x27
 4988 01b7 19       		.uleb128 0x19
 4989 01b8 49       		.uleb128 0x49
 4990 01b9 13       		.uleb128 0x13
 4991 01ba 11       		.uleb128 0x11
 4992 01bb 01       		.uleb128 0x1
 4993 01bc 12       		.uleb128 0x12
 4994 01bd 06       		.uleb128 0x6
 4995 01be 40       		.uleb128 0x40
 4996 01bf 18       		.uleb128 0x18
 4997 01c0 9642     		.uleb128 0x2116
 4998 01c2 19       		.uleb128 0x19
 4999 01c3 01       		.uleb128 0x1
 5000 01c4 13       		.uleb128 0x13
 5001 01c5 00       		.byte	0
 5002 01c6 00       		.byte	0
 5003 01c7 21       		.uleb128 0x21
 5004 01c8 0B       		.uleb128 0xb
 5005 01c9 01       		.byte	0x1
 5006 01ca 11       		.uleb128 0x11
 5007 01cb 01       		.uleb128 0x1
 5008 01cc 12       		.uleb128 0x12
 5009 01cd 06       		.uleb128 0x6
 5010 01ce 00       		.byte	0
 5011 01cf 00       		.byte	0
 5012 01d0 22       		.uleb128 0x22
 5013 01d1 2E       		.uleb128 0x2e
 5014 01d2 01       		.byte	0x1
 5015 01d3 3F       		.uleb128 0x3f
 5016 01d4 19       		.uleb128 0x19
 5017 01d5 03       		.uleb128 0x3
 5018 01d6 0E       		.uleb128 0xe
 5019 01d7 3A       		.uleb128 0x3a
 5020 01d8 0B       		.uleb128 0xb
 5021 01d9 3B       		.uleb128 0x3b
 5022 01da 05       		.uleb128 0x5
 5023 01db 27       		.uleb128 0x27
 5024 01dc 19       		.uleb128 0x19
 5025 01dd 11       		.uleb128 0x11
 5026 01de 01       		.uleb128 0x1
 5027 01df 12       		.uleb128 0x12
 5028 01e0 06       		.uleb128 0x6
 5029 01e1 40       		.uleb128 0x40
 5030 01e2 18       		.uleb128 0x18
 5031 01e3 9742     		.uleb128 0x2117
 5032 01e5 19       		.uleb128 0x19
 5033 01e6 01       		.uleb128 0x1
 5034 01e7 13       		.uleb128 0x13
ARM GAS  C:\Users\Herry\AppData\Local\Temp\ccuIEJCt.s 			page 104


 5035 01e8 00       		.byte	0
 5036 01e9 00       		.byte	0
 5037 01ea 23       		.uleb128 0x23
 5038 01eb 34       		.uleb128 0x34
 5039 01ec 00       		.byte	0
 5040 01ed 03       		.uleb128 0x3
 5041 01ee 0E       		.uleb128 0xe
 5042 01ef 3A       		.uleb128 0x3a
 5043 01f0 0B       		.uleb128 0xb
 5044 01f1 3B       		.uleb128 0x3b
 5045 01f2 05       		.uleb128 0x5
 5046 01f3 49       		.uleb128 0x49
 5047 01f4 13       		.uleb128 0x13
 5048 01f5 3F       		.uleb128 0x3f
 5049 01f6 19       		.uleb128 0x19
 5050 01f7 3C       		.uleb128 0x3c
 5051 01f8 19       		.uleb128 0x19
 5052 01f9 00       		.byte	0
 5053 01fa 00       		.byte	0
 5054 01fb 24       		.uleb128 0x24
 5055 01fc 34       		.uleb128 0x34
 5056 01fd 00       		.byte	0
 5057 01fe 03       		.uleb128 0x3
 5058 01ff 0E       		.uleb128 0xe
 5059 0200 3A       		.uleb128 0x3a
 5060 0201 0B       		.uleb128 0xb
 5061 0202 3B       		.uleb128 0x3b
 5062 0203 0B       		.uleb128 0xb
 5063 0204 49       		.uleb128 0x49
 5064 0205 13       		.uleb128 0x13
 5065 0206 3F       		.uleb128 0x3f
 5066 0207 19       		.uleb128 0x19
 5067 0208 3C       		.uleb128 0x3c
 5068 0209 19       		.uleb128 0x19
 5069 020a 00       		.byte	0
 5070 020b 00       		.byte	0
 5071 020c 25       		.uleb128 0x25
 5072 020d 34       		.uleb128 0x34
 5073 020e 00       		.byte	0
 5074 020f 03       		.uleb128 0x3
 5075 0210 0E       		.uleb128 0xe
 5076 0211 3A       		.uleb128 0x3a
 5077 0212 0B       		.uleb128 0xb
 5078 0213 3B       		.uleb128 0x3b
 5079 0214 0B       		.uleb128 0xb
 5080 0215 49       		.uleb128 0x49
 5081 0216 13       		.uleb128 0x13
 5082 0217 3F       		.uleb128 0x3f
 5083 0218 19       		.uleb128 0x19
 5084 0219 02       		.uleb128 0x2
 5085 021a 18       		.uleb128 0x18
 5086 021b 00       		.byte	0
 5087 021c 00       		.byte	0
 5088 021d 00       		.byte	0
 5089              		.section	.debug_aranges,"",%progbits
 5090 0000 5C000000 		.4byte	0x5c
 5091 0004 0200     		.2byte	0x2
ARM GAS  C:\Users\Herry\AppData\Local\Temp\ccuIEJCt.s 			page 105


 5092 0006 00000000 		.4byte	.Ldebug_info0
 5093 000a 04       		.byte	0x4
 5094 000b 00       		.byte	0
 5095 000c 0000     		.2byte	0
 5096 000e 0000     		.2byte	0
 5097 0010 00000000 		.4byte	.LFB2
 5098 0014 08000000 		.4byte	.LFE2-.LFB2
 5099 0018 00000000 		.4byte	.LFB3
 5100 001c 18000000 		.4byte	.LFE3-.LFB3
 5101 0020 00000000 		.4byte	.LFB4
 5102 0024 D0010000 		.4byte	.LFE4-.LFB4
 5103 0028 00000000 		.4byte	.LFB5
 5104 002c D0010000 		.4byte	.LFE5-.LFB5
 5105 0030 00000000 		.4byte	.LFB6
 5106 0034 9C010000 		.4byte	.LFE6-.LFB6
 5107 0038 00000000 		.4byte	.LFB7
 5108 003c 70000000 		.4byte	.LFE7-.LFB7
 5109 0040 00000000 		.4byte	.LFB8
 5110 0044 18040000 		.4byte	.LFE8-.LFB8
 5111 0048 00000000 		.4byte	.LFB9
 5112 004c D4010000 		.4byte	.LFE9-.LFB9
 5113 0050 00000000 		.4byte	.LFB10
 5114 0054 74000000 		.4byte	.LFE10-.LFB10
 5115 0058 00000000 		.4byte	0
 5116 005c 00000000 		.4byte	0
 5117              		.section	.debug_ranges,"",%progbits
 5118              	.Ldebug_ranges0:
 5119 0000 00000000 		.4byte	.LFB2
 5120 0004 08000000 		.4byte	.LFE2
 5121 0008 00000000 		.4byte	.LFB3
 5122 000c 18000000 		.4byte	.LFE3
 5123 0010 00000000 		.4byte	.LFB4
 5124 0014 D0010000 		.4byte	.LFE4
 5125 0018 00000000 		.4byte	.LFB5
 5126 001c D0010000 		.4byte	.LFE5
 5127 0020 00000000 		.4byte	.LFB6
 5128 0024 9C010000 		.4byte	.LFE6
 5129 0028 00000000 		.4byte	.LFB7
 5130 002c 70000000 		.4byte	.LFE7
 5131 0030 00000000 		.4byte	.LFB8
 5132 0034 18040000 		.4byte	.LFE8
 5133 0038 00000000 		.4byte	.LFB9
 5134 003c D4010000 		.4byte	.LFE9
 5135 0040 00000000 		.4byte	.LFB10
 5136 0044 74000000 		.4byte	.LFE10
 5137 0048 00000000 		.4byte	0
 5138 004c 00000000 		.4byte	0
 5139              		.section	.debug_line,"",%progbits
 5140              	.Ldebug_line0:
 5141 0000 BF020000 		.section	.debug_str,"MS",%progbits,1
 5141      0200DF00 
 5141      00000201 
 5141      FB0E0D00 
 5141      01010101 
 5142              	.LASF534:
 5143 0000 6379426C 		.ascii	"cyBle_peerBonding\000"
 5143      655F7065 
ARM GAS  C:\Users\Herry\AppData\Local\Temp\ccuIEJCt.s 			page 106


 5143      6572426F 
 5143      6E64696E 
 5143      6700
 5144              	.LASF473:
 5145 0012 4359424C 		.ascii	"CYBLE_EVT_UDSC_READ_CHAR_RESPONSE\000"
 5145      455F4556 
 5145      545F5544 
 5145      53435F52 
 5145      4541445F 
 5146              	.LASF392:
 5147 0034 4359424C 		.ascii	"CYBLE_EVT_HTSS_NOTIFICATION_DISABLED\000"
 5147      455F4556 
 5147      545F4854 
 5147      53535F4E 
 5147      4F544946 
 5148              	.LASF142:
 5149 0059 4359424C 		.ascii	"CYBLE_GATT_ERR_INVALID_CRC\000"
 5149      455F4741 
 5149      54545F45 
 5149      52525F49 
 5149      4E56414C 
 5150              	.LASF192:
 5151 0074 4359424C 		.ascii	"CYBLE_DIS_CHAR_COUNT\000"
 5151      455F4449 
 5151      535F4348 
 5151      41525F43 
 5151      4F554E54 
 5152              	.LASF15:
 5153 0089 73697A65 		.ascii	"sizetype\000"
 5153      74797065 
 5153      00
 5154              	.LASF272:
 5155 0092 4359424C 		.ascii	"CYBLE_EVT_BCSC_READ_CHAR_RESPONSE\000"
 5155      455F4556 
 5155      545F4243 
 5155      53435F52 
 5155      4541445F 
 5156              	.LASF163:
 5157 00b4 4359424C 		.ascii	"CYBLE_GATTS_HANDLE_VALUE_NTF_T\000"
 5157      455F4741 
 5157      5454535F 
 5157      48414E44 
 5157      4C455F56 
 5158              	.LASF295:
 5159 00d3 4359424C 		.ascii	"CYBLE_EVT_CGMSC_INDICATION\000"
 5159      455F4556 
 5159      545F4347 
 5159      4D53435F 
 5159      494E4449 
 5160              	.LASF313:
 5161 00ee 4359424C 		.ascii	"CYBLE_EVT_CPSC_READ_DESCR_RESPONSE\000"
 5161      455F4556 
 5161      545F4350 
 5161      53435F52 
 5161      4541445F 
 5162              	.LASF450:
 5163 0111 4359424C 		.ascii	"CYBLE_EVT_RTUSS_WRITE_CHAR_CMD\000"
ARM GAS  C:\Users\Herry\AppData\Local\Temp\ccuIEJCt.s 			page 107


 5163      455F4556 
 5163      545F5254 
 5163      5553535F 
 5163      57524954 
 5164              	.LASF225:
 5165 0130 63686172 		.ascii	"charIndex\000"
 5165      496E6465 
 5165      7800
 5166              	.LASF484:
 5167 013a 4359424C 		.ascii	"CYBLE_EVT_WPTSC_NOTIFICATION\000"
 5167      455F4556 
 5167      545F5750 
 5167      5453435F 
 5167      4E4F5449 
 5168              	.LASF242:
 5169 0157 4359424C 		.ascii	"CYBLE_EVT_GATTC_INCL_DISCOVERY_COMPLETE\000"
 5169      455F4556 
 5169      545F4741 
 5169      5454435F 
 5169      494E434C 
 5170              	.LASF36:
 5171 017f 4359424C 		.ascii	"CYBLE_EVT_GAP_NUMERIC_COMPARISON_REQUEST\000"
 5171      455F4556 
 5171      545F4741 
 5171      505F4E55 
 5171      4D455249 
 5172              	.LASF490:
 5173 01a8 4359424C 		.ascii	"CYBLE_EVT_WSSS_INDICATION_ENABLED\000"
 5173      455F4556 
 5173      545F5753 
 5173      53535F49 
 5173      4E444943 
 5174              	.LASF311:
 5175 01ca 4359424C 		.ascii	"CYBLE_EVT_CPSC_READ_CHAR_RESPONSE\000"
 5175      455F4556 
 5175      545F4350 
 5175      53435F52 
 5175      4541445F 
 5176              	.LASF324:
 5177 01ec 4359424C 		.ascii	"CYBLE_EVT_CSCSC_READ_CHAR_RESPONSE\000"
 5177      455F4556 
 5177      545F4353 
 5177      4353435F 
 5177      52454144 
 5178              	.LASF300:
 5179 020f 4359424C 		.ascii	"CYBLE_EVT_CGMSC_WRITE_DESCR_RESPONSE\000"
 5179      455F4556 
 5179      545F4347 
 5179      4D53435F 
 5179      57524954 
 5180              	.LASF355:
 5181 0234 4359424C 		.ascii	"CYBLE_EVT_GLSS_NOTIFICATION_DISABLED\000"
 5181      455F4556 
 5181      545F474C 
 5181      53535F4E 
 5181      4F544946 
 5182              	.LASF516:
ARM GAS  C:\Users\Herry\AppData\Local\Temp\ccuIEJCt.s 			page 108


 5183 0259 6576656E 		.ascii	"eventParam\000"
 5183      74506172 
 5183      616D00
 5184              	.LASF282:
 5185 0264 4359424C 		.ascii	"CYBLE_EVT_BLSC_READ_CHAR_RESPONSE\000"
 5185      455F4556 
 5185      545F424C 
 5185      53435F52 
 5185      4541445F 
 5186              	.LASF30:
 5187 0286 4359424C 		.ascii	"CYBLE_EVT_GAP_DEVICE_CONNECTED\000"
 5187      455F4556 
 5187      545F4741 
 5187      505F4445 
 5187      56494345 
 5188              	.LASF416:
 5189 02a5 4359424C 		.ascii	"CYBLE_EVT_LLSC_WRITE_CHAR_RESPONSE\000"
 5189      455F4556 
 5189      545F4C4C 
 5189      53435F57 
 5189      52495445 
 5190              	.LASF44:
 5191 02c8 4359424C 		.ascii	"CYBLE_EVT_GATT_CONNECT_IND\000"
 5191      455F4556 
 5191      545F4741 
 5191      54545F43 
 5191      4F4E4E45 
 5192              	.LASF360:
 5193 02e3 4359424C 		.ascii	"CYBLE_EVT_GLSC_WRITE_CHAR_RESPONSE\000"
 5193      455F4556 
 5193      545F474C 
 5193      53435F57 
 5193      52495445 
 5194              	.LASF11:
 5195 0306 75696E74 		.ascii	"uint32\000"
 5195      333200
 5196              	.LASF237:
 5197 030d 4359424C 		.ascii	"CYBLE_EVT_GATTC_DESCR_DISCOVERY_FAILED\000"
 5197      455F4556 
 5197      545F4741 
 5197      5454435F 
 5197      44455343 
 5198              	.LASF449:
 5199 0334 4359424C 		.ascii	"CYBLE_EVT_RSCSC_WRITE_DESCR_RESPONSE\000"
 5199      455F4556 
 5199      545F5253 
 5199      4353435F 
 5199      57524954 
 5200              	.LASF270:
 5201 0359 4359424C 		.ascii	"CYBLE_EVT_BCSS_INDICATION_CONFIRMED\000"
 5201      455F4556 
 5201      545F4243 
 5201      53535F49 
 5201      4E444943 
 5202              	.LASF271:
 5203 037d 4359424C 		.ascii	"CYBLE_EVT_BCSC_INDICATION\000"
 5203      455F4556 
ARM GAS  C:\Users\Herry\AppData\Local\Temp\ccuIEJCt.s 			page 109


 5203      545F4243 
 5203      53435F49 
 5203      4E444943 
 5204              	.LASF418:
 5205 0397 4359424C 		.ascii	"CYBLE_EVT_LNSS_INDICATION_DISABLED\000"
 5205      455F4556 
 5205      545F4C4E 
 5205      53535F49 
 5205      4E444943 
 5206              	.LASF332:
 5207 03ba 4359424C 		.ascii	"CYBLE_EVT_CTSC_READ_CHAR_RESPONSE\000"
 5207      455F4556 
 5207      545F4354 
 5207      53435F52 
 5207      4541445F 
 5208              	.LASF241:
 5209 03dc 4359424C 		.ascii	"CYBLE_EVT_GATTC_SRVC_DISCOVERY_COMPLETE\000"
 5209      455F4556 
 5209      545F4741 
 5209      5454435F 
 5209      53525643 
 5210              	.LASF443:
 5211 0404 4359424C 		.ascii	"CYBLE_EVT_RSCSS_CHAR_WRITE\000"
 5211      455F4556 
 5211      545F5253 
 5211      4353535F 
 5211      43484152 
 5212              	.LASF476:
 5213 041f 4359424C 		.ascii	"CYBLE_EVT_UDSC_WRITE_DESCR_RESPONSE\000"
 5213      455F4556 
 5213      545F5544 
 5213      53435F57 
 5213      52495445 
 5214              	.LASF374:
 5215 0443 4359424C 		.ascii	"CYBLE_EVT_HIDSC_WRITE_DESCR_RESPONSE\000"
 5215      455F4556 
 5215      545F4849 
 5215      4453435F 
 5215      57524954 
 5216              	.LASF528:
 5217 0468 4379426C 		.ascii	"CyBle_HidssOnDeviceConnected\000"
 5217      655F4869 
 5217      6473734F 
 5217      6E446576 
 5217      69636543 
 5218              	.LASF458:
 5219 0485 4359424C 		.ascii	"CYBLE_EVT_TPSS_NOTIFICATION_ENABLED\000"
 5219      455F4556 
 5219      545F5450 
 5219      53535F4E 
 5219      4F544946 
 5220              	.LASF260:
 5221 04a9 4359424C 		.ascii	"CYBLE_EVT_ANSC_READ_DESCR_RESPONSE\000"
 5221      455F4556 
 5221      545F414E 
 5221      53435F52 
 5221      4541445F 
ARM GAS  C:\Users\Herry\AppData\Local\Temp\ccuIEJCt.s 			page 110


 5222              	.LASF117:
 5223 04cc 4359424C 		.ascii	"CYBLE_GATT_ERR_READ_NOT_PERMITTED\000"
 5223      455F4741 
 5223      54545F45 
 5223      52525F52 
 5223      4541445F 
 5224              	.LASF132:
 5225 04ee 4359424C 		.ascii	"CYBLE_GATT_ERR_INSUFFICIENT_RESOURCE\000"
 5225      455F4741 
 5225      54545F45 
 5225      52525F49 
 5225      4E535546 
 5226              	.LASF213:
 5227 0513 4359424C 		.ascii	"CYBLE_HIDSS_REPORT_T\000"
 5227      455F4849 
 5227      4453535F 
 5227      5245504F 
 5227      52545F54 
 5228              	.LASF131:
 5229 0528 4359424C 		.ascii	"CYBLE_GATT_ERR_UNSUPPORTED_GROUP_TYPE\000"
 5229      455F4741 
 5229      54545F45 
 5229      52525F55 
 5229      4E535550 
 5230              	.LASF98:
 5231 054e 4359424C 		.ascii	"CYBLE_ERROR_L2CAP_CONNECTION_ENTITY_NOT_FOUND\000"
 5231      455F4552 
 5231      524F525F 
 5231      4C324341 
 5231      505F434F 
 5232              	.LASF223:
 5233 057c 4359424C 		.ascii	"CYBLE_HIDSS_T\000"
 5233      455F4849 
 5233      4453535F 
 5233      5400
 5234              	.LASF542:
 5235 058a 4379426C 		.ascii	"CyBle_HidssCccdWriteEventHandler\000"
 5235      655F4869 
 5235      64737343 
 5235      63636457 
 5235      72697465 
 5236              	.LASF104:
 5237 05ab 4359424C 		.ascii	"CYBLE_ERROR_MIC_AUTH_FAILED\000"
 5237      455F4552 
 5237      524F525F 
 5237      4D49435F 
 5237      41555448 
 5238              	.LASF236:
 5239 05c7 4359424C 		.ascii	"CYBLE_EVT_GATTC_CHAR_DISCOVERY_FAILED\000"
 5239      455F4556 
 5239      545F4741 
 5239      5454435F 
 5239      43484152 
 5240              	.LASF530:
 5241 05ed 4379426C 		.ascii	"CyBle_HidsApplCallback\000"
 5241      655F4869 
 5241      64734170 
ARM GAS  C:\Users\Herry\AppData\Local\Temp\ccuIEJCt.s 			page 111


 5241      706C4361 
 5241      6C6C6261 
 5242              	.LASF64:
 5243 0604 4359424C 		.ascii	"CYBLE_EVT_GATTS_DATA_SIGNED_CMD_REQ\000"
 5243      455F4556 
 5243      545F4741 
 5243      5454535F 
 5243      44415441 
 5244              	.LASF76:
 5245 0628 4359424C 		.ascii	"CYBLE_EVT_L2CAP_CBFC_RX_CREDIT_IND\000"
 5245      455F4556 
 5245      545F4C32 
 5245      4341505F 
 5245      43424643 
 5246              	.LASF159:
 5247 064b 4359424C 		.ascii	"CYBLE_GATT_VALUE_T\000"
 5247      455F4741 
 5247      54545F56 
 5247      414C5545 
 5247      5F5400
 5248              	.LASF318:
 5249 065e 4359424C 		.ascii	"CYBLE_EVT_CSCSS_INDICATION_ENABLED\000"
 5249      455F4556 
 5249      545F4353 
 5249      4353535F 
 5249      494E4449 
 5250              	.LASF178:
 5251 0681 7065726D 		.ascii	"permission\000"
 5251      69737369 
 5251      6F6E00
 5252              	.LASF423:
 5253 068c 4359424C 		.ascii	"CYBLE_EVT_LNSC_INDICATION\000"
 5253      455F4556 
 5253      545F4C4E 
 5253      53435F49 
 5253      4E444943 
 5254              	.LASF434:
 5255 06a6 4359424C 		.ascii	"CYBLE_EVT_PASSC_READ_CHAR_RESPONSE\000"
 5255      455F4556 
 5255      545F5041 
 5255      5353435F 
 5255      52454144 
 5256              	.LASF201:
 5257 06c9 4359424C 		.ascii	"CYBLE_HUMAN_INTERFACE_DEVICE_REPORT_IN\000"
 5257      455F4855 
 5257      4D414E5F 
 5257      494E5445 
 5257      52464143 
 5258              	.LASF275:
 5259 06f0 4359424C 		.ascii	"CYBLE_EVT_BLSS_INDICATION_ENABLED\000"
 5259      455F4556 
 5259      545F424C 
 5259      53535F49 
 5259      4E444943 
 5260              	.LASF281:
 5261 0712 4359424C 		.ascii	"CYBLE_EVT_BLSC_NOTIFICATION\000"
 5261      455F4556 
ARM GAS  C:\Users\Herry\AppData\Local\Temp\ccuIEJCt.s 			page 112


 5261      545F424C 
 5261      53435F4E 
 5261      4F544946 
 5262              	.LASF182:
 5263 072e 4359424C 		.ascii	"CYBLE_CALLBACK_T\000"
 5263      455F4341 
 5263      4C4C4241 
 5263      434B5F54 
 5263      00
 5264              	.LASF323:
 5265 073f 4359424C 		.ascii	"CYBLE_EVT_CSCSC_INDICATION\000"
 5265      455F4556 
 5265      545F4353 
 5265      4353435F 
 5265      494E4449 
 5266              	.LASF367:
 5267 075a 4359424C 		.ascii	"CYBLE_EVT_HIDSS_SUSPEND\000"
 5267      455F4556 
 5267      545F4849 
 5267      4453535F 
 5267      53555350 
 5268              	.LASF187:
 5269 0772 4359424C 		.ascii	"CYBLE_DIS_FIRMWARE_REV\000"
 5269      455F4449 
 5269      535F4649 
 5269      524D5741 
 5269      52455F52 
 5270              	.LASF61:
 5271 0789 4359424C 		.ascii	"CYBLE_EVT_GATTC_HANDLE_VALUE_NTF\000"
 5271      455F4556 
 5271      545F4741 
 5271      5454435F 
 5271      48414E44 
 5272              	.LASF24:
 5273 07aa 4359424C 		.ascii	"CYBLE_EVT_GAP_AUTH_REQ\000"
 5273      455F4556 
 5273      545F4741 
 5273      505F4155 
 5273      54485F52 
 5274              	.LASF243:
 5275 07c1 4359424C 		.ascii	"CYBLE_EVT_GATTC_CHAR_DISCOVERY_COMPLETE\000"
 5275      455F4556 
 5275      545F4741 
 5275      5454435F 
 5275      43484152 
 5276              	.LASF157:
 5277 07e9 4359424C 		.ascii	"CYBLE_CONN_HANDLE_T\000"
 5277      455F434F 
 5277      4E4E5F48 
 5277      414E444C 
 5277      455F5400 
 5278              	.LASF388:
 5279 07fd 4359424C 		.ascii	"CYBLE_EVT_HRSC_WRITE_CHAR_RESPONSE\000"
 5279      455F4556 
 5279      545F4852 
 5279      53435F57 
 5279      52495445 
ARM GAS  C:\Users\Herry\AppData\Local\Temp\ccuIEJCt.s 			page 113


 5280              	.LASF93:
 5281 0820 4359424C 		.ascii	"CYBLE_ERROR_BT_ON_NOT_COMPLETED\000"
 5281      455F4552 
 5281      524F525F 
 5281      42545F4F 
 5281      4E5F4E4F 
 5282              	.LASF322:
 5283 0840 4359424C 		.ascii	"CYBLE_EVT_CSCSC_NOTIFICATION\000"
 5283      455F4556 
 5283      545F4353 
 5283      4353435F 
 5283      4E4F5449 
 5284              	.LASF471:
 5285 085d 4359424C 		.ascii	"CYBLE_EVT_UDSC_INDICATION\000"
 5285      455F4556 
 5285      545F5544 
 5285      53435F49 
 5285      4E444943 
 5286              	.LASF405:
 5287 0877 4359424C 		.ascii	"CYBLE_EVT_IPSS_WRITE_CHAR\000"
 5287      455F4556 
 5287      545F4950 
 5287      53535F57 
 5287      52495445 
 5288              	.LASF196:
 5289 0891 4359424C 		.ascii	"CYBLE_HIDS_REPORT_MAP\000"
 5289      455F4849 
 5289      44535F52 
 5289      45504F52 
 5289      545F4D41 
 5290              	.LASF286:
 5291 08a7 4359424C 		.ascii	"CYBLE_EVT_BMSC_READ_CHAR_RESPONSE\000"
 5291      455F4556 
 5291      545F424D 
 5291      53435F52 
 5291      4541445F 
 5292              	.LASF501:
 5293 08c9 4359424C 		.ascii	"CYBLE_STATE_ADVERTISING\000"
 5293      455F5354 
 5293      4154455F 
 5293      41445645 
 5293      52544953 
 5294              	.LASF38:
 5295 08e1 4359424C 		.ascii	"CYBLE_EVT_GAP_OOB_GENERATED_NOTIFICATION\000"
 5295      455F4556 
 5295      545F4741 
 5295      505F4F4F 
 5295      425F4745 
 5296              	.LASF155:
 5297 090a 62644861 		.ascii	"bdHandle\000"
 5297      6E646C65 
 5297      00
 5298              	.LASF144:
 5299 0913 4359424C 		.ascii	"CYBLE_GATTS_ERR_NETWORK_NOT_AVAILABLE\000"
 5299      455F4741 
 5299      5454535F 
 5299      4552525F 
ARM GAS  C:\Users\Herry\AppData\Local\Temp\ccuIEJCt.s 			page 114


 5299      4E455457 
 5300              	.LASF291:
 5301 0939 4359424C 		.ascii	"CYBLE_EVT_CGMSS_INDICATION_CONFIRMED\000"
 5301      455F4556 
 5301      545F4347 
 5301      4D53535F 
 5301      494E4449 
 5302              	.LASF147:
 5303 095e 4359424C 		.ascii	"CYBLE_GATT_ERR_ANCS_INVALID_COMMAND\000"
 5303      455F4741 
 5303      54545F45 
 5303      52525F41 
 5303      4E43535F 
 5304              	.LASF283:
 5305 0982 4359424C 		.ascii	"CYBLE_EVT_BLSC_READ_DESCR_RESPONSE\000"
 5305      455F4556 
 5305      545F424C 
 5305      53435F52 
 5305      4541445F 
 5306              	.LASF304:
 5307 09a5 4359424C 		.ascii	"CYBLE_EVT_CPSS_INDICATION_DISABLED\000"
 5307      455F4556 
 5307      545F4350 
 5307      53535F49 
 5307      4E444943 
 5308              	.LASF303:
 5309 09c8 4359424C 		.ascii	"CYBLE_EVT_CPSS_INDICATION_ENABLED\000"
 5309      455F4556 
 5309      545F4350 
 5309      53535F49 
 5309      4E444943 
 5310              	.LASF420:
 5311 09ea 4359424C 		.ascii	"CYBLE_EVT_LNSS_NOTIFICATION_ENABLED\000"
 5311      455F4556 
 5311      545F4C4E 
 5311      53535F4E 
 5311      4F544946 
 5312              	.LASF57:
 5313 0a0e 4359424C 		.ascii	"CYBLE_EVT_GATTS_WRITE_CMD_REQ\000"
 5313      455F4556 
 5313      545F4741 
 5313      5454535F 
 5313      57524954 
 5314              	.LASF314:
 5315 0a2c 4359424C 		.ascii	"CYBLE_EVT_CPSC_WRITE_DESCR_RESPONSE\000"
 5315      455F4556 
 5315      545F4350 
 5315      53435F57 
 5315      52495445 
 5316              	.LASF4:
 5317 0a50 6C6F6E67 		.ascii	"long int\000"
 5317      20696E74 
 5317      00
 5318              	.LASF421:
 5319 0a59 4359424C 		.ascii	"CYBLE_EVT_LNSS_NOTIFICATION_DISABLED\000"
 5319      455F4556 
 5319      545F4C4E 
ARM GAS  C:\Users\Herry\AppData\Local\Temp\ccuIEJCt.s 			page 115


 5319      53535F4E 
 5319      4F544946 
 5320              	.LASF249:
 5321 0a7e 4359424C 		.ascii	"CYBLE_EVT_ANCSC_READ_CHAR_RESPONSE\000"
 5321      455F4556 
 5321      545F414E 
 5321      4353435F 
 5321      52454144 
 5322              	.LASF435:
 5323 0aa1 4359424C 		.ascii	"CYBLE_EVT_PASSC_WRITE_CHAR_RESPONSE\000"
 5323      455F4556 
 5323      545F5041 
 5323      5353435F 
 5323      57524954 
 5324              	.LASF466:
 5325 0ac5 4359424C 		.ascii	"CYBLE_EVT_UDSS_INDICATION_CONFIRMED\000"
 5325      455F4556 
 5325      545F5544 
 5325      53535F49 
 5325      4E444943 
 5326              	.LASF229:
 5327 0ae9 4359424C 		.ascii	"CYBLE_LONG_TERM_KEY_REQUEST_REPLY\000"
 5327      455F4C4F 
 5327      4E475F54 
 5327      45524D5F 
 5327      4B45595F 
 5328              	.LASF17:
 5329 0b0b 4359424C 		.ascii	"CYBLE_EVT_STACK_ON\000"
 5329      455F4556 
 5329      545F5354 
 5329      41434B5F 
 5329      4F4E00
 5330              	.LASF100:
 5331 0b1e 4359424C 		.ascii	"CYBLE_ERROR_L2CAP_PSM_NOT_IN_RANGE\000"
 5331      455F4552 
 5331      524F525F 
 5331      4C324341 
 5331      505F5053 
 5332              	.LASF186:
 5333 0b41 4359424C 		.ascii	"CYBLE_DIS_HARDWARE_REV\000"
 5333      455F4449 
 5333      535F4841 
 5333      52445741 
 5333      52455F52 
 5334              	.LASF504:
 5335 0b58 63616C6C 		.ascii	"callbackFunc\000"
 5335      6261636B 
 5335      46756E63 
 5335      00
 5336              	.LASF350:
 5337 0b65 4359424C 		.ascii	"CYBLE_EVT_ESSC_WRITE_DESCR_RESPONSE\000"
 5337      455F4556 
 5337      545F4553 
 5337      53435F57 
 5337      52495445 
 5338              	.LASF143:
 5339 0b89 4359424C 		.ascii	"CYBLE_GATTS_ERR_HPS_INVALID_REQUEST\000"
ARM GAS  C:\Users\Herry\AppData\Local\Temp\ccuIEJCt.s 			page 116


 5339      455F4741 
 5339      5454535F 
 5339      4552525F 
 5339      4850535F 
 5340              	.LASF409:
 5341 0bad 4359424C 		.ascii	"CYBLE_EVT_IPSC_WRITE_CHAR_RESPONSE\000"
 5341      455F4556 
 5341      545F4950 
 5341      53435F57 
 5341      52495445 
 5342              	.LASF214:
 5343 0bd0 73657276 		.ascii	"serviceHandle\000"
 5343      69636548 
 5343      616E646C 
 5343      6500
 5344              	.LASF391:
 5345 0bde 4359424C 		.ascii	"CYBLE_EVT_HTSS_NOTIFICATION_ENABLED\000"
 5345      455F4556 
 5345      545F4854 
 5345      53535F4E 
 5345      4F544946 
 5346              	.LASF119:
 5347 0c02 4359424C 		.ascii	"CYBLE_GATT_ERR_INVALID_PDU\000"
 5347      455F4741 
 5347      54545F45 
 5347      52525F49 
 5347      4E56414C 
 5348              	.LASF536:
 5349 0c1d 6379426C 		.ascii	"cyBle_hidss\000"
 5349      655F6869 
 5349      64737300 
 5350              	.LASF112:
 5351 0c29 4359424C 		.ascii	"CYBLE_ERROR_CHAR_IS_NOT_DISCOVERED\000"
 5351      455F4552 
 5351      524F525F 
 5351      43484152 
 5351      5F49535F 
 5352              	.LASF469:
 5353 0c4c 4359424C 		.ascii	"CYBLE_EVT_UDSS_READ_CHAR\000"
 5353      455F4556 
 5353      545F5544 
 5353      53535F52 
 5353      4541445F 
 5354              	.LASF162:
 5355 0c65 4359424C 		.ascii	"CYBLE_GATT_HANDLE_VALUE_PAIR_T\000"
 5355      455F4741 
 5355      54545F48 
 5355      414E444C 
 5355      455F5641 
 5356              	.LASF177:
 5357 0c84 61747454 		.ascii	"attType\000"
 5357      79706500 
 5358              	.LASF224:
 5359 0c8c 73657276 		.ascii	"serviceIndex\000"
 5359      69636549 
 5359      6E646578 
 5359      00
ARM GAS  C:\Users\Herry\AppData\Local\Temp\ccuIEJCt.s 			page 117


 5360              	.LASF347:
 5361 0c99 4359424C 		.ascii	"CYBLE_EVT_ESSC_READ_CHAR_RESPONSE\000"
 5361      455F4556 
 5361      545F4553 
 5361      53435F52 
 5361      4541445F 
 5362              	.LASF370:
 5363 0cbb 4359424C 		.ascii	"CYBLE_EVT_HIDSC_NOTIFICATION\000"
 5363      455F4556 
 5363      545F4849 
 5363      4453435F 
 5363      4E4F5449 
 5364              	.LASF70:
 5365 0cd8 4359424C 		.ascii	"CYBLE_EVT_L2CAP_COMMAND_REJ\000"
 5365      455F4556 
 5365      545F4C32 
 5365      4341505F 
 5365      434F4D4D 
 5366              	.LASF404:
 5367 0cf4 4359424C 		.ascii	"CYBLE_EVT_IPSS_READ_CHAR\000"
 5367      455F4556 
 5367      545F4950 
 5367      53535F52 
 5367      4541445F 
 5368              	.LASF128:
 5369 0d0d 4359424C 		.ascii	"CYBLE_GATT_ERR_INVALID_ATTRIBUTE_LEN\000"
 5369      455F4741 
 5369      54545F45 
 5369      52525F49 
 5369      4E56414C 
 5370              	.LASF215:
 5371 0d32 70726F74 		.ascii	"protocolModeHandle\000"
 5371      6F636F6C 
 5371      4D6F6465 
 5371      48616E64 
 5371      6C6500
 5372              	.LASF101:
 5373 0d45 4359424C 		.ascii	"CYBLE_ERROR_GATT_DB_INVALID_ATTR_HANDLE\000"
 5373      455F4552 
 5373      524F525F 
 5373      47415454 
 5373      5F44425F 
 5374              	.LASF0:
 5375 0d6d 7369676E 		.ascii	"signed char\000"
 5375      65642063 
 5375      68617200 
 5376              	.LASF273:
 5377 0d79 4359424C 		.ascii	"CYBLE_EVT_BCSC_READ_DESCR_RESPONSE\000"
 5377      455F4556 
 5377      545F4243 
 5377      53435F52 
 5377      4541445F 
 5378              	.LASF496:
 5379 0d9c 4359424C 		.ascii	"CYBLE_EVT_WSSC_WRITE_DESCR_RESPONSE\000"
 5379      455F4556 
 5379      545F5753 
 5379      53435F57 
ARM GAS  C:\Users\Herry\AppData\Local\Temp\ccuIEJCt.s 			page 118


 5379      52495445 
 5380              	.LASF266:
 5381 0dc0 4359424C 		.ascii	"CYBLE_EVT_BASC_READ_DESCR_RESPONSE\000"
 5381      455F4556 
 5381      545F4241 
 5381      53435F52 
 5381      4541445F 
 5382              	.LASF19:
 5383 0de3 4359424C 		.ascii	"CYBLE_EVT_HARDWARE_ERROR\000"
 5383      455F4556 
 5383      545F4841 
 5383      52445741 
 5383      52455F45 
 5384              	.LASF82:
 5385 0dfc 4359424C 		.ascii	"CYBLE_ERROR_OK\000"
 5385      455F4552 
 5385      524F525F 
 5385      4F4B00
 5386              	.LASF523:
 5387 0e0b 6C6F6343 		.ascii	"locCharValue\000"
 5387      68617256 
 5387      616C7565 
 5387      00
 5388              	.LASF48:
 5389 0e18 4359424C 		.ascii	"CYBLE_EVT_GATTC_READ_BY_GROUP_TYPE_RSP\000"
 5389      455F4556 
 5389      545F4741 
 5389      5454435F 
 5389      52454144 
 5390              	.LASF498:
 5391 0e3f 4359424C 		.ascii	"CYBLE_STATE_STOPPED\000"
 5391      455F5354 
 5391      4154455F 
 5391      53544F50 
 5391      50454400 
 5392              	.LASF440:
 5393 0e53 4359424C 		.ascii	"CYBLE_EVT_RSCSS_INDICATION_ENABLED\000"
 5393      455F4556 
 5393      545F5253 
 5393      4353535F 
 5393      494E4449 
 5394              	.LASF1:
 5395 0e76 756E7369 		.ascii	"unsigned char\000"
 5395      676E6564 
 5395      20636861 
 5395      7200
 5396              	.LASF47:
 5397 0e84 4359424C 		.ascii	"CYBLE_EVT_GATTC_XCHNG_MTU_RSP\000"
 5397      455F4556 
 5397      545F4741 
 5397      5454435F 
 5397      5843484E 
 5398              	.LASF305:
 5399 0ea2 4359424C 		.ascii	"CYBLE_EVT_CPSS_INDICATION_CONFIRMED\000"
 5399      455F4556 
 5399      545F4350 
 5399      53535F49 
ARM GAS  C:\Users\Herry\AppData\Local\Temp\ccuIEJCt.s 			page 119


 5399      4E444943 
 5400              	.LASF302:
 5401 0ec6 4359424C 		.ascii	"CYBLE_EVT_CPSS_NOTIFICATION_DISABLED\000"
 5401      455F4556 
 5401      545F4350 
 5401      53535F4E 
 5401      4F544946 
 5402              	.LASF445:
 5403 0eeb 4359424C 		.ascii	"CYBLE_EVT_RSCSC_INDICATION\000"
 5403      455F4556 
 5403      545F5253 
 5403      4353435F 
 5403      494E4449 
 5404              	.LASF495:
 5405 0f06 4359424C 		.ascii	"CYBLE_EVT_WSSC_READ_DESCR_RESPONSE\000"
 5405      455F4556 
 5405      545F5753 
 5405      53435F52 
 5405      4541445F 
 5406              	.LASF481:
 5407 0f29 4359424C 		.ascii	"CYBLE_EVT_WPTSS_INDICATION_DISABLED\000"
 5407      455F4556 
 5407      545F5750 
 5407      5453535F 
 5407      494E4449 
 5408              	.LASF42:
 5409 0f4d 4359424C 		.ascii	"CYBLE_EVT_GAP_SMP_NEGOTIATED_AUTH_INFO\000"
 5409      455F4556 
 5409      545F4741 
 5409      505F534D 
 5409      505F4E45 
 5410              	.LASF77:
 5411 0f74 4359424C 		.ascii	"CYBLE_EVT_L2CAP_CBFC_TX_CREDIT_IND\000"
 5411      455F4556 
 5411      545F4C32 
 5411      4341505F 
 5411      43424643 
 5412              	.LASF176:
 5413 0f97 61747448 		.ascii	"attHandle\000"
 5413      616E646C 
 5413      6500
 5414              	.LASF233:
 5415 0fa1 4359424C 		.ascii	"CYBLE_EVT_GATTC_INDICATION\000"
 5415      455F4556 
 5415      545F4741 
 5415      5454435F 
 5415      494E4449 
 5416              	.LASF375:
 5417 0fbc 4359424C 		.ascii	"CYBLE_EVT_HPSS_NOTIFICATION_ENABLED\000"
 5417      455F4556 
 5417      545F4850 
 5417      53535F4E 
 5417      4F544946 
 5418              	.LASF452:
 5419 0fe0 4359424C 		.ascii	"CYBLE_EVT_SCPSS_NOTIFICATION_ENABLED\000"
 5419      455F4556 
 5419      545F5343 
ARM GAS  C:\Users\Herry\AppData\Local\Temp\ccuIEJCt.s 			page 120


 5419      5053535F 
 5419      4E4F5449 
 5420              	.LASF407:
 5421 1005 4359424C 		.ascii	"CYBLE_EVT_IPSC_READ_CHAR_RESPONSE\000"
 5421      455F4556 
 5421      545F4950 
 5421      53435F52 
 5421      4541445F 
 5422              	.LASF520:
 5423 1027 6C6F6353 		.ascii	"locServIndex\000"
 5423      65727649 
 5423      6E646578 
 5423      00
 5424              	.LASF74:
 5425 1034 4359424C 		.ascii	"CYBLE_EVT_L2CAP_CBFC_DISCONN_CNF\000"
 5425      455F4556 
 5425      545F4C32 
 5425      4341505F 
 5425      43424643 
 5426              	.LASF51:
 5427 1055 4359424C 		.ascii	"CYBLE_EVT_GATTC_FIND_BY_TYPE_VALUE_RSP\000"
 5427      455F4556 
 5427      545F4741 
 5427      5454435F 
 5427      46494E44 
 5428              	.LASF245:
 5429 107c 4359424C 		.ascii	"CYBLE_EVT_ANCSS_NOTIFICATION_ENABLED\000"
 5429      455F4556 
 5429      545F414E 
 5429      4353535F 
 5429      4E4F5449 
 5430              	.LASF39:
 5431 10a1 4359424C 		.ascii	"CYBLE_EVT_GAP_DATA_LENGTH_CHANGE\000"
 5431      455F4556 
 5431      545F4741 
 5431      505F4441 
 5431      54415F4C 
 5432              	.LASF457:
 5433 10c2 4359424C 		.ascii	"CYBLE_EVT_SCPSC_WRITE_DESCR_RESPONSE\000"
 5433      455F4556 
 5433      545F5343 
 5433      5053435F 
 5433      57524954 
 5434              	.LASF14:
 5435 10e7 63686172 		.ascii	"char\000"
 5435      00
 5436              	.LASF170:
 5437 10ec 6D617841 		.ascii	"maxAttrLength\000"
 5437      7474724C 
 5437      656E6774 
 5437      6800
 5438              	.LASF460:
 5439 10fa 4359424C 		.ascii	"CYBLE_EVT_TPSC_NOTIFICATION\000"
 5439      455F4556 
 5439      545F5450 
 5439      53435F4E 
 5439      4F544946 
ARM GAS  C:\Users\Herry\AppData\Local\Temp\ccuIEJCt.s 			page 121


 5440              	.LASF204:
 5441 1116 4359424C 		.ascii	"CYBLE_HIDS_CHAR_INDEX_T\000"
 5441      455F4849 
 5441      44535F43 
 5441      4841525F 
 5441      494E4445 
 5442              	.LASF54:
 5443 112e 4359424C 		.ascii	"CYBLE_EVT_GATTC_READ_MULTI_RSP\000"
 5443      455F4556 
 5443      545F4741 
 5443      5454435F 
 5443      52454144 
 5444              	.LASF16:
 5445 114d 4359424C 		.ascii	"CYBLE_EVT_HOST_INVALID\000"
 5445      455F4556 
 5445      545F484F 
 5445      53545F49 
 5445      4E56414C 
 5446              	.LASF129:
 5447 1164 4359424C 		.ascii	"CYBLE_GATT_ERR_UNLIKELY_ERROR\000"
 5447      455F4741 
 5447      54545F45 
 5447      52525F55 
 5447      4E4C494B 
 5448              	.LASF41:
 5449 1182 4359424C 		.ascii	"CYBLE_EVT_GAPC_DIRECT_ADV_REPORT\000"
 5449      455F4556 
 5449      545F4741 
 5449      50435F44 
 5449      49524543 
 5450              	.LASF361:
 5451 11a3 4359424C 		.ascii	"CYBLE_EVT_GLSC_READ_DESCR_RESPONSE\000"
 5451      455F4556 
 5451      545F474C 
 5451      53435F52 
 5451      4541445F 
 5452              	.LASF89:
 5453 11c6 4359424C 		.ascii	"CYBLE_ERROR_NO_DEVICE_ENTITY\000"
 5453      455F4552 
 5453      524F525F 
 5453      4E4F5F44 
 5453      45564943 
 5454              	.LASF53:
 5455 11e3 4359424C 		.ascii	"CYBLE_EVT_GATTC_READ_BLOB_RSP\000"
 5455      455F4556 
 5455      545F4741 
 5455      5454435F 
 5455      52454144 
 5456              	.LASF394:
 5457 1201 4359424C 		.ascii	"CYBLE_EVT_HTSS_INDICATION_DISABLED\000"
 5457      455F4556 
 5457      545F4854 
 5457      53535F49 
 5457      4E444943 
 5458              	.LASF451:
 5459 1224 4359424C 		.ascii	"CYBLE_EVT_RTUSC_READ_CHAR_RESPONSE\000"
 5459      455F4556 
ARM GAS  C:\Users\Herry\AppData\Local\Temp\ccuIEJCt.s 			page 122


 5459      545F5254 
 5459      5553435F 
 5459      52454144 
 5460              	.LASF60:
 5461 1247 4359424C 		.ascii	"CYBLE_EVT_GATTC_EXEC_WRITE_RSP\000"
 5461      455F4556 
 5461      545F4741 
 5461      5454435F 
 5461      45584543 
 5462              	.LASF133:
 5463 1266 4359424C 		.ascii	"CYBLE_GATT_ERR_HEART_RATE_CONTROL_POINT_NOT_SUPPORT"
 5463      455F4741 
 5463      54545F45 
 5463      52525F48 
 5463      45415254 
 5464 1299 454400   		.ascii	"ED\000"
 5465              	.LASF492:
 5466 129c 4359424C 		.ascii	"CYBLE_EVT_WSSS_INDICATION_CONFIRMED\000"
 5466      455F4556 
 5466      545F5753 
 5466      53535F49 
 5466      4E444943 
 5467              	.LASF126:
 5468 12c0 4359424C 		.ascii	"CYBLE_GATT_ERR_ATTRIBUTE_NOT_LONG\000"
 5468      455F4741 
 5468      54545F45 
 5468      52525F41 
 5468      54545249 
 5469              	.LASF334:
 5470 12e2 4359424C 		.ascii	"CYBLE_EVT_CTSC_WRITE_DESCR_RESPONSE\000"
 5470      455F4556 
 5470      545F4354 
 5470      53435F57 
 5470      52495445 
 5471              	.LASF465:
 5472 1306 4359424C 		.ascii	"CYBLE_EVT_UDSS_INDICATION_DISABLED\000"
 5472      455F4556 
 5472      545F5544 
 5472      53535F49 
 5472      4E444943 
 5473              	.LASF188:
 5474 1329 4359424C 		.ascii	"CYBLE_DIS_SOFTWARE_REV\000"
 5474      455F4449 
 5474      535F534F 
 5474      46545741 
 5474      52455F52 
 5475              	.LASF65:
 5476 1340 4359424C 		.ascii	"CYBLE_EVT_GATTC_STOP_CMD_COMPLETE\000"
 5476      455F4556 
 5476      545F4741 
 5476      5454435F 
 5476      53544F50 
 5477              	.LASF308:
 5478 1362 4359424C 		.ascii	"CYBLE_EVT_CPSS_CHAR_WRITE\000"
 5478      455F4556 
 5478      545F4350 
 5478      53535F43 
ARM GAS  C:\Users\Herry\AppData\Local\Temp\ccuIEJCt.s 			page 123


 5478      4841525F 
 5479              	.LASF383:
 5480 137c 4359424C 		.ascii	"CYBLE_EVT_HRSS_ENERGY_EXPENDED_RESET\000"
 5480      455F4556 
 5480      545F4852 
 5480      53535F45 
 5480      4E455247 
 5481              	.LASF149:
 5482 13a1 4359424C 		.ascii	"CYBLE_GATT_ERR_ANCS_ACTION_FAILED\000"
 5482      455F4741 
 5482      54545F45 
 5482      52525F41 
 5482      4E43535F 
 5483              	.LASF184:
 5484 13c3 4359424C 		.ascii	"CYBLE_DIS_MODEL_NUMBER\000"
 5484      455F4449 
 5484      535F4D4F 
 5484      44454C5F 
 5484      4E554D42 
 5485              	.LASF338:
 5486 13da 4359424C 		.ascii	"CYBLE_EVT_ESSS_NOTIFICATION_DISABLED\000"
 5486      455F4556 
 5486      545F4553 
 5486      53535F4E 
 5486      4F544946 
 5487              	.LASF181:
 5488 13ff 4359424C 		.ascii	"CYBLE_GATTS_DB_T\000"
 5488      455F4741 
 5488      5454535F 
 5488      44425F54 
 5488      00
 5489              	.LASF479:
 5490 1410 4359424C 		.ascii	"CYBLE_EVT_WPTSS_NOTIFICATION_DISABLED\000"
 5490      455F4556 
 5490      545F5750 
 5490      5453535F 
 5490      4E4F5449 
 5491              	.LASF508:
 5492 1436 63686172 		.ascii	"charValueHandle\000"
 5492      56616C75 
 5492      6548616E 
 5492      646C6500 
 5493              	.LASF278:
 5494 1446 4359424C 		.ascii	"CYBLE_EVT_BLSS_NOTIFICATION_ENABLED\000"
 5494      455F4556 
 5494      545F424C 
 5494      53535F4E 
 5494      4F544946 
 5495              	.LASF189:
 5496 146a 4359424C 		.ascii	"CYBLE_DIS_SYSTEM_ID\000"
 5496      455F4449 
 5496      535F5359 
 5496      5354454D 
 5496      5F494400 
 5497              	.LASF381:
 5498 147e 4359424C 		.ascii	"CYBLE_EVT_HPSC_WRITE_DESCR_RESPONSE\000"
 5498      455F4556 
ARM GAS  C:\Users\Herry\AppData\Local\Temp\ccuIEJCt.s 			page 124


 5498      545F4850 
 5498      53435F57 
 5498      52495445 
 5499              	.LASF493:
 5500 14a2 4359424C 		.ascii	"CYBLE_EVT_WSSC_INDICATION\000"
 5500      455F4556 
 5500      545F5753 
 5500      53435F49 
 5500      4E444943 
 5501              	.LASF108:
 5502 14bc 4359424C 		.ascii	"CYBLE_ERROR_CONTROLLER_BUSY\000"
 5502      455F4552 
 5502      524F525F 
 5502      434F4E54 
 5502      524F4C4C 
 5503              	.LASF83:
 5504 14d8 4359424C 		.ascii	"CYBLE_ERROR_INVALID_PARAMETER\000"
 5504      455F4552 
 5504      524F525F 
 5504      494E5641 
 5504      4C49445F 
 5505              	.LASF346:
 5506 14f6 4359424C 		.ascii	"CYBLE_EVT_ESSC_INDICATION\000"
 5506      455F4556 
 5506      545F4553 
 5506      53435F49 
 5506      4E444943 
 5507              	.LASF252:
 5508 1510 4359424C 		.ascii	"CYBLE_EVT_ANCSC_WRITE_DESCR_RESPONSE\000"
 5508      455F4556 
 5508      545F414E 
 5508      4353435F 
 5508      57524954 
 5509              	.LASF447:
 5510 1535 4359424C 		.ascii	"CYBLE_EVT_RSCSC_WRITE_CHAR_RESPONSE\000"
 5510      455F4556 
 5510      545F5253 
 5510      4353435F 
 5510      57524954 
 5511              	.LASF463:
 5512 1559 4359424C 		.ascii	"CYBLE_EVT_TPSC_WRITE_DESCR_RESPONSE\000"
 5512      455F4556 
 5512      545F5450 
 5512      53435F57 
 5512      52495445 
 5513              	.LASF317:
 5514 157d 4359424C 		.ascii	"CYBLE_EVT_CSCSS_NOTIFICATION_DISABLED\000"
 5514      455F4556 
 5514      545F4353 
 5514      4353535F 
 5514      4E4F5449 
 5515              	.LASF328:
 5516 15a3 4359424C 		.ascii	"CYBLE_EVT_CTSS_NOTIFICATION_ENABLED\000"
 5516      455F4556 
 5516      545F4354 
 5516      53535F4E 
 5516      4F544946 
ARM GAS  C:\Users\Herry\AppData\Local\Temp\ccuIEJCt.s 			page 125


 5517              	.LASF441:
 5518 15c7 4359424C 		.ascii	"CYBLE_EVT_RSCSS_INDICATION_DISABLED\000"
 5518      455F4556 
 5518      545F5253 
 5518      4353535F 
 5518      494E4449 
 5519              	.LASF483:
 5520 15eb 4359424C 		.ascii	"CYBLE_EVT_WPTSS_WRITE_CHAR\000"
 5520      455F4556 
 5520      545F5750 
 5520      5453535F 
 5520      57524954 
 5521              	.LASF414:
 5522 1606 4359424C 		.ascii	"CYBLE_EVT_LLSS_WRITE_CHAR_REQ\000"
 5522      455F4556 
 5522      545F4C4C 
 5522      53535F57 
 5522      52495445 
 5523              	.LASF85:
 5524 1624 4359424C 		.ascii	"CYBLE_ERROR_MEMORY_ALLOCATION_FAILED\000"
 5524      455F4552 
 5524      524F525F 
 5524      4D454D4F 
 5524      52595F41 
 5525              	.LASF389:
 5526 1649 4359424C 		.ascii	"CYBLE_EVT_HRSC_READ_DESCR_RESPONSE\000"
 5526      455F4556 
 5526      545F4852 
 5526      53435F52 
 5526      4541445F 
 5527              	.LASF316:
 5528 166c 4359424C 		.ascii	"CYBLE_EVT_CSCSS_NOTIFICATION_ENABLED\000"
 5528      455F4556 
 5528      545F4353 
 5528      4353535F 
 5528      4E4F5449 
 5529              	.LASF506:
 5530 1691 61747472 		.ascii	"attrValue\000"
 5530      56616C75 
 5530      6500
 5531              	.LASF280:
 5532 169b 4359424C 		.ascii	"CYBLE_EVT_BLSC_INDICATION\000"
 5532      455F4556 
 5532      545F424C 
 5532      53435F49 
 5532      4E444943 
 5533              	.LASF377:
 5534 16b5 4359424C 		.ascii	"CYBLE_EVT_HPSS_CHAR_WRITE\000"
 5534      455F4556 
 5534      545F4850 
 5534      53535F43 
 5534      4841525F 
 5535              	.LASF369:
 5536 16cf 4359424C 		.ascii	"CYBLE_EVT_HIDSS_REPORT_CHAR_WRITE\000"
 5536      455F4556 
 5536      545F4849 
 5536      4453535F 
ARM GAS  C:\Users\Herry\AppData\Local\Temp\ccuIEJCt.s 			page 126


 5536      5245504F 
 5537              	.LASF268:
 5538 16f1 4359424C 		.ascii	"CYBLE_EVT_BCSS_INDICATION_ENABLED\000"
 5538      455F4556 
 5538      545F4243 
 5538      53535F49 
 5538      4E444943 
 5539              	.LASF140:
 5540 1713 4359424C 		.ascii	"CYBLE_GATTS_ERR_CCCD_IMPROPERLY_CONFIGURED\000"
 5540      455F4741 
 5540      5454535F 
 5540      4552525F 
 5540      43434344 
 5541              	.LASF487:
 5542 173e 4359424C 		.ascii	"CYBLE_EVT_WPTSC_READ_CHAR_RESPONSE\000"
 5542      455F4556 
 5542      545F5750 
 5542      5453435F 
 5542      52454144 
 5543              	.LASF208:
 5544 1761 4359424C 		.ascii	"CYBLE_HIDS_DESCR_COUNT\000"
 5544      455F4849 
 5544      44535F44 
 5544      45534352 
 5544      5F434F55 
 5545              	.LASF109:
 5546 1778 4359424C 		.ascii	"CYBLE_ERROR_MAX\000"
 5546      455F4552 
 5546      524F525F 
 5546      4D415800 
 5547              	.LASF426:
 5548 1788 4359424C 		.ascii	"CYBLE_EVT_LNSC_WRITE_CHAR_RESPONSE\000"
 5548      455F4556 
 5548      545F4C4E 
 5548      53435F57 
 5548      52495445 
 5549              	.LASF69:
 5550 17ab 4359424C 		.ascii	"CYBLE_EVT_L2CAP_CONN_PARAM_UPDATE_RSP\000"
 5550      455F4556 
 5550      545F4C32 
 5550      4341505F 
 5550      434F4E4E 
 5551              	.LASF197:
 5552 17d1 4359424C 		.ascii	"CYBLE_HIDS_BOOT_KYBRD_IN_REP\000"
 5552      455F4849 
 5552      44535F42 
 5552      4F4F545F 
 5552      4B594252 
 5553              	.LASF468:
 5554 17ee 4359424C 		.ascii	"CYBLE_EVT_UDSS_NOTIFICATION_DISABLED\000"
 5554      455F4556 
 5554      545F5544 
 5554      53535F4E 
 5554      4F544946 
 5555              	.LASF327:
 5556 1813 4359424C 		.ascii	"CYBLE_EVT_CSCSC_WRITE_DESCR_RESPONSE\000"
 5556      455F4556 
ARM GAS  C:\Users\Herry\AppData\Local\Temp\ccuIEJCt.s 			page 127


 5556      545F4353 
 5556      4353435F 
 5556      57524954 
 5557              	.LASF470:
 5558 1838 4359424C 		.ascii	"CYBLE_EVT_UDSS_WRITE_CHAR\000"
 5558      455F4556 
 5558      545F5544 
 5558      53535F57 
 5558      52495445 
 5559              	.LASF269:
 5560 1852 4359424C 		.ascii	"CYBLE_EVT_BCSS_INDICATION_DISABLED\000"
 5560      455F4556 
 5560      545F4243 
 5560      53535F49 
 5560      4E444943 
 5561              	.LASF384:
 5562 1875 4359424C 		.ascii	"CYBLE_EVT_HRSS_NOTIFICATION_ENABLED\000"
 5562      455F4556 
 5562      545F4852 
 5562      53535F4E 
 5562      4F544946 
 5563              	.LASF134:
 5564 1899 4359424C 		.ascii	"CYBLE_GATT_ERR_USER_DATA_ACCESS_NOT_PERMITTED\000"
 5564      455F4741 
 5564      54545F45 
 5564      52525F55 
 5564      5345525F 
 5565              	.LASF27:
 5566 18c7 4359424C 		.ascii	"CYBLE_EVT_GAP_AUTH_COMPLETE\000"
 5566      455F4556 
 5566      545F4741 
 5566      505F4155 
 5566      54485F43 
 5567              	.LASF436:
 5568 18e3 4359424C 		.ascii	"CYBLE_EVT_PASSC_READ_DESCR_RESPONSE\000"
 5568      455F4556 
 5568      545F5041 
 5568      5353435F 
 5568      52454144 
 5569              	.LASF349:
 5570 1907 4359424C 		.ascii	"CYBLE_EVT_ESSC_READ_DESCR_RESPONSE\000"
 5570      455F4556 
 5570      545F4553 
 5570      53435F52 
 5570      4541445F 
 5571              	.LASF28:
 5572 192a 4359424C 		.ascii	"CYBLE_EVT_GAP_AUTH_FAILED\000"
 5572      455F4556 
 5572      545F4741 
 5572      505F4155 
 5572      54485F46 
 5573              	.LASF368:
 5574 1944 4359424C 		.ascii	"CYBLE_EVT_HIDSS_EXIT_SUSPEND\000"
 5574      455F4556 
 5574      545F4849 
 5574      4453535F 
 5574      45584954 
ARM GAS  C:\Users\Herry\AppData\Local\Temp\ccuIEJCt.s 			page 128


 5575              	.LASF150:
 5576 1961 4359424C 		.ascii	"CYBLE_GATT_ERR_CCCD_IMPROPERLY_CONFIGURED\000"
 5576      455F4741 
 5576      54545F45 
 5576      52525F43 
 5576      4343445F 
 5577              	.LASF86:
 5578 198b 4359424C 		.ascii	"CYBLE_ERROR_INSUFFICIENT_RESOURCES\000"
 5578      455F4552 
 5578      524F525F 
 5578      494E5355 
 5578      46464943 
 5579              	.LASF439:
 5580 19ae 4359424C 		.ascii	"CYBLE_EVT_RSCSS_NOTIFICATION_DISABLED\000"
 5580      455F4556 
 5580      545F5253 
 5580      4353535F 
 5580      4E4F5449 
 5581              	.LASF138:
 5582 19d4 4359424C 		.ascii	"CYBLE_GATT_ERR_OP_CODE_NOT_SUPPORTED\000"
 5582      455F4741 
 5582      54545F45 
 5582      52525F4F 
 5582      505F434F 
 5583              	.LASF372:
 5584 19f9 4359424C 		.ascii	"CYBLE_EVT_HIDSC_WRITE_CHAR_RESPONSE\000"
 5584      455F4556 
 5584      545F4849 
 5584      4453435F 
 5584      57524954 
 5585              	.LASF5:
 5586 1a1d 6C6F6E67 		.ascii	"long unsigned int\000"
 5586      20756E73 
 5586      69676E65 
 5586      6420696E 
 5586      7400
 5587              	.LASF410:
 5588 1a2f 4359424C 		.ascii	"CYBLE_EVT_IPSC_READ_DESCR_RESPONSE\000"
 5588      455F4556 
 5588      545F4950 
 5588      53435F52 
 5588      4541445F 
 5589              	.LASF403:
 5590 1a52 4359424C 		.ascii	"CYBLE_EVT_IASS_WRITE_CHAR_CMD\000"
 5590      455F4556 
 5590      545F4941 
 5590      53535F57 
 5590      52495445 
 5591              	.LASF509:
 5592 1a70 6C6F6348 		.ascii	"locHandleValuePair\000"
 5592      616E646C 
 5592      6556616C 
 5592      75655061 
 5592      697200
 5593              	.LASF430:
 5594 1a83 4359424C 		.ascii	"CYBLE_EVT_PASSS_NOTIFICATION_ENABLED\000"
 5594      455F4556 
ARM GAS  C:\Users\Herry\AppData\Local\Temp\ccuIEJCt.s 			page 129


 5594      545F5041 
 5594      5353535F 
 5594      4E4F5449 
 5595              	.LASF433:
 5596 1aa8 4359424C 		.ascii	"CYBLE_EVT_PASSC_NOTIFICATION\000"
 5596      455F4556 
 5596      545F5041 
 5596      5353435F 
 5596      4E4F5449 
 5597              	.LASF106:
 5598 1ac5 4359424C 		.ascii	"CYBLE_ERROR_UNSUPPORTED_FEATURE_OR_PARAMETER_VALUE\000"
 5598      455F4552 
 5598      524F525F 
 5598      554E5355 
 5598      50504F52 
 5599              	.LASF480:
 5600 1af8 4359424C 		.ascii	"CYBLE_EVT_WPTSS_INDICATION_ENABLED\000"
 5600      455F4556 
 5600      545F5750 
 5600      5453535F 
 5600      494E4449 
 5601              	.LASF258:
 5602 1b1b 4359424C 		.ascii	"CYBLE_EVT_ANSC_READ_CHAR_RESPONSE\000"
 5602      455F4556 
 5602      545F414E 
 5602      53435F52 
 5602      4541445F 
 5603              	.LASF96:
 5604 1b3d 4359424C 		.ascii	"CYBLE_ERROR_L2CAP_PSM_ALREADY_REGISTERED\000"
 5604      455F4552 
 5604      524F525F 
 5604      4C324341 
 5604      505F5053 
 5605              	.LASF529:
 5606 1b66 64656661 		.ascii	"defaultProtocol\000"
 5606      756C7450 
 5606      726F746F 
 5606      636F6C00 
 5607              	.LASF396:
 5608 1b76 4359424C 		.ascii	"CYBLE_EVT_HTSS_CHAR_WRITE\000"
 5608      455F4556 
 5608      545F4854 
 5608      53535F43 
 5608      4841525F 
 5609              	.LASF174:
 5610 1b90 61747456 		.ascii	"attValueUuid\000"
 5610      616C7565 
 5610      55756964 
 5610      00
 5611              	.LASF146:
 5612 1b9d 4359424C 		.ascii	"CYBLE_GATT_ERR_ANCS_UNKNOWN_COMMAND\000"
 5612      455F4741 
 5612      54545F45 
 5612      52525F41 
 5612      4E43535F 
 5613              	.LASF262:
 5614 1bc1 4359424C 		.ascii	"CYBLE_EVT_BASS_NOTIFICATION_ENABLED\000"
ARM GAS  C:\Users\Herry\AppData\Local\Temp\ccuIEJCt.s 			page 130


 5614      455F4556 
 5614      545F4241 
 5614      53535F4E 
 5614      4F544946 
 5615              	.LASF220:
 5616 1be5 7265706F 		.ascii	"reportMapErrdHandle\000"
 5616      72744D61 
 5616      70457272 
 5616      6448616E 
 5616      646C6500 
 5617              	.LASF335:
 5618 1bf9 4359424C 		.ascii	"CYBLE_EVT_CTSC_WRITE_CHAR_RESPONSE\000"
 5618      455F4556 
 5618      545F4354 
 5618      53435F57 
 5618      52495445 
 5619              	.LASF432:
 5620 1c1c 4359424C 		.ascii	"CYBLE_EVT_PASSS_WRITE_CHAR\000"
 5620      455F4556 
 5620      545F5041 
 5620      5353535F 
 5620      57524954 
 5621              	.LASF312:
 5622 1c37 4359424C 		.ascii	"CYBLE_EVT_CPSC_WRITE_CHAR_RESPONSE\000"
 5622      455F4556 
 5622      545F4350 
 5622      53435F57 
 5622      52495445 
 5623              	.LASF185:
 5624 1c5a 4359424C 		.ascii	"CYBLE_DIS_SERIAL_NUMBER\000"
 5624      455F4449 
 5624      535F5345 
 5624      5249414C 
 5624      5F4E554D 
 5625              	.LASF33:
 5626 1c72 4359424C 		.ascii	"CYBLE_EVT_GAP_CONNECTION_UPDATE_COMPLETE\000"
 5626      455F4556 
 5626      545F4741 
 5626      505F434F 
 5626      4E4E4543 
 5627              	.LASF297:
 5628 1c9b 4359424C 		.ascii	"CYBLE_EVT_CGMSC_READ_CHAR_RESPONSE\000"
 5628      455F4556 
 5628      545F4347 
 5628      4D53435F 
 5628      52454144 
 5629              	.LASF499:
 5630 1cbe 4359424C 		.ascii	"CYBLE_STATE_INITIALIZING\000"
 5630      455F5354 
 5630      4154455F 
 5630      494E4954 
 5630      49414C49 
 5631              	.LASF325:
 5632 1cd7 4359424C 		.ascii	"CYBLE_EVT_CSCSC_WRITE_CHAR_RESPONSE\000"
 5632      455F4556 
 5632      545F4353 
 5632      4353435F 
ARM GAS  C:\Users\Herry\AppData\Local\Temp\ccuIEJCt.s 			page 131


 5632      57524954 
 5633              	.LASF73:
 5634 1cfb 4359424C 		.ascii	"CYBLE_EVT_L2CAP_CBFC_DISCONN_IND\000"
 5634      455F4556 
 5634      545F4C32 
 5634      4341505F 
 5634      43424643 
 5635              	.LASF321:
 5636 1d1c 4359424C 		.ascii	"CYBLE_EVT_CSCSS_CHAR_WRITE\000"
 5636      455F4556 
 5636      545F4353 
 5636      4353535F 
 5636      43484152 
 5637              	.LASF195:
 5638 1d37 4359424C 		.ascii	"CYBLE_HIDS_CONTROL_POINT\000"
 5638      455F4849 
 5638      44535F43 
 5638      4F4E5452 
 5638      4F4C5F50 
 5639              	.LASF446:
 5640 1d50 4359424C 		.ascii	"CYBLE_EVT_RSCSC_READ_CHAR_RESPONSE\000"
 5640      455F4556 
 5640      545F5253 
 5640      4353435F 
 5640      52454144 
 5641              	.LASF25:
 5642 1d73 4359424C 		.ascii	"CYBLE_EVT_GAP_PASSKEY_ENTRY_REQUEST\000"
 5642      455F4556 
 5642      545F4741 
 5642      505F5041 
 5642      53534B45 
 5643              	.LASF194:
 5644 1d97 4359424C 		.ascii	"CYBLE_HIDS_INFORMATION\000"
 5644      455F4849 
 5644      44535F49 
 5644      4E464F52 
 5644      4D415449 
 5645              	.LASF378:
 5646 1dae 4359424C 		.ascii	"CYBLE_EVT_HPSC_NOTIFICATION\000"
 5646      455F4556 
 5646      545F4850 
 5646      53435F4E 
 5646      4F544946 
 5647              	.LASF306:
 5648 1dca 4359424C 		.ascii	"CYBLE_EVT_CPSS_BROADCAST_ENABLED\000"
 5648      455F4556 
 5648      545F4350 
 5648      53535F42 
 5648      524F4144 
 5649              	.LASF411:
 5650 1deb 4359424C 		.ascii	"CYBLE_EVT_IPSC_WRITE_DESCR_RESPONSE\000"
 5650      455F4556 
 5650      545F4950 
 5650      53435F57 
 5650      52495445 
 5651              	.LASF359:
 5652 1e0f 4359424C 		.ascii	"CYBLE_EVT_GLSC_READ_CHAR_RESPONSE\000"
ARM GAS  C:\Users\Herry\AppData\Local\Temp\ccuIEJCt.s 			page 132


 5652      455F4556 
 5652      545F474C 
 5652      53435F52 
 5652      4541445F 
 5653              	.LASF259:
 5654 1e31 4359424C 		.ascii	"CYBLE_EVT_ANSC_WRITE_CHAR_RESPONSE\000"
 5654      455F4556 
 5654      545F414E 
 5654      53435F57 
 5654      52495445 
 5655              	.LASF502:
 5656 1e54 4359424C 		.ascii	"CYBLE_STATE_DISCONNECTED\000"
 5656      455F5354 
 5656      4154455F 
 5656      44495343 
 5656      4F4E4E45 
 5657              	.LASF397:
 5658 1e6d 4359424C 		.ascii	"CYBLE_EVT_HTSC_NOTIFICATION\000"
 5658      455F4556 
 5658      545F4854 
 5658      53435F4E 
 5658      4F544946 
 5659              	.LASF6:
 5660 1e89 6C6F6E67 		.ascii	"long long int\000"
 5660      206C6F6E 
 5660      6720696E 
 5660      7400
 5661              	.LASF217:
 5662 1e97 7265706F 		.ascii	"reportArray\000"
 5662      72744172 
 5662      72617900 
 5663              	.LASF541:
 5664 1ea3 4379426C 		.ascii	"CyBle_HidsInit\000"
 5664      655F4869 
 5664      6473496E 
 5664      697400
 5665              	.LASF461:
 5666 1eb2 4359424C 		.ascii	"CYBLE_EVT_TPSC_READ_CHAR_RESPONSE\000"
 5666      455F4556 
 5666      545F5450 
 5666      53435F52 
 5666      4541445F 
 5667              	.LASF191:
 5668 1ed4 4359424C 		.ascii	"CYBLE_DIS_PNP_ID\000"
 5668      455F4449 
 5668      535F504E 
 5668      505F4944 
 5668      00
 5669              	.LASF239:
 5670 1ee5 4359424C 		.ascii	"CYBLE_EVT_GATTC_CHAR_DUPLICATION\000"
 5670      455F4556 
 5670      545F4741 
 5670      5454435F 
 5670      43484152 
 5671              	.LASF354:
 5672 1f06 4359424C 		.ascii	"CYBLE_EVT_GLSS_NOTIFICATION_ENABLED\000"
 5672      455F4556 
ARM GAS  C:\Users\Herry\AppData\Local\Temp\ccuIEJCt.s 			page 133


 5672      545F474C 
 5672      53535F4E 
 5672      4F544946 
 5673              	.LASF124:
 5674 1f2a 4359424C 		.ascii	"CYBLE_GATT_ERR_PREPARE_WRITE_QUEUE_FULL\000"
 5674      455F4741 
 5674      54545F45 
 5674      52525F50 
 5674      52455041 
 5675              	.LASF379:
 5676 1f52 4359424C 		.ascii	"CYBLE_EVT_HPSC_READ_CHAR_RESPONSE\000"
 5676      455F4556 
 5676      545F4850 
 5676      53435F52 
 5676      4541445F 
 5677              	.LASF97:
 5678 1f74 4359424C 		.ascii	"CYBLE_ERROR_L2CAP_PSM_NOT_REGISTERED\000"
 5678      455F4552 
 5678      524F525F 
 5678      4C324341 
 5678      505F5053 
 5679              	.LASF87:
 5680 1f99 4359424C 		.ascii	"CYBLE_ERROR_OOB_NOT_AVAILABLE\000"
 5680      455F4552 
 5680      524F525F 
 5680      4F4F425F 
 5680      4E4F545F 
 5681              	.LASF289:
 5682 1fb7 4359424C 		.ascii	"CYBLE_EVT_CGMSS_INDICATION_ENABLED\000"
 5682      455F4556 
 5682      545F4347 
 5682      4D53535F 
 5682      494E4449 
 5683              	.LASF13:
 5684 1fda 646F7562 		.ascii	"double\000"
 5684      6C6500
 5685              	.LASF102:
 5686 1fe1 4359424C 		.ascii	"CYBLE_ERROR_DEVICE_ALREADY_EXISTS\000"
 5686      455F4552 
 5686      524F525F 
 5686      44455649 
 5686      43455F41 
 5687              	.LASF340:
 5688 2003 4359424C 		.ascii	"CYBLE_EVT_ESSS_INDICATION_DISABLED\000"
 5688      455F4556 
 5688      545F4553 
 5688      53535F49 
 5688      4E444943 
 5689              	.LASF79:
 5690 2026 4359424C 		.ascii	"CYBLE_EVT_PENDING_FLASH_WRITE\000"
 5690      455F4556 
 5690      545F5045 
 5690      4E44494E 
 5690      475F464C 
 5691              	.LASF127:
 5692 2044 4359424C 		.ascii	"CYBLE_GATT_ERR_INSUFFICIENT_ENC_KEY_SIZE\000"
 5692      455F4741 
ARM GAS  C:\Users\Herry\AppData\Local\Temp\ccuIEJCt.s 			page 134


 5692      54545F45 
 5692      52525F49 
 5692      4E535546 
 5693              	.LASF478:
 5694 206d 4359424C 		.ascii	"CYBLE_EVT_WPTSS_NOTIFICATION_ENABLED\000"
 5694      455F4556 
 5694      545F5750 
 5694      5453535F 
 5694      4E4F5449 
 5695              	.LASF151:
 5696 2092 4359424C 		.ascii	"CYBLE_GATT_ERR_PROCEDURE_ALREADY_IN_PROGRESS\000"
 5696      455F4741 
 5696      54545F45 
 5696      52525F50 
 5696      524F4345 
 5697              	.LASF428:
 5698 20bf 4359424C 		.ascii	"CYBLE_EVT_LNSC_WRITE_DESCR_RESPONSE\000"
 5698      455F4556 
 5698      545F4C4E 
 5698      53435F57 
 5698      52495445 
 5699              	.LASF40:
 5700 20e3 4359424C 		.ascii	"CYBLE_EVT_GAP_ENHANCE_CONN_COMPLETE\000"
 5700      455F4556 
 5700      545F4741 
 5700      505F454E 
 5700      48414E43 
 5701              	.LASF415:
 5702 2107 4359424C 		.ascii	"CYBLE_EVT_LLSC_READ_CHAR_RESPONSE\000"
 5702      455F4556 
 5702      545F4C4C 
 5702      53435F52 
 5702      4541445F 
 5703              	.LASF320:
 5704 2129 4359424C 		.ascii	"CYBLE_EVT_CSCSS_INDICATION_CONFIRMATION\000"
 5704      455F4556 
 5704      545F4353 
 5704      4353535F 
 5704      494E4449 
 5705              	.LASF99:
 5706 2151 4359424C 		.ascii	"CYBLE_ERROR_L2CAP_CHANNEL_NOT_FOUND\000"
 5706      455F4552 
 5706      524F525F 
 5706      4C324341 
 5706      505F4348 
 5707              	.LASF535:
 5708 2175 6379426C 		.ascii	"cyBle_gattDB\000"
 5708      655F6761 
 5708      74744442 
 5708      00
 5709              	.LASF205:
 5710 2182 4359424C 		.ascii	"CYBLE_HIDS_REPORT_CCCD\000"
 5710      455F4849 
 5710      44535F52 
 5710      45504F52 
 5710      545F4343 
 5711              	.LASF90:
ARM GAS  C:\Users\Herry\AppData\Local\Temp\ccuIEJCt.s 			page 135


 5712 2199 4359424C 		.ascii	"CYBLE_ERROR_REPEATED_ATTEMPTS\000"
 5712      455F4552 
 5712      524F525F 
 5712      52455045 
 5712      41544544 
 5713              	.LASF344:
 5714 21b7 4359424C 		.ascii	"CYBLE_EVT_ESSS_DESCR_WRITE\000"
 5714      455F4556 
 5714      545F4553 
 5714      53535F44 
 5714      45534352 
 5715              	.LASF339:
 5716 21d2 4359424C 		.ascii	"CYBLE_EVT_ESSS_INDICATION_ENABLED\000"
 5716      455F4556 
 5716      545F4553 
 5716      53535F49 
 5716      4E444943 
 5717              	.LASF343:
 5718 21f4 4359424C 		.ascii	"CYBLE_EVT_ESSS_EXEC_WRITE_REQ\000"
 5718      455F4556 
 5718      545F4553 
 5718      53535F45 
 5718      5845435F 
 5719              	.LASF12:
 5720 2212 666C6F61 		.ascii	"float\000"
 5720      7400
 5721              	.LASF455:
 5722 2218 4359424C 		.ascii	"CYBLE_EVT_SCPSC_NOTIFICATION\000"
 5722      455F4556 
 5722      545F5343 
 5722      5053435F 
 5722      4E4F5449 
 5723              	.LASF366:
 5724 2235 4359424C 		.ascii	"CYBLE_EVT_HIDSS_REPORT_MODE_ENTER\000"
 5724      455F4556 
 5724      545F4849 
 5724      4453535F 
 5724      5245504F 
 5725              	.LASF345:
 5726 2257 4359424C 		.ascii	"CYBLE_EVT_ESSC_NOTIFICATION\000"
 5726      455F4556 
 5726      545F4553 
 5726      53435F4E 
 5726      4F544946 
 5727              	.LASF103:
 5728 2273 4359424C 		.ascii	"CYBLE_ERROR_FLASH_WRITE_NOT_PERMITED\000"
 5728      455F4552 
 5728      524F525F 
 5728      464C4153 
 5728      485F5752 
 5729              	.LASF364:
 5730 2298 4359424C 		.ascii	"CYBLE_EVT_HIDSS_NOTIFICATION_DISABLED\000"
 5730      455F4556 
 5730      545F4849 
 5730      4453535F 
 5730      4E4F5449 
 5731              	.LASF66:
ARM GAS  C:\Users\Herry\AppData\Local\Temp\ccuIEJCt.s 			page 136


 5732 22be 4359424C 		.ascii	"CYBLE_EVT_GATTS_READ_CHAR_VAL_ACCESS_REQ\000"
 5732      455F4556 
 5732      545F4741 
 5732      5454535F 
 5732      52454144 
 5733              	.LASF251:
 5734 22e7 4359424C 		.ascii	"CYBLE_EVT_ANCSC_READ_DESCR_RESPONSE\000"
 5734      455F4556 
 5734      545F414E 
 5734      4353435F 
 5734      52454144 
 5735              	.LASF123:
 5736 230b 4359424C 		.ascii	"CYBLE_GATT_ERR_INSUFFICIENT_AUTHORIZATION\000"
 5736      455F4741 
 5736      54545F45 
 5736      52525F49 
 5736      4E535546 
 5737              	.LASF513:
 5738 2335 64657363 		.ascii	"descrIndex\000"
 5738      72496E64 
 5738      657800
 5739              	.LASF161:
 5740 2340 61747472 		.ascii	"attrHandle\000"
 5740      48616E64 
 5740      6C6500
 5741              	.LASF472:
 5742 234b 4359424C 		.ascii	"CYBLE_EVT_UDSC_NOTIFICATION\000"
 5742      455F4556 
 5742      545F5544 
 5742      53435F4E 
 5742      4F544946 
 5743              	.LASF486:
 5744 2367 4359424C 		.ascii	"CYBLE_EVT_WPTSC_WRITE_CHAR_RESPONSE\000"
 5744      455F4556 
 5744      545F5750 
 5744      5453435F 
 5744      57524954 
 5745              	.LASF166:
 5746 238b 4359424C 		.ascii	"CYBLE_GATTS_WRITE_REQ_PARAM_T\000"
 5746      455F4741 
 5746      5454535F 
 5746      57524954 
 5746      455F5245 
 5747              	.LASF8:
 5748 23a9 756E7369 		.ascii	"unsigned int\000"
 5748      676E6564 
 5748      20696E74 
 5748      00
 5749              	.LASF58:
 5750 23b6 4359424C 		.ascii	"CYBLE_EVT_GATTS_PREP_WRITE_REQ\000"
 5750      455F4556 
 5750      545F4741 
 5750      5454535F 
 5750      50524550 
 5751              	.LASF179:
 5752 23d5 61747445 		.ascii	"attEndHandle\000"
 5752      6E644861 
ARM GAS  C:\Users\Herry\AppData\Local\Temp\ccuIEJCt.s 			page 137


 5752      6E646C65 
 5752      00
 5753              	.LASF120:
 5754 23e2 4359424C 		.ascii	"CYBLE_GATT_ERR_INSUFFICIENT_AUTHENTICATION\000"
 5754      455F4741 
 5754      54545F45 
 5754      52525F49 
 5754      4E535546 
 5755              	.LASF287:
 5756 240d 4359424C 		.ascii	"CYBLE_EVT_BMSC_WRITE_CHAR_RESPONSE\000"
 5756      455F4556 
 5756      545F424D 
 5756      53435F57 
 5756      52495445 
 5757              	.LASF329:
 5758 2430 4359424C 		.ascii	"CYBLE_EVT_CTSS_NOTIFICATION_DISABLED\000"
 5758      455F4556 
 5758      545F4354 
 5758      53535F4E 
 5758      4F544946 
 5759              	.LASF276:
 5760 2455 4359424C 		.ascii	"CYBLE_EVT_BLSS_INDICATION_DISABLED\000"
 5760      455F4556 
 5760      545F424C 
 5760      53535F49 
 5760      4E444943 
 5761              	.LASF190:
 5762 2478 4359424C 		.ascii	"CYBLE_DIS_REG_CERT_DATA\000"
 5762      455F4449 
 5762      535F5245 
 5762      475F4345 
 5762      52545F44 
 5763              	.LASF221:
 5764 2490 696E666F 		.ascii	"informationHandle\000"
 5764      726D6174 
 5764      696F6E48 
 5764      616E646C 
 5764      6500
 5765              	.LASF453:
 5766 24a2 4359424C 		.ascii	"CYBLE_EVT_SCPSS_NOTIFICATION_DISABLED\000"
 5766      455F4556 
 5766      545F5343 
 5766      5053535F 
 5766      4E4F5449 
 5767              	.LASF341:
 5768 24c8 4359424C 		.ascii	"CYBLE_EVT_ESSS_INDICATION_CONFIRMATION\000"
 5768      455F4556 
 5768      545F4553 
 5768      53535F49 
 5768      4E444943 
 5769              	.LASF137:
 5770 24ef 4359424C 		.ascii	"CYBLE_GATTS_ERR_PROCEDURE_ALREADY_IN_PROGRESS\000"
 5770      455F4741 
 5770      5454535F 
 5770      4552525F 
 5770      50524F43 
 5771              	.LASF505:
ARM GAS  C:\Users\Herry\AppData\Local\Temp\ccuIEJCt.s 			page 138


 5772 251d 61747472 		.ascii	"attrSize\000"
 5772      53697A65 
 5772      00
 5773              	.LASF227:
 5774 2526 4359424C 		.ascii	"CYBLE_AUTHENTICATION_REQUEST_REPLY\000"
 5774      455F4155 
 5774      5448454E 
 5774      54494341 
 5774      54494F4E 
 5775              	.LASF95:
 5776 2549 4359424C 		.ascii	"CYBLE_ERROR_L2CAP_PSM_WRONG_ENCODING\000"
 5776      455F4552 
 5776      524F525F 
 5776      4C324341 
 5776      505F5053 
 5777              	.LASF279:
 5778 256e 4359424C 		.ascii	"CYBLE_EVT_BLSS_NOTIFICATION_DISABLED\000"
 5778      455F4556 
 5778      545F424C 
 5778      53535F4E 
 5778      4F544946 
 5779              	.LASF125:
 5780 2593 4359424C 		.ascii	"CYBLE_GATT_ERR_ATTRIBUTE_NOT_FOUND\000"
 5780      455F4741 
 5780      54545F45 
 5780      52525F41 
 5780      54545249 
 5781              	.LASF400:
 5782 25b6 4359424C 		.ascii	"CYBLE_EVT_HTSC_WRITE_CHAR_RESPONSE\000"
 5782      455F4556 
 5782      545F4854 
 5782      53435F57 
 5782      52495445 
 5783              	.LASF382:
 5784 25d9 4359424C 		.ascii	"CYBLE_EVT_HPSC_WRITE_CHAR_RESPONSE\000"
 5784      455F4556 
 5784      545F4850 
 5784      53435F57 
 5784      52495445 
 5785              	.LASF212:
 5786 25fc 72726448 		.ascii	"rrdHandle\000"
 5786      616E646C 
 5786      6500
 5787              	.LASF81:
 5788 2606 4359424C 		.ascii	"CYBLE_EVT_MAX\000"
 5788      455F4556 
 5788      545F4D41 
 5788      5800
 5789              	.LASF34:
 5790 2614 4359424C 		.ascii	"CYBLE_EVT_GAPC_SCAN_START_STOP\000"
 5790      455F4556 
 5790      545F4741 
 5790      50435F53 
 5790      43414E5F 
 5791              	.LASF254:
 5792 2633 4359424C 		.ascii	"CYBLE_EVT_ANSS_NOTIFICATION_ENABLED\000"
 5792      455F4556 
ARM GAS  C:\Users\Herry\AppData\Local\Temp\ccuIEJCt.s 			page 139


 5792      545F414E 
 5792      53535F4E 
 5792      4F544946 
 5793              	.LASF531:
 5794 2657 6379426C 		.ascii	"cyBle_hids1ReportArray\000"
 5794      655F6869 
 5794      64733152 
 5794      65706F72 
 5794      74417272 
 5795              	.LASF55:
 5796 266e 4359424C 		.ascii	"CYBLE_EVT_GATTS_WRITE_REQ\000"
 5796      455F4556 
 5796      545F4741 
 5796      5454535F 
 5796      57524954 
 5797              	.LASF540:
 5798 2688 443A5C47 		.ascii	"D:\\GitHub\\CY_BLE_MOUSE\\BLE_HID_Mouse\\BLE_HID_Mo"
 5798      69744875 
 5798      625C4359 
 5798      5F424C45 
 5798      5F4D4F55 
 5799 26b7 7573652E 		.ascii	"use.cydsn\000"
 5799      63796473 
 5799      6E00
 5800              	.LASF474:
 5801 26c1 4359424C 		.ascii	"CYBLE_EVT_UDSC_WRITE_CHAR_RESPONSE\000"
 5801      455F4556 
 5801      545F5544 
 5801      53435F57 
 5801      52495445 
 5802              	.LASF485:
 5803 26e4 4359424C 		.ascii	"CYBLE_EVT_WPTSC_INDICATION\000"
 5803      455F4556 
 5803      545F5750 
 5803      5453435F 
 5803      494E4449 
 5804              	.LASF26:
 5805 26ff 4359424C 		.ascii	"CYBLE_EVT_GAP_PASSKEY_DISPLAY_REQUEST\000"
 5805      455F4556 
 5805      545F4741 
 5805      505F5041 
 5805      53534B45 
 5806              	.LASF111:
 5807 2725 4359424C 		.ascii	"CYBLE_ERROR_IND_DISABLED\000"
 5807      455F4552 
 5807      524F525F 
 5807      494E445F 
 5807      44495341 
 5808              	.LASF110:
 5809 273e 4359424C 		.ascii	"CYBLE_ERROR_NTF_DISABLED\000"
 5809      455F4552 
 5809      524F525F 
 5809      4E54465F 
 5809      44495341 
 5810              	.LASF210:
 5811 2757 7265706F 		.ascii	"reportHandle\000"
 5811      72744861 
ARM GAS  C:\Users\Herry\AppData\Local\Temp\ccuIEJCt.s 			page 140


 5811      6E646C65 
 5811      00
 5812              	.LASF52:
 5813 2764 4359424C 		.ascii	"CYBLE_EVT_GATTC_READ_RSP\000"
 5813      455F4556 
 5813      545F4741 
 5813      5454435F 
 5813      52454144 
 5814              	.LASF310:
 5815 277d 4359424C 		.ascii	"CYBLE_EVT_CPSC_INDICATION\000"
 5815      455F4556 
 5815      545F4350 
 5815      53435F49 
 5815      4E444943 
 5816              	.LASF122:
 5817 2797 4359424C 		.ascii	"CYBLE_GATT_ERR_INVALID_OFFSET\000"
 5817      455F4741 
 5817      54545F45 
 5817      52525F49 
 5817      4E56414C 
 5818              	.LASF336:
 5819 27b5 4359424C 		.ascii	"CYBLE_EVT_DISC_READ_CHAR_RESPONSE\000"
 5819      455F4556 
 5819      545F4449 
 5819      53435F52 
 5819      4541445F 
 5820              	.LASF72:
 5821 27d7 4359424C 		.ascii	"CYBLE_EVT_L2CAP_CBFC_CONN_CNF\000"
 5821      455F4556 
 5821      545F4C32 
 5821      4341505F 
 5821      43424643 
 5822              	.LASF226:
 5823 27f5 4359424C 		.ascii	"CYBLE_HIDS_CHAR_VALUE_T\000"
 5823      455F4849 
 5823      44535F43 
 5823      4841525F 
 5823      56414C55 
 5824              	.LASF169:
 5825 280d 4359424C 		.ascii	"CYBLE_GATTS_ATT_GEN_VAL_LEN_T\000"
 5825      455F4741 
 5825      5454535F 
 5825      4154545F 
 5825      47454E5F 
 5826              	.LASF401:
 5827 282b 4359424C 		.ascii	"CYBLE_EVT_HTSC_READ_DESCR_RESPONSE\000"
 5827      455F4556 
 5827      545F4854 
 5827      53435F52 
 5827      4541445F 
 5828              	.LASF497:
 5829 284e 4359424C 		.ascii	"CYBLE_DEBUG_EVT_BLESS_INT\000"
 5829      455F4445 
 5829      4255475F 
 5829      4556545F 
 5829      424C4553 
 5830              	.LASF152:
ARM GAS  C:\Users\Herry\AppData\Local\Temp\ccuIEJCt.s 			page 141


 5831 2868 4359424C 		.ascii	"CYBLE_GATT_ERR_OUT_OF_RANGE\000"
 5831      455F4741 
 5831      54545F45 
 5831      52525F4F 
 5831      55545F4F 
 5832              	.LASF356:
 5833 2884 4359424C 		.ascii	"CYBLE_EVT_GLSS_WRITE_CHAR\000"
 5833      455F4556 
 5833      545F474C 
 5833      53535F57 
 5833      52495445 
 5834              	.LASF292:
 5835 289e 4359424C 		.ascii	"CYBLE_EVT_CGMSS_NOTIFICATION_ENABLED\000"
 5835      455F4556 
 5835      545F4347 
 5835      4D53535F 
 5835      4E4F5449 
 5836              	.LASF386:
 5837 28c3 4359424C 		.ascii	"CYBLE_EVT_HRSC_NOTIFICATION\000"
 5837      455F4556 
 5837      545F4852 
 5837      53435F4E 
 5837      4F544946 
 5838              	.LASF22:
 5839 28df 4359424C 		.ascii	"CYBLE_EVT_MEMORY_REQUEST\000"
 5839      455F4556 
 5839      545F4D45 
 5839      4D4F5259 
 5839      5F524551 
 5840              	.LASF524:
 5841 28f8 6C6F6352 		.ascii	"locReqHandle\000"
 5841      65714861 
 5841      6E646C65 
 5841      00
 5842              	.LASF442:
 5843 2905 4359424C 		.ascii	"CYBLE_EVT_RSCSS_INDICATION_CONFIRMATION\000"
 5843      455F4556 
 5843      545F5253 
 5843      4353535F 
 5843      494E4449 
 5844              	.LASF373:
 5845 292d 4359424C 		.ascii	"CYBLE_EVT_HIDSC_READ_DESCR_RESPONSE\000"
 5845      455F4556 
 5845      545F4849 
 5845      4453435F 
 5845      52454144 
 5846              	.LASF526:
 5847 2951 6E746652 		.ascii	"ntfReqParam\000"
 5847      65715061 
 5847      72616D00 
 5848              	.LASF387:
 5849 295d 4359424C 		.ascii	"CYBLE_EVT_HRSC_READ_CHAR_RESPONSE\000"
 5849      455F4556 
 5849      545F4852 
 5849      53435F52 
 5849      4541445F 
 5850              	.LASF264:
ARM GAS  C:\Users\Herry\AppData\Local\Temp\ccuIEJCt.s 			page 142


 5851 297f 4359424C 		.ascii	"CYBLE_EVT_BASC_NOTIFICATION\000"
 5851      455F4556 
 5851      545F4241 
 5851      53435F4E 
 5851      4F544946 
 5852              	.LASF32:
 5853 299b 4359424C 		.ascii	"CYBLE_EVT_GAP_ENCRYPT_CHANGE\000"
 5853      455F4556 
 5853      545F4741 
 5853      505F454E 
 5853      43525950 
 5854              	.LASF429:
 5855 29b8 4359424C 		.ascii	"CYBLE_EVT_NDCSC_READ_CHAR_RESPONSE\000"
 5855      455F4556 
 5855      545F4E44 
 5855      4353435F 
 5855      52454144 
 5856              	.LASF240:
 5857 29db 4359424C 		.ascii	"CYBLE_EVT_GATTC_DESCR_DUPLICATION\000"
 5857      455F4556 
 5857      545F4741 
 5857      5454435F 
 5857      44455343 
 5858              	.LASF46:
 5859 29fd 4359424C 		.ascii	"CYBLE_EVT_GATTS_XCNHG_MTU_REQ\000"
 5859      455F4556 
 5859      545F4741 
 5859      5454535F 
 5859      58434E48 
 5860              	.LASF376:
 5861 2a1b 4359424C 		.ascii	"CYBLE_EVT_HPSS_NOTIFICATION_DISABLED\000"
 5861      455F4556 
 5861      545F4850 
 5861      53535F4E 
 5861      4F544946 
 5862              	.LASF206:
 5863 2a40 4359424C 		.ascii	"CYBLE_HIDS_REPORT_RRD\000"
 5863      455F4849 
 5863      44535F52 
 5863      45504F52 
 5863      545F5252 
 5864              	.LASF467:
 5865 2a56 4359424C 		.ascii	"CYBLE_EVT_UDSS_NOTIFICATION_ENABLED\000"
 5865      455F4556 
 5865      545F5544 
 5865      53535F4E 
 5865      4F544946 
 5866              	.LASF419:
 5867 2a7a 4359424C 		.ascii	"CYBLE_EVT_LNSS_INDICATION_CONFIRMED\000"
 5867      455F4556 
 5867      545F4C4E 
 5867      53535F49 
 5867      4E444943 
 5868              	.LASF491:
 5869 2a9e 4359424C 		.ascii	"CYBLE_EVT_WSSS_INDICATION_DISABLED\000"
 5869      455F4556 
 5869      545F5753 
ARM GAS  C:\Users\Herry\AppData\Local\Temp\ccuIEJCt.s 			page 143


 5869      53535F49 
 5869      4E444943 
 5870              	.LASF261:
 5871 2ac1 4359424C 		.ascii	"CYBLE_EVT_ANSC_WRITE_DESCR_RESPONSE\000"
 5871      455F4556 
 5871      545F414E 
 5871      53435F57 
 5871      52495445 
 5872              	.LASF425:
 5873 2ae5 4359424C 		.ascii	"CYBLE_EVT_LNSC_READ_CHAR_RESPONSE\000"
 5873      455F4556 
 5873      545F4C4E 
 5873      53435F52 
 5873      4541445F 
 5874              	.LASF183:
 5875 2b07 4359424C 		.ascii	"CYBLE_DIS_MANUFACTURER_NAME\000"
 5875      455F4449 
 5875      535F4D41 
 5875      4E554641 
 5875      43545552 
 5876              	.LASF353:
 5877 2b23 4359424C 		.ascii	"CYBLE_EVT_GLSS_INDICATION_CONFIRMED\000"
 5877      455F4556 
 5877      545F474C 
 5877      53535F49 
 5877      4E444943 
 5878              	.LASF503:
 5879 2b47 4359424C 		.ascii	"CYBLE_STATE_T\000"
 5879      455F5354 
 5879      4154455F 
 5879      5400
 5880              	.LASF231:
 5881 2b55 4359424C 		.ascii	"CYBLE_EVT_GATTS_INDICATION_ENABLED\000"
 5881      455F4556 
 5881      545F4741 
 5881      5454535F 
 5881      494E4449 
 5882              	.LASF7:
 5883 2b78 6C6F6E67 		.ascii	"long long unsigned int\000"
 5883      206C6F6E 
 5883      6720756E 
 5883      7369676E 
 5883      65642069 
 5884              	.LASF116:
 5885 2b8f 4359424C 		.ascii	"CYBLE_GATT_ERR_INVALID_HANDLE\000"
 5885      455F4741 
 5885      54545F45 
 5885      52525F49 
 5885      4E56414C 
 5886              	.LASF18:
 5887 2bad 4359424C 		.ascii	"CYBLE_EVT_TIMEOUT\000"
 5887      455F4556 
 5887      545F5449 
 5887      4D454F55 
 5887      5400
 5888              	.LASF333:
 5889 2bbf 4359424C 		.ascii	"CYBLE_EVT_CTSC_READ_DESCR_RESPONSE\000"
ARM GAS  C:\Users\Herry\AppData\Local\Temp\ccuIEJCt.s 			page 144


 5889      455F4556 
 5889      545F4354 
 5889      53435F52 
 5889      4541445F 
 5890              	.LASF216:
 5891 2be2 7265706F 		.ascii	"reportCount\000"
 5891      7274436F 
 5891      756E7400 
 5892              	.LASF139:
 5893 2bee 4359424C 		.ascii	"CYBLE_GATT_ERR_MISSING_CRC\000"
 5893      455F4741 
 5893      54545F45 
 5893      52525F4D 
 5893      49535349 
 5894              	.LASF113:
 5895 2c09 4359424C 		.ascii	"CYBLE_ERROR_INVALID_STATE\000"
 5895      455F4552 
 5895      524F525F 
 5895      494E5641 
 5895      4C49445F 
 5896              	.LASF154:
 5897 2c23 4359424C 		.ascii	"CYBLE_GATT_DB_ATTR_HANDLE_T\000"
 5897      455F4741 
 5897      54545F44 
 5897      425F4154 
 5897      54525F48 
 5898              	.LASF75:
 5899 2c3f 4359424C 		.ascii	"CYBLE_EVT_L2CAP_CBFC_DATA_READ\000"
 5899      455F4556 
 5899      545F4C32 
 5899      4341505F 
 5899      43424643 
 5900              	.LASF115:
 5901 2c5e 4359424C 		.ascii	"CYBLE_GATT_ERR_NONE\000"
 5901      455F4741 
 5901      54545F45 
 5901      52525F4E 
 5901      4F4E4500 
 5902              	.LASF160:
 5903 2c72 76616C75 		.ascii	"value\000"
 5903      6500
 5904              	.LASF309:
 5905 2c78 4359424C 		.ascii	"CYBLE_EVT_CPSC_NOTIFICATION\000"
 5905      455F4556 
 5905      545F4350 
 5905      53435F4E 
 5905      4F544946 
 5906              	.LASF284:
 5907 2c94 4359424C 		.ascii	"CYBLE_EVT_BLSC_WRITE_DESCR_RESPONSE\000"
 5907      455F4556 
 5907      545F424C 
 5907      53435F57 
 5907      52495445 
 5908              	.LASF180:
 5909 2cb8 61747456 		.ascii	"attValue\000"
 5909      616C7565 
 5909      00
ARM GAS  C:\Users\Herry\AppData\Local\Temp\ccuIEJCt.s 			page 145


 5910              	.LASF424:
 5911 2cc1 4359424C 		.ascii	"CYBLE_EVT_LNSC_NOTIFICATION\000"
 5911      455F4556 
 5911      545F4C4E 
 5911      53435F4E 
 5911      4F544946 
 5912              	.LASF511:
 5913 2cdd 4379426C 		.ascii	"CyBle_HidssGetCharacteristicValue\000"
 5913      655F4869 
 5913      64737347 
 5913      65744368 
 5913      61726163 
 5914              	.LASF218:
 5915 2cff 626F6F74 		.ascii	"bootReportArray\000"
 5915      5265706F 
 5915      72744172 
 5915      72617900 
 5916              	.LASF107:
 5917 2d0f 4359424C 		.ascii	"CYBLE_ERROR_FLASH_WRITE\000"
 5917      455F4552 
 5917      524F525F 
 5917      464C4153 
 5917      485F5752 
 5918              	.LASF352:
 5919 2d27 4359424C 		.ascii	"CYBLE_EVT_GLSS_INDICATION_DISABLED\000"
 5919      455F4556 
 5919      545F474C 
 5919      53535F49 
 5919      4E444943 
 5920              	.LASF136:
 5921 2d4a 4359424C 		.ascii	"CYBLE_GATT_ERR_HTS_OUT_OF_RANGE\000"
 5921      455F4741 
 5921      54545F45 
 5921      52525F48 
 5921      54535F4F 
 5922              	.LASF521:
 5923 2d6a 7265706F 		.ascii	"reportIndex\000"
 5923      7274496E 
 5923      64657800 
 5924              	.LASF238:
 5925 2d76 4359424C 		.ascii	"CYBLE_EVT_GATTC_SRVC_DUPLICATION\000"
 5925      455F4556 
 5925      545F4741 
 5925      5454435F 
 5925      53525643 
 5926              	.LASF417:
 5927 2d97 4359424C 		.ascii	"CYBLE_EVT_LNSS_INDICATION_ENABLED\000"
 5927      455F4556 
 5927      545F4C4E 
 5927      53535F49 
 5927      4E444943 
 5928              	.LASF518:
 5929 2db9 4379426C 		.ascii	"CyBle_HidssWriteEventHandler\000"
 5929      655F4869 
 5929      64737357 
 5929      72697465 
 5929      4576656E 
ARM GAS  C:\Users\Herry\AppData\Local\Temp\ccuIEJCt.s 			page 146


 5930              	.LASF538:
 5931 2dd6 474E5520 		.ascii	"GNU C 4.9.3 20150303 (release) [ARM/embedded-4_9-br"
 5931      4320342E 
 5931      392E3320 
 5931      32303135 
 5931      30333033 
 5932 2e09 616E6368 		.ascii	"anch revision 221220] -mcpu=cortex-m0 -mthumb -g -O"
 5932      20726576 
 5932      6973696F 
 5932      6E203232 
 5932      31323230 
 5933 2e3c 30202D66 		.ascii	"0 -ffunction-sections -ffat-lto-objects\000"
 5933      66756E63 
 5933      74696F6E 
 5933      2D736563 
 5933      74696F6E 
 5934              	.LASF246:
 5935 2e64 4359424C 		.ascii	"CYBLE_EVT_ANCSS_NOTIFICATION_DISABLED\000"
 5935      455F4556 
 5935      545F414E 
 5935      4353535F 
 5935      4E4F5449 
 5936              	.LASF222:
 5937 2e8a 636F6E74 		.ascii	"controlPointHandle\000"
 5937      726F6C50 
 5937      6F696E74 
 5937      48616E64 
 5937      6C6500
 5938              	.LASF198:
 5939 2e9d 4359424C 		.ascii	"CYBLE_HIDS_BOOT_KYBRD_OUT_REP\000"
 5939      455F4849 
 5939      44535F42 
 5939      4F4F545F 
 5939      4B594252 
 5940              	.LASF164:
 5941 2ebb 636F6E6E 		.ascii	"connHandle\000"
 5941      48616E64 
 5941      6C6500
 5942              	.LASF167:
 5943 2ec6 61637475 		.ascii	"actualLength\000"
 5943      616C4C65 
 5943      6E677468 
 5943      00
 5944              	.LASF263:
 5945 2ed3 4359424C 		.ascii	"CYBLE_EVT_BASS_NOTIFICATION_DISABLED\000"
 5945      455F4556 
 5945      545F4241 
 5945      53535F4E 
 5945      4F544946 
 5946              	.LASF301:
 5947 2ef8 4359424C 		.ascii	"CYBLE_EVT_CPSS_NOTIFICATION_ENABLED\000"
 5947      455F4556 
 5947      545F4350 
 5947      53535F4E 
 5947      4F544946 
 5948              	.LASF462:
 5949 2f1c 4359424C 		.ascii	"CYBLE_EVT_TPSC_READ_DESCR_RESPONSE\000"
ARM GAS  C:\Users\Herry\AppData\Local\Temp\ccuIEJCt.s 			page 147


 5949      455F4556 
 5949      545F5450 
 5949      53435F52 
 5949      4541445F 
 5950              	.LASF514:
 5951 2f3f 6C6F6344 		.ascii	"locDescrHandle\000"
 5951      65736372 
 5951      48616E64 
 5951      6C6500
 5952              	.LASF533:
 5953 2f4e 6379426C 		.ascii	"cyBle_pendingFlashWrite\000"
 5953      655F7065 
 5953      6E64696E 
 5953      67466C61 
 5953      73685772 
 5954              	.LASF477:
 5955 2f66 4359424C 		.ascii	"CYBLE_EVT_UDSC_ERROR_RESPONSE\000"
 5955      455F4556 
 5955      545F5544 
 5955      53435F45 
 5955      52524F52 
 5956              	.LASF50:
 5957 2f84 4359424C 		.ascii	"CYBLE_EVT_GATTC_FIND_INFO_RSP\000"
 5957      455F4556 
 5957      545F4741 
 5957      5454435F 
 5957      46494E44 
 5958              	.LASF49:
 5959 2fa2 4359424C 		.ascii	"CYBLE_EVT_GATTC_READ_BY_TYPE_RSP\000"
 5959      455F4556 
 5959      545F4741 
 5959      5454435F 
 5959      52454144 
 5960              	.LASF431:
 5961 2fc3 4359424C 		.ascii	"CYBLE_EVT_PASSS_NOTIFICATION_DISABLED\000"
 5961      455F4556 
 5961      545F5041 
 5961      5353535F 
 5961      4E4F5449 
 5962              	.LASF299:
 5963 2fe9 4359424C 		.ascii	"CYBLE_EVT_CGMSC_READ_DESCR_RESPONSE\000"
 5963      455F4556 
 5963      545F4347 
 5963      4D53435F 
 5963      52454144 
 5964              	.LASF371:
 5965 300d 4359424C 		.ascii	"CYBLE_EVT_HIDSC_READ_CHAR_RESPONSE\000"
 5965      455F4556 
 5965      545F4849 
 5965      4453435F 
 5965      52454144 
 5966              	.LASF141:
 5967 3030 4359424C 		.ascii	"CYBLE_GATTS_ERR_OPERATION_FAILED\000"
 5967      455F4741 
 5967      5454535F 
 5967      4552525F 
 5967      4F504552 
ARM GAS  C:\Users\Herry\AppData\Local\Temp\ccuIEJCt.s 			page 148


 5968              	.LASF507:
 5969 3051 61706952 		.ascii	"apiResult\000"
 5969      6573756C 
 5969      7400
 5970              	.LASF527:
 5971 305b 4379426C 		.ascii	"CyBle_HidsRegisterAttrCallback\000"
 5971      655F4869 
 5971      64735265 
 5971      67697374 
 5971      65724174 
 5972              	.LASF537:
 5973 307a 6379426C 		.ascii	"cyBle_state\000"
 5973      655F7374 
 5973      61746500 
 5974              	.LASF522:
 5975 3086 6C6F6343 		.ascii	"locCharIndex\000"
 5975      68617249 
 5975      6E646578 
 5975      00
 5976              	.LASF459:
 5977 3093 4359424C 		.ascii	"CYBLE_EVT_TPSS_NOTIFICATION_DISABLED\000"
 5977      455F4556 
 5977      545F5450 
 5977      53535F4E 
 5977      4F544946 
 5978              	.LASF456:
 5979 30b8 4359424C 		.ascii	"CYBLE_EVT_SCPSC_READ_DESCR_RESPONSE\000"
 5979      455F4556 
 5979      545F5343 
 5979      5053435F 
 5979      52454144 
 5980              	.LASF390:
 5981 30dc 4359424C 		.ascii	"CYBLE_EVT_HRSC_WRITE_DESCR_RESPONSE\000"
 5981      455F4556 
 5981      545F4852 
 5981      53435F57 
 5981      52495445 
 5982              	.LASF422:
 5983 3100 4359424C 		.ascii	"CYBLE_EVT_LNSS_WRITE_CHAR\000"
 5983      455F4556 
 5983      545F4C4E 
 5983      53535F57 
 5983      52495445 
 5984              	.LASF342:
 5985 311a 4359424C 		.ascii	"CYBLE_EVT_ESSS_CHAR_WRITE\000"
 5985      455F4556 
 5985      545F4553 
 5985      53535F43 
 5985      4841525F 
 5986              	.LASF56:
 5987 3134 4359424C 		.ascii	"CYBLE_EVT_GATTC_WRITE_RSP\000"
 5987      455F4556 
 5987      545F4741 
 5987      5454435F 
 5987      57524954 
 5988              	.LASF337:
 5989 314e 4359424C 		.ascii	"CYBLE_EVT_ESSS_NOTIFICATION_ENABLED\000"
ARM GAS  C:\Users\Herry\AppData\Local\Temp\ccuIEJCt.s 			page 149


 5989      455F4556 
 5989      545F4553 
 5989      53535F4E 
 5989      4F544946 
 5990              	.LASF525:
 5991 3172 4379426C 		.ascii	"CyBle_HidssSendNotification\000"
 5991      655F4869 
 5991      64737353 
 5991      656E644E 
 5991      6F746966 
 5992              	.LASF406:
 5993 318e 4359424C 		.ascii	"CYBLE_EVT_IPSS_WRITE_CHAR_CMD\000"
 5993      455F4556 
 5993      545F4950 
 5993      53535F57 
 5993      52495445 
 5994              	.LASF175:
 5995 31ac 4359424C 		.ascii	"CYBLE_GATTS_ATT_VALUE_T\000"
 5995      455F4741 
 5995      5454535F 
 5995      4154545F 
 5995      56414C55 
 5996              	.LASF199:
 5997 31c4 4359424C 		.ascii	"CYBLE_HIDS_BOOT_MOUSE_IN_REP\000"
 5997      455F4849 
 5997      44535F42 
 5997      4F4F545F 
 5997      4D4F5553 
 5998              	.LASF444:
 5999 31e1 4359424C 		.ascii	"CYBLE_EVT_RSCSC_NOTIFICATION\000"
 5999      455F4556 
 5999      545F5253 
 5999      4353435F 
 5999      4E4F5449 
 6000              	.LASF172:
 6001 31fe 4359424C 		.ascii	"CYBLE_GATTS_ATT_PACK_VAL_LEN_T\000"
 6001      455F4741 
 6001      5454535F 
 6001      4154545F 
 6001      5041434B 
 6002              	.LASF29:
 6003 321d 4359424C 		.ascii	"CYBLE_EVT_GAPP_ADVERTISEMENT_START_STOP\000"
 6003      455F4556 
 6003      545F4741 
 6003      50505F41 
 6003      44564552 
 6004              	.LASF277:
 6005 3245 4359424C 		.ascii	"CYBLE_EVT_BLSS_INDICATION_CONFIRMED\000"
 6005      455F4556 
 6005      545F424C 
 6005      53535F49 
 6005      4E444943 
 6006              	.LASF488:
 6007 3269 4359424C 		.ascii	"CYBLE_EVT_WPTSC_READ_DESCR_RESPONSE\000"
 6007      455F4556 
 6007      545F5750 
 6007      5453435F 
ARM GAS  C:\Users\Herry\AppData\Local\Temp\ccuIEJCt.s 			page 150


 6007      52454144 
 6008              	.LASF248:
 6009 328d 4359424C 		.ascii	"CYBLE_EVT_ANCSC_NOTIFICATION\000"
 6009      455F4556 
 6009      545F414E 
 6009      4353435F 
 6009      4E4F5449 
 6010              	.LASF168:
 6011 32aa 61747447 		.ascii	"attGenericVal\000"
 6011      656E6572 
 6011      69635661 
 6011      6C00
 6012              	.LASF298:
 6013 32b8 4359424C 		.ascii	"CYBLE_EVT_CGMSC_WRITE_CHAR_RESPONSE\000"
 6013      455F4556 
 6013      545F4347 
 6013      4D53435F 
 6013      57524954 
 6014              	.LASF9:
 6015 32dc 75696E74 		.ascii	"uint8\000"
 6015      3800
 6016              	.LASF399:
 6017 32e2 4359424C 		.ascii	"CYBLE_EVT_HTSC_READ_CHAR_RESPONSE\000"
 6017      455F4556 
 6017      545F4854 
 6017      53435F52 
 6017      4541445F 
 6018              	.LASF37:
 6019 3304 4359424C 		.ascii	"CYBLE_EVT_GAP_KEYPRESS_NOTIFICATION\000"
 6019      455F4556 
 6019      545F4741 
 6019      505F4B45 
 6019      59505245 
 6020              	.LASF437:
 6021 3328 4359424C 		.ascii	"CYBLE_EVT_PASSC_WRITE_DESCR_RESPONSE\000"
 6021      455F4556 
 6021      545F5041 
 6021      5353435F 
 6021      57524954 
 6022              	.LASF512:
 6023 334d 4379426C 		.ascii	"CyBle_HidssGetCharacteristicDescriptor\000"
 6023      655F4869 
 6023      64737347 
 6023      65744368 
 6023      61726163 
 6024              	.LASF2:
 6025 3374 73686F72 		.ascii	"short int\000"
 6025      7420696E 
 6025      7400
 6026              	.LASF165:
 6027 337e 68616E64 		.ascii	"handleValPair\000"
 6027      6C655661 
 6027      6C506169 
 6027      7200
 6028              	.LASF285:
 6029 338c 4359424C 		.ascii	"CYBLE_EVT_BMSS_WRITE_CHAR\000"
 6029      455F4556 
ARM GAS  C:\Users\Herry\AppData\Local\Temp\ccuIEJCt.s 			page 151


 6029      545F424D 
 6029      53535F57 
 6029      52495445 
 6030              	.LASF171:
 6031 33a6 61747447 		.ascii	"attGenericValLen\000"
 6031      656E6572 
 6031      69635661 
 6031      6C4C656E 
 6031      00
 6032              	.LASF173:
 6033 33b7 61747446 		.ascii	"attFormatValue\000"
 6033      6F726D61 
 6033      7456616C 
 6033      756500
 6034              	.LASF105:
 6035 33c6 4359424C 		.ascii	"CYBLE_ERROR_HARDWARE_FAILURE\000"
 6035      455F4552 
 6035      524F525F 
 6035      48415244 
 6035      57415245 
 6036              	.LASF135:
 6037 33e3 4359424C 		.ascii	"CYBLE_GATT_ERR_CPS_INAPPROPRIATE_CONNECTION_PARAMET"
 6037      455F4741 
 6037      54545F45 
 6037      52525F43 
 6037      50535F49 
 6038 3416 45525300 		.ascii	"ERS\000"
 6039              	.LASF296:
 6040 341a 4359424C 		.ascii	"CYBLE_EVT_CGMSC_NOTIFICATION\000"
 6040      455F4556 
 6040      545F4347 
 6040      4D53435F 
 6040      4E4F5449 
 6041              	.LASF121:
 6042 3437 4359424C 		.ascii	"CYBLE_GATT_ERR_REQUEST_NOT_SUPPORTED\000"
 6042      455F4741 
 6042      54545F45 
 6042      52525F52 
 6042      45515545 
 6043              	.LASF43:
 6044 345c 4359424C 		.ascii	"CYBLE_EVT_GATTC_ERROR_RSP\000"
 6044      455F4556 
 6044      545F4741 
 6044      5454435F 
 6044      4552524F 
 6045              	.LASF348:
 6046 3476 4359424C 		.ascii	"CYBLE_EVT_ESSC_WRITE_CHAR_RESPONSE\000"
 6046      455F4556 
 6046      545F4553 
 6046      53435F57 
 6046      52495445 
 6047              	.LASF253:
 6048 3499 4359424C 		.ascii	"CYBLE_EVT_ANCSC_ERROR_RESPONSE\000"
 6048      455F4556 
 6048      545F414E 
 6048      4353435F 
 6048      4552524F 
ARM GAS  C:\Users\Herry\AppData\Local\Temp\ccuIEJCt.s 			page 152


 6049              	.LASF267:
 6050 34b8 4359424C 		.ascii	"CYBLE_EVT_BASC_WRITE_DESCR_RESPONSE\000"
 6050      455F4556 
 6050      545F4241 
 6050      53435F57 
 6050      52495445 
 6051              	.LASF234:
 6052 34dc 4359424C 		.ascii	"CYBLE_EVT_GATTC_SRVC_DISCOVERY_FAILED\000"
 6052      455F4556 
 6052      545F4741 
 6052      5454435F 
 6052      53525643 
 6053              	.LASF351:
 6054 3502 4359424C 		.ascii	"CYBLE_EVT_GLSS_INDICATION_ENABLED\000"
 6054      455F4556 
 6054      545F474C 
 6054      53535F49 
 6054      4E444943 
 6055              	.LASF256:
 6056 3524 4359424C 		.ascii	"CYBLE_EVT_ANSS_CHAR_WRITE\000"
 6056      455F4556 
 6056      545F414E 
 6056      53535F43 
 6056      4841525F 
 6057              	.LASF515:
 6058 353e 6C6F6352 		.ascii	"locReport\000"
 6058      65706F72 
 6058      7400
 6059              	.LASF71:
 6060 3548 4359424C 		.ascii	"CYBLE_EVT_L2CAP_CBFC_CONN_IND\000"
 6060      455F4556 
 6060      545F4C32 
 6060      4341505F 
 6060      43424643 
 6061              	.LASF59:
 6062 3566 4359424C 		.ascii	"CYBLE_EVT_GATTS_EXEC_WRITE_REQ\000"
 6062      455F4556 
 6062      545F4741 
 6062      5454535F 
 6062      45584543 
 6063              	.LASF23:
 6064 3585 4359424C 		.ascii	"CYBLE_EVT_GAPC_SCAN_PROGRESS_RESULT\000"
 6064      455F4556 
 6064      545F4741 
 6064      50435F53 
 6064      43414E5F 
 6065              	.LASF380:
 6066 35a9 4359424C 		.ascii	"CYBLE_EVT_HPSC_READ_DESCR_RESPONSE\000"
 6066      455F4556 
 6066      545F4850 
 6066      53435F52 
 6066      4541445F 
 6067              	.LASF330:
 6068 35cc 4359424C 		.ascii	"CYBLE_EVT_CTSS_CHAR_WRITE\000"
 6068      455F4556 
 6068      545F4354 
 6068      53535F43 
ARM GAS  C:\Users\Herry\AppData\Local\Temp\ccuIEJCt.s 			page 153


 6068      4841525F 
 6069              	.LASF464:
 6070 35e6 4359424C 		.ascii	"CYBLE_EVT_UDSS_INDICATION_ENABLED\000"
 6070      455F4556 
 6070      545F5544 
 6070      53535F49 
 6070      4E444943 
 6071              	.LASF413:
 6072 3608 4359424C 		.ascii	"CYBLE_EVT_IPSC_READ_BLOB_RSP\000"
 6072      455F4556 
 6072      545F4950 
 6072      53435F52 
 6072      4541445F 
 6073              	.LASF153:
 6074 3625 4359424C 		.ascii	"CYBLE_GATT_ERR_CODE_T\000"
 6074      455F4741 
 6074      54545F45 
 6074      52525F43 
 6074      4F44455F 
 6075              	.LASF148:
 6076 363b 4359424C 		.ascii	"CYBLE_GATT_ERR_ANCS_INVALID_PARAMETER\000"
 6076      455F4741 
 6076      54545F45 
 6076      52525F41 
 6076      4E43535F 
 6077              	.LASF91:
 6078 3661 4359424C 		.ascii	"CYBLE_ERROR_GAP_ROLE\000"
 6078      455F4552 
 6078      524F525F 
 6078      4741505F 
 6078      524F4C45 
 6079              	.LASF393:
 6080 3676 4359424C 		.ascii	"CYBLE_EVT_HTSS_INDICATION_ENABLED\000"
 6080      455F4556 
 6080      545F4854 
 6080      53535F49 
 6080      4E444943 
 6081              	.LASF475:
 6082 3698 4359424C 		.ascii	"CYBLE_EVT_UDSC_READ_DESCR_RESPONSE\000"
 6082      455F4556 
 6082      545F5544 
 6082      53435F52 
 6082      4541445F 
 6083              	.LASF265:
 6084 36bb 4359424C 		.ascii	"CYBLE_EVT_BASC_READ_CHAR_RESPONSE\000"
 6084      455F4556 
 6084      545F4241 
 6084      53435F52 
 6084      4541445F 
 6085              	.LASF358:
 6086 36dd 4359424C 		.ascii	"CYBLE_EVT_GLSC_NOTIFICATION\000"
 6086      455F4556 
 6086      545F474C 
 6086      53435F4E 
 6086      4F544946 
 6087              	.LASF145:
 6088 36f9 4359424C 		.ascii	"CYBLE_GATT_ERR_ANS_COMMAND_NOT_SUPPORTED\000"
ARM GAS  C:\Users\Herry\AppData\Local\Temp\ccuIEJCt.s 			page 154


 6088      455F4741 
 6088      54545F45 
 6088      52525F41 
 6088      4E535F43 
 6089              	.LASF454:
 6090 3722 4359424C 		.ascii	"CYBLE_EVT_SCPSS_SCAN_INT_WIN_CHAR_WRITE\000"
 6090      455F4556 
 6090      545F5343 
 6090      5053535F 
 6090      5343414E 
 6091              	.LASF532:
 6092 374a 6379426C 		.ascii	"cyBle_eventHandlerFlag\000"
 6092      655F6576 
 6092      656E7448 
 6092      616E646C 
 6092      6572466C 
 6093              	.LASF232:
 6094 3761 4359424C 		.ascii	"CYBLE_EVT_GATTS_INDICATION_DISABLED\000"
 6094      455F4556 
 6094      545F4741 
 6094      5454535F 
 6094      494E4449 
 6095              	.LASF207:
 6096 3785 4359424C 		.ascii	"CYBLE_HIDS_REPORT_MAP_ERRD\000"
 6096      455F4849 
 6096      44535F52 
 6096      45504F52 
 6096      545F4D41 
 6097              	.LASF88:
 6098 37a0 4359424C 		.ascii	"CYBLE_ERROR_NO_CONNECTION\000"
 6098      455F4552 
 6098      524F525F 
 6098      4E4F5F43 
 6098      4F4E4E45 
 6099              	.LASF319:
 6100 37ba 4359424C 		.ascii	"CYBLE_EVT_CSCSS_INDICATION_DISABLED\000"
 6100      455F4556 
 6100      545F4353 
 6100      4353535F 
 6100      494E4449 
 6101              	.LASF288:
 6102 37de 4359424C 		.ascii	"CYBLE_EVT_BMSC_READ_DESCR_RESPONSE\000"
 6102      455F4556 
 6102      545F424D 
 6102      53435F52 
 6102      4541445F 
 6103              	.LASF80:
 6104 3801 4359424C 		.ascii	"CYBLE_EVT_LE_PING_AUTH_TIMEOUT\000"
 6104      455F4556 
 6104      545F4C45 
 6104      5F50494E 
 6104      475F4155 
 6105              	.LASF114:
 6106 3820 4359424C 		.ascii	"CYBLE_API_RESULT_T\000"
 6106      455F4150 
 6106      495F5245 
 6106      53554C54 
ARM GAS  C:\Users\Herry\AppData\Local\Temp\ccuIEJCt.s 			page 155


 6106      5F5400
 6107              	.LASF200:
 6108 3833 4359424C 		.ascii	"CYBLE_HIDS_REPORT\000"
 6108      455F4849 
 6108      44535F52 
 6108      45504F52 
 6108      5400
 6109              	.LASF290:
 6110 3845 4359424C 		.ascii	"CYBLE_EVT_CGMSS_INDICATION_DISABLED\000"
 6110      455F4556 
 6110      545F4347 
 6110      4D53535F 
 6110      494E4449 
 6111              	.LASF510:
 6112 3869 4379426C 		.ascii	"CyBle_HidssSetCharacteristicValue\000"
 6112      655F4869 
 6112      64737353 
 6112      65744368 
 6112      61726163 
 6113              	.LASF244:
 6114 388b 4359424C 		.ascii	"CYBLE_EVT_GATTC_DISCOVERY_COMPLETE\000"
 6114      455F4556 
 6114      545F4741 
 6114      5454435F 
 6114      44495343 
 6115              	.LASF294:
 6116 38ae 4359424C 		.ascii	"CYBLE_EVT_CGMSS_WRITE_CHAR\000"
 6116      455F4556 
 6116      545F4347 
 6116      4D53535F 
 6116      57524954 
 6117              	.LASF362:
 6118 38c9 4359424C 		.ascii	"CYBLE_EVT_GLSC_WRITE_DESCR_RESPONSE\000"
 6118      455F4556 
 6118      545F474C 
 6118      53435F57 
 6118      52495445 
 6119              	.LASF62:
 6120 38ed 4359424C 		.ascii	"CYBLE_EVT_GATTC_HANDLE_VALUE_IND\000"
 6120      455F4556 
 6120      545F4741 
 6120      5454435F 
 6120      48414E44 
 6121              	.LASF315:
 6122 390e 4359424C 		.ascii	"CYBLE_EVT_CPSC_SCAN_PROGRESS_RESULT\000"
 6122      455F4556 
 6122      545F4350 
 6122      53435F53 
 6122      43414E5F 
 6123              	.LASF448:
 6124 3932 4359424C 		.ascii	"CYBLE_EVT_RSCSC_READ_DESCR_RESPONSE\000"
 6124      455F4556 
 6124      545F5253 
 6124      4353435F 
 6124      52454144 
 6125              	.LASF517:
 6126 3956 6576656E 		.ascii	"eventCode\000"
ARM GAS  C:\Users\Herry\AppData\Local\Temp\ccuIEJCt.s 			page 156


 6126      74436F64 
 6126      6500
 6127              	.LASF94:
 6128 3960 4359424C 		.ascii	"CYBLE_ERROR_SEC_FAILED\000"
 6128      455F4552 
 6128      524F525F 
 6128      5345435F 
 6128      4641494C 
 6129              	.LASF193:
 6130 3977 4359424C 		.ascii	"CYBLE_HIDS_PROTOCOL_MODE\000"
 6130      455F4849 
 6130      44535F50 
 6130      524F544F 
 6130      434F4C5F 
 6131              	.LASF21:
 6132 3990 4359424C 		.ascii	"CYBLE_EVT_STACK_BUSY_STATUS\000"
 6132      455F4556 
 6132      545F5354 
 6132      41434B5F 
 6132      42555359 
 6133              	.LASF539:
 6134 39ac 2E5C4765 		.ascii	".\\Generated_Source\\PSoC4\\BLE_hids.c\000"
 6134      6E657261 
 6134      7465645F 
 6134      536F7572 
 6134      63655C50 
 6135              	.LASF412:
 6136 39d0 4359424C 		.ascii	"CYBLE_EVT_IPSC_ERROR_RESPONSE\000"
 6136      455F4556 
 6136      545F4950 
 6136      53435F45 
 6136      52524F52 
 6137              	.LASF402:
 6138 39ee 4359424C 		.ascii	"CYBLE_EVT_HTSC_WRITE_DESCR_RESPONSE\000"
 6138      455F4556 
 6138      545F4854 
 6138      53435F57 
 6138      52495445 
 6139              	.LASF35:
 6140 3a12 4359424C 		.ascii	"CYBLE_EVT_GAP_KEYINFO_EXCHNGE_CMPLT\000"
 6140      455F4556 
 6140      545F4741 
 6140      505F4B45 
 6140      59494E46 
 6141              	.LASF489:
 6142 3a36 4359424C 		.ascii	"CYBLE_EVT_WPTSC_WRITE_DESCR_RESPONSE\000"
 6142      455F4556 
 6142      545F5750 
 6142      5453435F 
 6142      57524954 
 6143              	.LASF68:
 6144 3a5b 4359424C 		.ascii	"CYBLE_EVT_L2CAP_CONN_PARAM_UPDATE_REQ\000"
 6144      455F4556 
 6144      545F4C32 
 6144      4341505F 
 6144      434F4E4E 
 6145              	.LASF293:
ARM GAS  C:\Users\Herry\AppData\Local\Temp\ccuIEJCt.s 			page 157


 6146 3a81 4359424C 		.ascii	"CYBLE_EVT_CGMSS_NOTIFICATION_DISABLED\000"
 6146      455F4556 
 6146      545F4347 
 6146      4D53535F 
 6146      4E4F5449 
 6147              	.LASF202:
 6148 3aa7 4359424C 		.ascii	"CYBLE_HIDS_REPORT_END\000"
 6148      455F4849 
 6148      44535F52 
 6148      45504F52 
 6148      545F454E 
 6149              	.LASF331:
 6150 3abd 4359424C 		.ascii	"CYBLE_EVT_CTSC_NOTIFICATION\000"
 6150      455F4556 
 6150      545F4354 
 6150      53435F4E 
 6150      4F544946 
 6151              	.LASF519:
 6152 3ad9 67617474 		.ascii	"gattErr\000"
 6152      45727200 
 6153              	.LASF235:
 6154 3ae1 4359424C 		.ascii	"CYBLE_EVT_GATTC_INCL_DISCOVERY_FAILED\000"
 6154      455F4556 
 6154      545F4741 
 6154      5454435F 
 6154      494E434C 
 6155              	.LASF118:
 6156 3b07 4359424C 		.ascii	"CYBLE_GATT_ERR_WRITE_NOT_PERMITTED\000"
 6156      455F4741 
 6156      54545F45 
 6156      52525F57 
 6156      52495445 
 6157              	.LASF3:
 6158 3b2a 73686F72 		.ascii	"short unsigned int\000"
 6158      7420756E 
 6158      7369676E 
 6158      65642069 
 6158      6E7400
 6159              	.LASF130:
 6160 3b3d 4359424C 		.ascii	"CYBLE_GATT_ERR_INSUFFICIENT_ENCRYPTION\000"
 6160      455F4741 
 6160      54545F45 
 6160      52525F49 
 6160      4E535546 
 6161              	.LASF219:
 6162 3b64 7265706F 		.ascii	"reportMapHandle\000"
 6162      72744D61 
 6162      7048616E 
 6162      646C6500 
 6163              	.LASF427:
 6164 3b74 4359424C 		.ascii	"CYBLE_EVT_LNSC_READ_DESCR_RESPONSE\000"
 6164      455F4556 
 6164      545F4C4E 
 6164      53435F52 
 6164      4541445F 
 6165              	.LASF500:
 6166 3b97 4359424C 		.ascii	"CYBLE_STATE_CONNECTED\000"
ARM GAS  C:\Users\Herry\AppData\Local\Temp\ccuIEJCt.s 			page 158


 6166      455F5354 
 6166      4154455F 
 6166      434F4E4E 
 6166      45435445 
 6167              	.LASF158:
 6168 3bad 61637475 		.ascii	"actualLen\000"
 6168      616C4C65 
 6168      6E00
 6169              	.LASF211:
 6170 3bb7 63636364 		.ascii	"cccdHandle\000"
 6170      48616E64 
 6170      6C6500
 6171              	.LASF247:
 6172 3bc2 4359424C 		.ascii	"CYBLE_EVT_ANCSS_WRITE_CHAR\000"
 6172      455F4556 
 6172      545F414E 
 6172      4353535F 
 6172      57524954 
 6173              	.LASF357:
 6174 3bdd 4359424C 		.ascii	"CYBLE_EVT_GLSC_INDICATION\000"
 6174      455F4556 
 6174      545F474C 
 6174      53435F49 
 6174      4E444943 
 6175              	.LASF307:
 6176 3bf7 4359424C 		.ascii	"CYBLE_EVT_CPSS_BROADCAST_DISABLED\000"
 6176      455F4556 
 6176      545F4350 
 6176      53535F42 
 6176      524F4144 
 6177              	.LASF156:
 6178 3c19 61747449 		.ascii	"attId\000"
 6178      6400
 6179              	.LASF84:
 6180 3c1f 4359424C 		.ascii	"CYBLE_ERROR_INVALID_OPERATION\000"
 6180      455F4552 
 6180      524F525F 
 6180      494E5641 
 6180      4C49445F 
 6181              	.LASF20:
 6182 3c3d 4359424C 		.ascii	"CYBLE_EVT_HCI_STATUS\000"
 6182      455F4556 
 6182      545F4843 
 6182      495F5354 
 6182      41545553 
 6183              	.LASF45:
 6184 3c52 4359424C 		.ascii	"CYBLE_EVT_GATT_DISCONNECT_IND\000"
 6184      455F4556 
 6184      545F4741 
 6184      54545F44 
 6184      4953434F 
 6185              	.LASF230:
 6186 3c70 4359424C 		.ascii	"CYBLE_KEY_EXCHANGE_INFO_REQUEST_REPLY\000"
 6186      455F4B45 
 6186      595F4558 
 6186      4348414E 
 6186      47455F49 
ARM GAS  C:\Users\Herry\AppData\Local\Temp\ccuIEJCt.s 			page 159


 6187              	.LASF78:
 6188 3c96 4359424C 		.ascii	"CYBLE_EVT_L2CAP_CBFC_DATA_WRITE_IND\000"
 6188      455F4556 
 6188      545F4C32 
 6188      4341505F 
 6188      43424643 
 6189              	.LASF228:
 6190 3cba 4359424C 		.ascii	"CYBLE_PASSKEY_ENTRY_REQUEST_REPLY\000"
 6190      455F5041 
 6190      53534B45 
 6190      595F454E 
 6190      5452595F 
 6191              	.LASF274:
 6192 3cdc 4359424C 		.ascii	"CYBLE_EVT_BCSC_WRITE_DESCR_RESPONSE\000"
 6192      455F4556 
 6192      545F4243 
 6192      53435F57 
 6192      52495445 
 6193              	.LASF494:
 6194 3d00 4359424C 		.ascii	"CYBLE_EVT_WSSC_READ_CHAR_RESPONSE\000"
 6194      455F4556 
 6194      545F5753 
 6194      53435F52 
 6194      4541445F 
 6195              	.LASF203:
 6196 3d22 4359424C 		.ascii	"CYBLE_HIDS_CHAR_COUNT\000"
 6196      455F4849 
 6196      44535F43 
 6196      4841525F 
 6196      434F554E 
 6197              	.LASF67:
 6198 3d38 4359424C 		.ascii	"CYBLE_EVT_GATTC_LONG_PROCEDURE_END\000"
 6198      455F4556 
 6198      545F4741 
 6198      5454435F 
 6198      4C4F4E47 
 6199              	.LASF257:
 6200 3d5b 4359424C 		.ascii	"CYBLE_EVT_ANSC_NOTIFICATION\000"
 6200      455F4556 
 6200      545F414E 
 6200      53435F4E 
 6200      4F544946 
 6201              	.LASF31:
 6202 3d77 4359424C 		.ascii	"CYBLE_EVT_GAP_DEVICE_DISCONNECTED\000"
 6202      455F4556 
 6202      545F4741 
 6202      505F4445 
 6202      56494345 
 6203              	.LASF365:
 6204 3d99 4359424C 		.ascii	"CYBLE_EVT_HIDSS_BOOT_MODE_ENTER\000"
 6204      455F4556 
 6204      545F4849 
 6204      4453535F 
 6204      424F4F54 
 6205              	.LASF63:
 6206 3db9 4359424C 		.ascii	"CYBLE_EVT_GATTS_HANDLE_VALUE_CNF\000"
 6206      455F4556 
ARM GAS  C:\Users\Herry\AppData\Local\Temp\ccuIEJCt.s 			page 160


 6206      545F4741 
 6206      5454535F 
 6206      48414E44 
 6207              	.LASF408:
 6208 3dda 4359424C 		.ascii	"CYBLE_EVT_IPSC_READ_MULTIPLE_CHAR_RESPONSE\000"
 6208      455F4556 
 6208      545F4950 
 6208      53435F52 
 6208      4541445F 
 6209              	.LASF326:
 6210 3e05 4359424C 		.ascii	"CYBLE_EVT_CSCSC_READ_DESCR_RESPONSE\000"
 6210      455F4556 
 6210      545F4353 
 6210      4353435F 
 6210      52454144 
 6211              	.LASF10:
 6212 3e29 75696E74 		.ascii	"uint16\000"
 6212      313600
 6213              	.LASF250:
 6214 3e30 4359424C 		.ascii	"CYBLE_EVT_ANCSC_WRITE_CHAR_RESPONSE\000"
 6214      455F4556 
 6214      545F414E 
 6214      4353435F 
 6214      57524954 
 6215              	.LASF92:
 6216 3e54 4359424C 		.ascii	"CYBLE_ERROR_TX_POWER_READ\000"
 6216      455F4552 
 6216      524F525F 
 6216      54585F50 
 6216      4F574552 
 6217              	.LASF438:
 6218 3e6e 4359424C 		.ascii	"CYBLE_EVT_RSCSS_NOTIFICATION_ENABLED\000"
 6218      455F4556 
 6218      545F5253 
 6218      4353535F 
 6218      4E4F5449 
 6219              	.LASF255:
 6220 3e93 4359424C 		.ascii	"CYBLE_EVT_ANSS_NOTIFICATION_DISABLED\000"
 6220      455F4556 
 6220      545F414E 
 6220      53535F4E 
 6220      4F544946 
 6221              	.LASF398:
 6222 3eb8 4359424C 		.ascii	"CYBLE_EVT_HTSC_INDICATION\000"
 6222      455F4556 
 6222      545F4854 
 6222      53435F49 
 6222      4E444943 
 6223              	.LASF363:
 6224 3ed2 4359424C 		.ascii	"CYBLE_EVT_HIDSS_NOTIFICATION_ENABLED\000"
 6224      455F4556 
 6224      545F4849 
 6224      4453535F 
 6224      4E4F5449 
 6225              	.LASF395:
 6226 3ef7 4359424C 		.ascii	"CYBLE_EVT_HTSS_INDICATION_CONFIRMED\000"
 6226      455F4556 
ARM GAS  C:\Users\Herry\AppData\Local\Temp\ccuIEJCt.s 			page 161


 6226      545F4854 
 6226      53535F49 
 6226      4E444943 
 6227              	.LASF209:
 6228 3f1b 4359424C 		.ascii	"CYBLE_HIDS_DESCR_T\000"
 6228      455F4849 
 6228      44535F44 
 6228      45534352 
 6228      5F5400
 6229              	.LASF482:
 6230 3f2e 4359424C 		.ascii	"CYBLE_EVT_WPTSS_INDICATION_CONFIRMED\000"
 6230      455F4556 
 6230      545F5750 
 6230      5453535F 
 6230      494E4449 
 6231              	.LASF385:
 6232 3f53 4359424C 		.ascii	"CYBLE_EVT_HRSS_NOTIFICATION_DISABLED\000"
 6232      455F4556 
 6232      545F4852 
 6232      53535F4E 
 6232      4F544946 
 6233              		.ident	"GCC: (GNU Tools for ARM Embedded Processors) 4.9.3 20150303 (release) [ARM/embedded-4_9-br
