ARM GAS  C:\Users\Herry\AppData\Local\Temp\ccw8GxhK.s 			page 1


   1              		.cpu cortex-m0
   2              		.fpu softvfp
   3              		.eabi_attribute 20, 1
   4              		.eabi_attribute 21, 1
   5              		.eabi_attribute 23, 3
   6              		.eabi_attribute 24, 1
   7              		.eabi_attribute 25, 1
   8              		.eabi_attribute 26, 1
   9              		.eabi_attribute 30, 6
  10              		.eabi_attribute 34, 0
  11              		.eabi_attribute 18, 4
  12              		.code	16
  13              		.file	"hids.c"
  14              		.text
  15              	.Ltext0:
  16              		.cfi_sections	.debug_frame
  17              		.comm	mouseSimulation,2,2
  18              		.global	protocol
  19              		.data
  20              		.type	protocol, %object
  21              		.size	protocol, 1
  22              	protocol:
  23 0000 01       		.byte	1
  24              		.global	suspend
  25              		.type	suspend, %object
  26              		.size	suspend, 1
  27              	suspend:
  28 0001 01       		.byte	1
  29              		.section	.rodata
  30              		.align	2
  31              	.LC0:
  32 0000 48494453 		.ascii	"HIDS event: %lx, \000"
  32      20657665 
  32      6E743A20 
  32      256C782C 
  32      2000
  33 0012 0000     		.align	2
  34              	.LC3:
  35 0014 4359424C 		.ascii	"CYBLE_EVT_HIDSS_NOTIFICATION_ENABLED: serv=%x, char"
  35      455F4556 
  35      545F4849 
  35      4453535F 
  35      4E4F5449 
  36 0047 3D25780D 		.ascii	"=%x\015\012\000"
  36      0A00
  37 004d 000000   		.align	2
  38              	.LC6:
  39 0050 4359424C 		.ascii	"CYBLE_EVT_HIDSS_NOTIFICATION_DISABLED: serv=%x, cha"
  39      455F4556 
  39      545F4849 
  39      4453535F 
  39      4E4F5449 
  40 0083 723D2578 		.ascii	"r=%x\015\012\000"
  40      0D0A00
  41 008a 0000     		.align	2
  42              	.LC8:
  43 008c 4359424C 		.ascii	"CYBLE_EVT_HIDSS_BOOT_MODE_ENTER \015\000"
ARM GAS  C:\Users\Herry\AppData\Local\Temp\ccw8GxhK.s 			page 2


  43      455F4556 
  43      545F4849 
  43      4453535F 
  43      424F4F54 
  44 00ae 0000     		.align	2
  45              	.LC11:
  46 00b0 4359424C 		.ascii	"CYBLE_EVT_HIDSS_REPORT_MODE_ENTER \015\000"
  46      455F4556 
  46      545F4849 
  46      4453535F 
  46      5245504F 
  47              		.align	2
  48              	.LC13:
  49 00d4 4359424C 		.ascii	"CYBLE_EVT_HIDSS_SUSPEND \015\000"
  49      455F4556 
  49      545F4849 
  49      4453535F 
  49      53555350 
  50 00ee 0000     		.align	2
  51              	.LC16:
  52 00f0 4359424C 		.ascii	"CYBLE_EVT_HIDSS_EXIT_SUSPEND \015\000"
  52      455F4556 
  52      545F4849 
  52      4453535F 
  52      45584954 
  53 010f 00       		.align	2
  54              	.LC18:
  55 0110 4359424C 		.ascii	"CYBLE_EVT_HIDSS_REPORT_CHAR_WRITE: serv=%x, char=%x"
  55      455F4556 
  55      545F4849 
  55      4453535F 
  55      5245504F 
  56 0143 2C207661 		.ascii	", value=\000"
  56      6C75653D 
  56      00
  57              		.align	2
  58              	.LC20:
  59 014c 4E6F7420 		.ascii	"Not supported event\015\000"
  59      73757070 
  59      6F727465 
  59      64206576 
  59      656E740D 
  60              		.section	.text.HidsCallBack,"ax",%progbits
  61              		.align	2
  62              		.global	HidsCallBack
  63              		.code	16
  64              		.thumb_func
  65              		.type	HidsCallBack, %function
  66              	HidsCallBack:
  67              	.LFB37:
  68              		.file 1 ".\\hids.c"
   1:.\hids.c      **** /*******************************************************************************
   2:.\hids.c      **** * File Name: hids.c
   3:.\hids.c      **** *
   4:.\hids.c      **** * Version: 1.0
   5:.\hids.c      **** *
   6:.\hids.c      **** * Description:
ARM GAS  C:\Users\Herry\AppData\Local\Temp\ccw8GxhK.s 			page 3


   7:.\hids.c      **** *  This file contains HIDS callback handler function.
   8:.\hids.c      **** *
   9:.\hids.c      **** * Hardware Dependency:
  10:.\hids.c      **** *  CY8CKIT-042 BLE
  11:.\hids.c      **** * 
  12:.\hids.c      **** ********************************************************************************
  13:.\hids.c      **** * Copyright 2015, Cypress Semiconductor Corporation.  All rights reserved.
  14:.\hids.c      **** * You may use this file only in accordance with the license, terms, conditions,
  15:.\hids.c      **** * disclaimers, and limitations in the end user license agreement accompanying
  16:.\hids.c      **** * the software package with which this file was provided.
  17:.\hids.c      **** *******************************************************************************/
  18:.\hids.c      **** 
  19:.\hids.c      **** #include "common.h"
  20:.\hids.c      **** #include "hids.h"
  21:.\hids.c      **** 
  22:.\hids.c      **** uint16 mouseSimulation;
  23:.\hids.c      **** 
  24:.\hids.c      **** uint8 protocol = CYBLE_HIDS_PROTOCOL_MODE_REPORT;   /* Boot or Report protocol mode */
  25:.\hids.c      **** uint8 suspend = CYBLE_HIDS_CP_EXIT_SUSPEND;         /* Suspend to enter into deep sleep mode */
  26:.\hids.c      **** 
  27:.\hids.c      **** /*******************************************************************************
  28:.\hids.c      **** * Function Name: HidsCallBack()
  29:.\hids.c      **** ********************************************************************************
  30:.\hids.c      **** *
  31:.\hids.c      **** * Summary:
  32:.\hids.c      **** *   This is an event callback function to receive service specific events from 
  33:.\hids.c      **** *   HID Service.
  34:.\hids.c      **** *
  35:.\hids.c      **** * Parameters:
  36:.\hids.c      **** *  event - the event code
  37:.\hids.c      **** *  *eventParam - the event parameters
  38:.\hids.c      **** *
  39:.\hids.c      **** * Return:
  40:.\hids.c      **** *  None.
  41:.\hids.c      **** *
  42:.\hids.c      **** ********************************************************************************/
  43:.\hids.c      **** void HidsCallBack(uint32 event, void *eventParam)
  44:.\hids.c      **** {
  69              		.loc 1 44 0
  70              		.cfi_startproc
  71 0000 80B5     		push	{r7, lr}
  72              		.cfi_def_cfa_offset 8
  73              		.cfi_offset 7, -8
  74              		.cfi_offset 14, -4
  75 0002 84B0     		sub	sp, sp, #16
  76              		.cfi_def_cfa_offset 24
  77 0004 00AF     		add	r7, sp, #0
  78              		.cfi_def_cfa_register 7
  79 0006 7860     		str	r0, [r7, #4]
  80 0008 3960     		str	r1, [r7]
  45:.\hids.c      ****     CYBLE_HIDS_CHAR_VALUE_T *locEventParam = (CYBLE_HIDS_CHAR_VALUE_T *)eventParam;
  81              		.loc 1 45 0
  82 000a 3B68     		ldr	r3, [r7]
  83 000c FB60     		str	r3, [r7, #12]
  46:.\hids.c      **** 
  47:.\hids.c      ****     DBG_PRINTF("HIDS event: %lx, ", event);
  84              		.loc 1 47 0
ARM GAS  C:\Users\Herry\AppData\Local\Temp\ccw8GxhK.s 			page 4


  85 000e 3A4A     		ldr	r2, .L20
  86 0010 7B68     		ldr	r3, [r7, #4]
  87 0012 101C     		mov	r0, r2
  88 0014 191C     		mov	r1, r3
  89 0016 FFF7FEFF 		bl	printf
  48:.\hids.c      **** 
  49:.\hids.c      ****     switch(event)
  90              		.loc 1 49 0
  91 001a 7B68     		ldr	r3, [r7, #4]
  92 001c 893B     		sub	r3, r3, #137
  93 001e FF3B     		sub	r3, r3, #255
  94 0020 0B2B     		cmp	r3, #11
  95 0022 5ED8     		bhi	.L2
  96 0024 9A00     		lsl	r2, r3, #2
  97 0026 354B     		ldr	r3, .L20+4
  98 0028 D318     		add	r3, r2, r3
  99 002a 1B68     		ldr	r3, [r3]
 100 002c 9F46     		mov	pc, r3
 101              		.section	.rodata
 102 0161 000000   		.align	2
 103              	.L4:
 104 0164 2E000000 		.word	.L3
 105 0168 54000000 		.word	.L5
 106 016c 7A000000 		.word	.L6
 107 0170 8A000000 		.word	.L7
 108 0174 9A000000 		.word	.L8
 109 0178 AE000000 		.word	.L9
 110 017c C2000000 		.word	.L10
 111 0180 EE000000 		.word	.L19
 112 0184 EE000000 		.word	.L19
 113 0188 EE000000 		.word	.L19
 114 018c EE000000 		.word	.L19
 115 0190 EE000000 		.word	.L19
 116              		.section	.text.HidsCallBack
 117              	.L3:
  50:.\hids.c      ****     {
  51:.\hids.c      ****         case CYBLE_EVT_HIDSS_NOTIFICATION_ENABLED:
  52:.\hids.c      ****             DBG_PRINTF("CYBLE_EVT_HIDSS_NOTIFICATION_ENABLED: serv=%x, char=%x\r\n", 
 118              		.loc 1 52 0
 119 002e FB68     		ldr	r3, [r7, #12]
 120 0030 9B78     		ldrb	r3, [r3, #2]
 121 0032 191C     		mov	r1, r3
 122 0034 FB68     		ldr	r3, [r7, #12]
 123 0036 DB78     		ldrb	r3, [r3, #3]
 124 0038 1A1C     		mov	r2, r3
 125 003a 314B     		ldr	r3, .L20+8
 126 003c 181C     		mov	r0, r3
 127 003e FFF7FEFF 		bl	printf
  53:.\hids.c      ****                 locEventParam->serviceIndex,
  54:.\hids.c      ****                 locEventParam->charIndex);
  55:.\hids.c      ****             if(CYBLE_HUMAN_INTERFACE_DEVICE_SERVICE_INDEX == locEventParam->serviceIndex)
 128              		.loc 1 55 0
 129 0042 FB68     		ldr	r3, [r7, #12]
 130 0044 9B78     		ldrb	r3, [r3, #2]
 131 0046 002B     		cmp	r3, #0
 132 0048 03D1     		bne	.L16
  56:.\hids.c      ****             {
ARM GAS  C:\Users\Herry\AppData\Local\Temp\ccw8GxhK.s 			page 5


  57:.\hids.c      ****                 mouseSimulation = ENABLED;
 133              		.loc 1 57 0
 134 004a 2E4B     		ldr	r3, .L20+12
 135 004c 0122     		mov	r2, #1
 136 004e 1A80     		strh	r2, [r3]
  58:.\hids.c      ****             }
  59:.\hids.c      ****             break;
 137              		.loc 1 59 0
 138 0050 4EE0     		b	.L1
 139              	.L16:
 140 0052 4DE0     		b	.L1
 141              	.L5:
  60:.\hids.c      ****         case CYBLE_EVT_HIDSS_NOTIFICATION_DISABLED:
  61:.\hids.c      ****             DBG_PRINTF("CYBLE_EVT_HIDSS_NOTIFICATION_DISABLED: serv=%x, char=%x\r\n", 
 142              		.loc 1 61 0
 143 0054 FB68     		ldr	r3, [r7, #12]
 144 0056 9B78     		ldrb	r3, [r3, #2]
 145 0058 191C     		mov	r1, r3
 146 005a FB68     		ldr	r3, [r7, #12]
 147 005c DB78     		ldrb	r3, [r3, #3]
 148 005e 1A1C     		mov	r2, r3
 149 0060 294B     		ldr	r3, .L20+16
 150 0062 181C     		mov	r0, r3
 151 0064 FFF7FEFF 		bl	printf
  62:.\hids.c      ****                 locEventParam->serviceIndex,
  63:.\hids.c      ****                 locEventParam->charIndex);
  64:.\hids.c      ****             if(CYBLE_HUMAN_INTERFACE_DEVICE_SERVICE_INDEX == locEventParam->serviceIndex)
 152              		.loc 1 64 0
 153 0068 FB68     		ldr	r3, [r7, #12]
 154 006a 9B78     		ldrb	r3, [r3, #2]
 155 006c 002B     		cmp	r3, #0
 156 006e 03D1     		bne	.L18
  65:.\hids.c      ****             {
  66:.\hids.c      ****                 mouseSimulation = DISABLED;
 157              		.loc 1 66 0
 158 0070 244B     		ldr	r3, .L20+12
 159 0072 0022     		mov	r2, #0
 160 0074 1A80     		strh	r2, [r3]
  67:.\hids.c      ****             }
  68:.\hids.c      ****             break;
 161              		.loc 1 68 0
 162 0076 3BE0     		b	.L1
 163              	.L18:
 164 0078 3AE0     		b	.L1
 165              	.L6:
  69:.\hids.c      ****         case CYBLE_EVT_HIDSS_BOOT_MODE_ENTER:
  70:.\hids.c      ****             DBG_PRINTF("CYBLE_EVT_HIDSS_BOOT_MODE_ENTER \r\n");
 166              		.loc 1 70 0
 167 007a 244B     		ldr	r3, .L20+20
 168 007c 181C     		mov	r0, r3
 169 007e FFF7FEFF 		bl	puts
  71:.\hids.c      ****             protocol = CYBLE_HIDS_PROTOCOL_MODE_BOOT;
 170              		.loc 1 71 0
 171 0082 234B     		ldr	r3, .L20+24
 172 0084 0022     		mov	r2, #0
 173 0086 1A70     		strb	r2, [r3]
  72:.\hids.c      ****             break;
ARM GAS  C:\Users\Herry\AppData\Local\Temp\ccw8GxhK.s 			page 6


 174              		.loc 1 72 0
 175 0088 32E0     		b	.L1
 176              	.L7:
  73:.\hids.c      ****         case CYBLE_EVT_HIDSS_REPORT_MODE_ENTER:
  74:.\hids.c      ****             DBG_PRINTF("CYBLE_EVT_HIDSS_REPORT_MODE_ENTER \r\n");
 177              		.loc 1 74 0
 178 008a 224B     		ldr	r3, .L20+28
 179 008c 181C     		mov	r0, r3
 180 008e FFF7FEFF 		bl	puts
  75:.\hids.c      ****             protocol = CYBLE_HIDS_PROTOCOL_MODE_REPORT;
 181              		.loc 1 75 0
 182 0092 1F4B     		ldr	r3, .L20+24
 183 0094 0122     		mov	r2, #1
 184 0096 1A70     		strb	r2, [r3]
  76:.\hids.c      ****             break;
 185              		.loc 1 76 0
 186 0098 2AE0     		b	.L1
 187              	.L8:
  77:.\hids.c      ****         case CYBLE_EVT_HIDSS_SUSPEND:
  78:.\hids.c      ****             DBG_PRINTF("CYBLE_EVT_HIDSS_SUSPEND \r\n");
 188              		.loc 1 78 0
 189 009a 1F4B     		ldr	r3, .L20+32
 190 009c 181C     		mov	r0, r3
 191 009e FFF7FEFF 		bl	puts
  79:.\hids.c      ****             suspend = CYBLE_HIDS_CP_SUSPEND;
 192              		.loc 1 79 0
 193 00a2 1E4B     		ldr	r3, .L20+36
 194 00a4 0022     		mov	r2, #0
 195 00a6 1A70     		strb	r2, [r3]
  80:.\hids.c      ****         #if (DEBUG_UART_ENABLED == ENABLED)
  81:.\hids.c      ****             /* Reduce power consumption, power down logic that is not required to wake up the syste
  82:.\hids.c      ****             UART_DEB_Stop();
 196              		.loc 1 82 0
 197 00a8 FFF7FEFF 		bl	UART_DEB_Stop
  83:.\hids.c      ****         #endif /* (DEBUG_UART_ENABLED == ENABLED) */
  84:.\hids.c      ****             break;
 198              		.loc 1 84 0
 199 00ac 20E0     		b	.L1
 200              	.L9:
  85:.\hids.c      ****         case CYBLE_EVT_HIDSS_EXIT_SUSPEND:
  86:.\hids.c      ****         #if (DEBUG_UART_ENABLED == ENABLED)
  87:.\hids.c      ****             /* Power up all circuitry previously shut down */
  88:.\hids.c      ****             UART_DEB_Start();
 201              		.loc 1 88 0
 202 00ae FFF7FEFF 		bl	UART_DEB_Start
  89:.\hids.c      ****         #endif /* (DEBUG_UART_ENABLED == ENABLED) */
  90:.\hids.c      ****             DBG_PRINTF("CYBLE_EVT_HIDSS_EXIT_SUSPEND \r\n");
 203              		.loc 1 90 0
 204 00b2 1B4B     		ldr	r3, .L20+40
 205 00b4 181C     		mov	r0, r3
 206 00b6 FFF7FEFF 		bl	puts
  91:.\hids.c      ****             suspend = CYBLE_HIDS_CP_EXIT_SUSPEND;
 207              		.loc 1 91 0
 208 00ba 184B     		ldr	r3, .L20+36
 209 00bc 0122     		mov	r2, #1
 210 00be 1A70     		strb	r2, [r3]
  92:.\hids.c      ****             break;
ARM GAS  C:\Users\Herry\AppData\Local\Temp\ccw8GxhK.s 			page 7


 211              		.loc 1 92 0
 212 00c0 16E0     		b	.L1
 213              	.L10:
  93:.\hids.c      ****         case CYBLE_EVT_HIDSS_REPORT_CHAR_WRITE:
  94:.\hids.c      ****             DBG_PRINTF("CYBLE_EVT_HIDSS_REPORT_CHAR_WRITE: serv=%x, char=%x, value=", 
 214              		.loc 1 94 0
 215 00c2 FB68     		ldr	r3, [r7, #12]
 216 00c4 9B78     		ldrb	r3, [r3, #2]
 217 00c6 191C     		mov	r1, r3
 218 00c8 FB68     		ldr	r3, [r7, #12]
 219 00ca DB78     		ldrb	r3, [r3, #3]
 220 00cc 1A1C     		mov	r2, r3
 221 00ce 154B     		ldr	r3, .L20+44
 222 00d0 181C     		mov	r0, r3
 223 00d2 FFF7FEFF 		bl	printf
  95:.\hids.c      ****                 locEventParam->serviceIndex,
  96:.\hids.c      ****                 locEventParam->charIndex);
  97:.\hids.c      ****                 ShowValue(locEventParam->value);
 224              		.loc 1 97 0
 225 00d6 FB68     		ldr	r3, [r7, #12]
 226 00d8 5B68     		ldr	r3, [r3, #4]
 227 00da 181C     		mov	r0, r3
 228 00dc FFF7FEFF 		bl	ShowValue
  98:.\hids.c      ****             break;
 229              		.loc 1 98 0
 230 00e0 06E0     		b	.L1
 231              	.L2:
  99:.\hids.c      ****         case CYBLE_EVT_HIDSC_NOTIFICATION:
 100:.\hids.c      ****             break;
 101:.\hids.c      ****         case CYBLE_EVT_HIDSC_READ_CHAR_RESPONSE:
 102:.\hids.c      ****             break;
 103:.\hids.c      ****         case CYBLE_EVT_HIDSC_WRITE_CHAR_RESPONSE:
 104:.\hids.c      ****             break;
 105:.\hids.c      ****         case CYBLE_EVT_HIDSC_READ_DESCR_RESPONSE:
 106:.\hids.c      ****             break;
 107:.\hids.c      ****         case CYBLE_EVT_HIDSC_WRITE_DESCR_RESPONSE:           
 108:.\hids.c      ****             break;
 109:.\hids.c      **** 		default:
 110:.\hids.c      ****             DBG_PRINTF("Not supported event\r\n");
 232              		.loc 1 110 0
 233 00e2 114B     		ldr	r3, .L20+48
 234 00e4 181C     		mov	r0, r3
 235 00e6 FFF7FEFF 		bl	puts
 111:.\hids.c      **** 			break;
 236              		.loc 1 111 0
 237 00ea C046     		mov	r8, r8
 238 00ec 00E0     		b	.L1
 239              	.L19:
 108:.\hids.c      **** 		default:
 240              		.loc 1 108 0
 241 00ee C046     		mov	r8, r8
 242              	.L1:
 112:.\hids.c      ****     }
 113:.\hids.c      **** }
 243              		.loc 1 113 0
 244 00f0 BD46     		mov	sp, r7
 245 00f2 04B0     		add	sp, sp, #16
ARM GAS  C:\Users\Herry\AppData\Local\Temp\ccw8GxhK.s 			page 8


 246              		@ sp needed
 247 00f4 80BD     		pop	{r7, pc}
 248              	.L21:
 249 00f6 C046     		.align	2
 250              	.L20:
 251 00f8 00000000 		.word	.LC0
 252 00fc 64010000 		.word	.L4
 253 0100 14000000 		.word	.LC3
 254 0104 00000000 		.word	mouseSimulation
 255 0108 50000000 		.word	.LC6
 256 010c 8C000000 		.word	.LC8
 257 0110 00000000 		.word	protocol
 258 0114 B0000000 		.word	.LC11
 259 0118 D4000000 		.word	.LC13
 260 011c 00000000 		.word	suspend
 261 0120 F0000000 		.word	.LC16
 262 0124 10010000 		.word	.LC18
 263 0128 4C010000 		.word	.LC20
 264              		.cfi_endproc
 265              	.LFE37:
 266              		.size	HidsCallBack, .-HidsCallBack
 267              		.section	.text.HidsInit,"ax",%progbits
 268              		.align	2
 269              		.global	HidsInit
 270              		.code	16
 271              		.thumb_func
 272              		.type	HidsInit, %function
 273              	HidsInit:
 274              	.LFB38:
 114:.\hids.c      **** 
 115:.\hids.c      **** 
 116:.\hids.c      **** /*******************************************************************************
 117:.\hids.c      **** * Function Name: HidsInit()
 118:.\hids.c      **** ********************************************************************************
 119:.\hids.c      **** *
 120:.\hids.c      **** * Summary:
 121:.\hids.c      **** *   Initializes the HID service.
 122:.\hids.c      **** *
 123:.\hids.c      **** *******************************************************************************/
 124:.\hids.c      **** void HidsInit(void)
 125:.\hids.c      **** {
 275              		.loc 1 125 0
 276              		.cfi_startproc
 277 0000 90B5     		push	{r4, r7, lr}
 278              		.cfi_def_cfa_offset 12
 279              		.cfi_offset 4, -12
 280              		.cfi_offset 7, -8
 281              		.cfi_offset 14, -4
 282 0002 85B0     		sub	sp, sp, #20
 283              		.cfi_def_cfa_offset 32
 284 0004 02AF     		add	r7, sp, #8
 285              		.cfi_def_cfa 7, 24
 126:.\hids.c      ****     CYBLE_API_RESULT_T apiResult;
 127:.\hids.c      ****     uint16 cccdValue;
 128:.\hids.c      ****     
 129:.\hids.c      ****     /* Register service specific callback function */
 130:.\hids.c      ****     CyBle_HidsRegisterAttrCallback(HidsCallBack);
ARM GAS  C:\Users\Herry\AppData\Local\Temp\ccw8GxhK.s 			page 9


 286              		.loc 1 130 0
 287 0006 1F4B     		ldr	r3, .L25
 288 0008 181C     		mov	r0, r3
 289 000a FFF7FEFF 		bl	CyBle_HidsRegisterAttrCallback
 131:.\hids.c      ****     /* Read CCCD configurations from flash */
 132:.\hids.c      ****     mouseSimulation = DISABLED;
 290              		.loc 1 132 0
 291 000e 1E4B     		ldr	r3, .L25+4
 292 0010 0022     		mov	r2, #0
 293 0012 1A80     		strh	r2, [r3]
 133:.\hids.c      ****     apiResult = CyBle_HidssGetCharacteristicDescriptor(CYBLE_HUMAN_INTERFACE_DEVICE_SERVICE_INDEX, 
 294              		.loc 1 133 0
 295 0014 BC1D     		add	r4, r7, #6
 296 0016 3B1D     		add	r3, r7, #4
 297 0018 0093     		str	r3, [sp]
 298 001a 0020     		mov	r0, #0
 299 001c 0721     		mov	r1, #7
 300 001e 0022     		mov	r2, #0
 301 0020 0223     		mov	r3, #2
 302 0022 FFF7FEFF 		bl	CyBle_HidssGetCharacteristicDescriptor
 303 0026 031C     		mov	r3, r0
 304 0028 2380     		strh	r3, [r4]
 134:.\hids.c      ****         CYBLE_HUMAN_INTERFACE_DEVICE_REPORT_IN, CYBLE_HIDS_REPORT_CCCD, CYBLE_CCCD_LEN, (uint8 *)&c
 135:.\hids.c      ****     if((apiResult == CYBLE_ERROR_OK) && (cccdValue != 0u))
 305              		.loc 1 135 0
 306 002a BB1D     		add	r3, r7, #6
 307 002c 1B88     		ldrh	r3, [r3]
 308 002e 002B     		cmp	r3, #0
 309 0030 0AD1     		bne	.L23
 310              		.loc 1 135 0 is_stmt 0 discriminator 1
 311 0032 3B1D     		add	r3, r7, #4
 312 0034 1B88     		ldrh	r3, [r3]
 313 0036 002B     		cmp	r3, #0
 314 0038 06D0     		beq	.L23
 136:.\hids.c      ****     {
 137:.\hids.c      ****         mouseSimulation |= ENABLED;
 315              		.loc 1 137 0 is_stmt 1
 316 003a 134B     		ldr	r3, .L25+4
 317 003c 1B88     		ldrh	r3, [r3]
 318 003e 0122     		mov	r2, #1
 319 0040 1343     		orr	r3, r2
 320 0042 9AB2     		uxth	r2, r3
 321 0044 104B     		ldr	r3, .L25+4
 322 0046 1A80     		strh	r2, [r3]
 323              	.L23:
 138:.\hids.c      ****     }
 139:.\hids.c      ****     apiResult = CyBle_HidssGetCharacteristicDescriptor(CYBLE_HUMAN_INTERFACE_DEVICE_SERVICE_INDEX, 
 324              		.loc 1 139 0
 325 0048 BC1D     		add	r4, r7, #6
 326 004a 3B1D     		add	r3, r7, #4
 327 004c 0093     		str	r3, [sp]
 328 004e 0020     		mov	r0, #0
 329 0050 0621     		mov	r1, #6
 330 0052 0022     		mov	r2, #0
 331 0054 0223     		mov	r3, #2
 332 0056 FFF7FEFF 		bl	CyBle_HidssGetCharacteristicDescriptor
 333 005a 031C     		mov	r3, r0
ARM GAS  C:\Users\Herry\AppData\Local\Temp\ccw8GxhK.s 			page 10


 334 005c 2380     		strh	r3, [r4]
 140:.\hids.c      ****         CYBLE_HIDS_BOOT_MOUSE_IN_REP, CYBLE_HIDS_REPORT_CCCD, CYBLE_CCCD_LEN, (uint8 *)&cccdValue);
 141:.\hids.c      ****     if((apiResult == CYBLE_ERROR_OK) && (cccdValue != 0u))
 335              		.loc 1 141 0
 336 005e BB1D     		add	r3, r7, #6
 337 0060 1B88     		ldrh	r3, [r3]
 338 0062 002B     		cmp	r3, #0
 339 0064 0AD1     		bne	.L22
 340              		.loc 1 141 0 is_stmt 0 discriminator 1
 341 0066 3B1D     		add	r3, r7, #4
 342 0068 1B88     		ldrh	r3, [r3]
 343 006a 002B     		cmp	r3, #0
 344 006c 06D0     		beq	.L22
 142:.\hids.c      ****     {
 143:.\hids.c      ****         mouseSimulation |= ENABLED;
 345              		.loc 1 143 0 is_stmt 1
 346 006e 064B     		ldr	r3, .L25+4
 347 0070 1B88     		ldrh	r3, [r3]
 348 0072 0122     		mov	r2, #1
 349 0074 1343     		orr	r3, r2
 350 0076 9AB2     		uxth	r2, r3
 351 0078 034B     		ldr	r3, .L25+4
 352 007a 1A80     		strh	r2, [r3]
 353              	.L22:
 144:.\hids.c      ****     }
 145:.\hids.c      **** }
 354              		.loc 1 145 0
 355 007c BD46     		mov	sp, r7
 356 007e 03B0     		add	sp, sp, #12
 357              		@ sp needed
 358 0080 90BD     		pop	{r4, r7, pc}
 359              	.L26:
 360 0082 C046     		.align	2
 361              	.L25:
 362 0084 00000000 		.word	HidsCallBack
 363 0088 00000000 		.word	mouseSimulation
 364              		.cfi_endproc
 365              	.LFE38:
 366              		.size	HidsInit, .-HidsInit
 367              		.section	.rodata
 368              		.align	2
 369              	.LC28:
 370 0194 48494420 		.ascii	"HID notification %x %x %x \015\012\000"
 370      6E6F7469 
 370      66696361 
 370      74696F6E 
 370      20257820 
 371 01b1 000000   		.align	2
 372              	.LC32:
 373 01b4 48494453 		.ascii	"HIDS_BOOT_MOUSE_IN_REP notification API Error: %x \015"
 373      5F424F4F 
 373      545F4D4F 
 373      5553455F 
 373      494E5F52 
 374 01e7 0A00     		.ascii	"\012\000"
 375 01e9 000000   		.align	2
 376              	.LC35:
ARM GAS  C:\Users\Herry\AppData\Local\Temp\ccw8GxhK.s 			page 11


 377 01ec 48494453 		.ascii	"HIDS_REPORT notification API Error: %x \015\012\000"
 377      5F524550 
 377      4F525420 
 377      6E6F7469 
 377      66696361 
 378 0216 0000     		.section	.text.SimulateMouse,"ax",%progbits
 379              		.align	2
 380              		.global	SimulateMouse
 381              		.code	16
 382              		.thumb_func
 383              		.type	SimulateMouse, %function
 384              	SimulateMouse:
 385              	.LFB39:
 146:.\hids.c      **** 
 147:.\hids.c      **** 
 148:.\hids.c      **** /*******************************************************************************
 149:.\hids.c      **** * Function Name: SimulateMouse()
 150:.\hids.c      **** ********************************************************************************
 151:.\hids.c      **** *
 152:.\hids.c      **** * Summary:
 153:.\hids.c      **** *   The custom function to simulate mouse moving in a square clockwise position
 154:.\hids.c      **** *
 155:.\hids.c      **** *******************************************************************************/
 156:.\hids.c      **** void SimulateMouse(void)
 157:.\hids.c      **** {
 386              		.loc 1 157 0
 387              		.cfi_startproc
 388 0000 90B5     		push	{r4, r7, lr}
 389              		.cfi_def_cfa_offset 12
 390              		.cfi_offset 4, -12
 391              		.cfi_offset 7, -8
 392              		.cfi_offset 14, -4
 393 0002 85B0     		sub	sp, sp, #20
 394              		.cfi_def_cfa_offset 32
 395 0004 02AF     		add	r7, sp, #8
 396              		.cfi_def_cfa 7, 24
 158:.\hids.c      ****     uint8 abMouseData[MOUSE_DATA_LEN] = {0, 0, 0};  /* Mouse packet array */
 397              		.loc 1 158 0
 398 0006 3B1C     		mov	r3, r7
 399 0008 0022     		mov	r2, #0
 400 000a 1A70     		strb	r2, [r3]
 401 000c 3B1C     		mov	r3, r7
 402 000e 0022     		mov	r2, #0
 403 0010 5A70     		strb	r2, [r3, #1]
 404 0012 3B1C     		mov	r3, r7
 405 0014 0022     		mov	r2, #0
 406 0016 9A70     		strb	r2, [r3, #2]
 159:.\hids.c      ****     static uint8 boxLoop = 0;                       /* Box loop counter */
 160:.\hids.c      ****     static uint8 leftButtonPress = 0;               /* Left Button */
 161:.\hids.c      ****     CYBLE_API_RESULT_T apiResult;
 162:.\hids.c      ****     static uint8 dirState = 0;                      /* Mouse direction state */
 163:.\hids.c      ****     signed char bXInc = 0;                          /* X-Step Size */
 407              		.loc 1 163 0
 408 0018 FB1D     		add	r3, r7, #7
 409 001a 0022     		mov	r2, #0
 410 001c 1A70     		strb	r2, [r3]
 164:.\hids.c      ****     signed char bYInc = 0;                          /* Y-Step Size */
ARM GAS  C:\Users\Herry\AppData\Local\Temp\ccw8GxhK.s 			page 12


 411              		.loc 1 164 0
 412 001e BB1D     		add	r3, r7, #6
 413 0020 0022     		mov	r2, #0
 414 0022 1A70     		strb	r2, [r3]
 165:.\hids.c      ****     
 166:.\hids.c      ****     if(CyBle_GattGetBusyStatus() == CYBLE_STACK_STATE_FREE)
 415              		.loc 1 166 0
 416 0024 634B     		ldr	r3, .L43
 417 0026 1B78     		ldrb	r3, [r3]
 418 0028 DBB2     		uxtb	r3, r3
 419 002a 002B     		cmp	r3, #0
 420 002c 00D0     		beq	.LCB304
 421 002e BDE0     		b	.L27	@long jump
 422              	.LCB304:
 167:.\hids.c      ****     {
 168:.\hids.c      ****         /* Init Left Button state */
 169:.\hids.c      ****         leftButtonPress = (SW2_Read() == 0u) ? 1u : 0u;
 423              		.loc 1 169 0
 424 0030 FFF7FEFF 		bl	SW2_Read
 425 0034 031E     		sub	r3, r0, #0
 426 0036 01D1     		bne	.L29
 427              		.loc 1 169 0 is_stmt 0 discriminator 1
 428 0038 0122     		mov	r2, #1
 429 003a 00E0     		b	.L30
 430              	.L29:
 431              		.loc 1 169 0 discriminator 2
 432 003c 0022     		mov	r2, #0
 433              	.L30:
 434              		.loc 1 169 0 discriminator 4
 435 003e 5E4B     		ldr	r3, .L43+4
 436 0040 1A70     		strb	r2, [r3]
 170:.\hids.c      ****         
 171:.\hids.c      ****         Simulation_LED_Write(LED_ON);
 437              		.loc 1 171 0 is_stmt 1 discriminator 4
 438 0042 0020     		mov	r0, #0
 439 0044 FFF7FEFF 		bl	Simulation_LED_Write
 172:.\hids.c      ****     
 173:.\hids.c      ****         boxLoop++;
 440              		.loc 1 173 0 discriminator 4
 441 0048 5C4B     		ldr	r3, .L43+8
 442 004a 1B78     		ldrb	r3, [r3]
 443 004c 0133     		add	r3, r3, #1
 444 004e DAB2     		uxtb	r2, r3
 445 0050 5A4B     		ldr	r3, .L43+8
 446 0052 1A70     		strb	r2, [r3]
 174:.\hids.c      ****         if(boxLoop > BOX_SIZE)          /* Change mouse direction every 32 packets */
 447              		.loc 1 174 0 discriminator 4
 448 0054 594B     		ldr	r3, .L43+8
 449 0056 1B78     		ldrb	r3, [r3]
 450 0058 802B     		cmp	r3, #128
 451 005a 0FD9     		bls	.L31
 175:.\hids.c      ****         {
 176:.\hids.c      ****             boxLoop = 0;
 452              		.loc 1 176 0
 453 005c 574B     		ldr	r3, .L43+8
 454 005e 0022     		mov	r2, #0
 455 0060 1A70     		strb	r2, [r3]
ARM GAS  C:\Users\Herry\AppData\Local\Temp\ccw8GxhK.s 			page 13


 177:.\hids.c      ****             dirState++;                /* Advance box state */
 456              		.loc 1 177 0
 457 0062 574B     		ldr	r3, .L43+12
 458 0064 1B78     		ldrb	r3, [r3]
 459 0066 0133     		add	r3, r3, #1
 460 0068 DAB2     		uxtb	r2, r3
 461 006a 554B     		ldr	r3, .L43+12
 462 006c 1A70     		strb	r2, [r3]
 178:.\hids.c      ****             dirState &= POSMASK;
 463              		.loc 1 178 0
 464 006e 544B     		ldr	r3, .L43+12
 465 0070 1B78     		ldrb	r3, [r3]
 466 0072 0322     		mov	r2, #3
 467 0074 1340     		and	r3, r2
 468 0076 DAB2     		uxtb	r2, r3
 469 0078 514B     		ldr	r3, .L43+12
 470 007a 1A70     		strb	r2, [r3]
 471              	.L31:
 179:.\hids.c      ****         }
 180:.\hids.c      **** 
 181:.\hids.c      ****         switch(dirState)               /* Determine current direction state */
 472              		.loc 1 181 0
 473 007c 504B     		ldr	r3, .L43+12
 474 007e 1B78     		ldrb	r3, [r3]
 475 0080 012B     		cmp	r3, #1
 476 0082 0FD0     		beq	.L33
 477 0084 02DC     		bgt	.L34
 478 0086 002B     		cmp	r3, #0
 479 0088 05D0     		beq	.L35
 480 008a 20E0     		b	.L32
 481              	.L34:
 482 008c 022B     		cmp	r3, #2
 483 008e 10D0     		beq	.L36
 484 0090 032B     		cmp	r3, #3
 485 0092 15D0     		beq	.L37
 486 0094 1BE0     		b	.L32
 487              	.L35:
 182:.\hids.c      ****         {
 183:.\hids.c      ****             case MOUSE_DOWN:                           /* Down */
 184:.\hids.c      ****                 bXInc = 0;
 488              		.loc 1 184 0
 489 0096 FB1D     		add	r3, r7, #7
 490 0098 0022     		mov	r2, #0
 491 009a 1A70     		strb	r2, [r3]
 185:.\hids.c      ****                 bYInc = CURSOR_STEP;
 492              		.loc 1 185 0
 493 009c BB1D     		add	r3, r7, #6
 494 009e 0322     		mov	r2, #3
 495 00a0 1A70     		strb	r2, [r3]
 186:.\hids.c      ****                 break;
 496              		.loc 1 186 0
 497 00a2 14E0     		b	.L32
 498              	.L33:
 187:.\hids.c      ****                 
 188:.\hids.c      ****             case MOUSE_LEFT:                           /* Left */
 189:.\hids.c      ****                 bXInc = -CURSOR_STEP;
 499              		.loc 1 189 0
ARM GAS  C:\Users\Herry\AppData\Local\Temp\ccw8GxhK.s 			page 14


 500 00a4 FB1D     		add	r3, r7, #7
 501 00a6 FD22     		mov	r2, #253
 502 00a8 1A70     		strb	r2, [r3]
 190:.\hids.c      ****                 bYInc = 0;
 503              		.loc 1 190 0
 504 00aa BB1D     		add	r3, r7, #6
 505 00ac 0022     		mov	r2, #0
 506 00ae 1A70     		strb	r2, [r3]
 191:.\hids.c      ****                 break;
 507              		.loc 1 191 0
 508 00b0 0DE0     		b	.L32
 509              	.L36:
 192:.\hids.c      ****                 
 193:.\hids.c      ****             case MOUSE_UP:                             /* Up */
 194:.\hids.c      ****                 bXInc = 0;
 510              		.loc 1 194 0
 511 00b2 FB1D     		add	r3, r7, #7
 512 00b4 0022     		mov	r2, #0
 513 00b6 1A70     		strb	r2, [r3]
 195:.\hids.c      ****                 bYInc = -CURSOR_STEP;
 514              		.loc 1 195 0
 515 00b8 BB1D     		add	r3, r7, #6
 516 00ba FD22     		mov	r2, #253
 517 00bc 1A70     		strb	r2, [r3]
 196:.\hids.c      ****                 break;
 518              		.loc 1 196 0
 519 00be 06E0     		b	.L32
 520              	.L37:
 197:.\hids.c      ****                 
 198:.\hids.c      ****             case MOUSE_RIGHT:                          /* Right */
 199:.\hids.c      ****                 bXInc = CURSOR_STEP;
 521              		.loc 1 199 0
 522 00c0 FB1D     		add	r3, r7, #7
 523 00c2 0322     		mov	r2, #3
 524 00c4 1A70     		strb	r2, [r3]
 200:.\hids.c      ****                 bYInc = 0;
 525              		.loc 1 200 0
 526 00c6 BB1D     		add	r3, r7, #6
 527 00c8 0022     		mov	r2, #0
 528 00ca 1A70     		strb	r2, [r3]
 201:.\hids.c      ****                 break;
 529              		.loc 1 201 0
 530 00cc C046     		mov	r8, r8
 531              	.L32:
 202:.\hids.c      ****         }
 203:.\hids.c      **** 
 204:.\hids.c      ****         abMouseData[1u] = bXInc;                            /* Load the packet array */
 532              		.loc 1 204 0
 533 00ce FB1D     		add	r3, r7, #7
 534 00d0 1A78     		ldrb	r2, [r3]
 535 00d2 3B1C     		mov	r3, r7
 536 00d4 5A70     		strb	r2, [r3, #1]
 205:.\hids.c      ****         abMouseData[2u] = bYInc;
 537              		.loc 1 205 0
 538 00d6 BB1D     		add	r3, r7, #6
 539 00d8 1A78     		ldrb	r2, [r3]
 540 00da 3B1C     		mov	r3, r7
ARM GAS  C:\Users\Herry\AppData\Local\Temp\ccw8GxhK.s 			page 15


 541 00dc 9A70     		strb	r2, [r3, #2]
 206:.\hids.c      ****         abMouseData[0u] = (leftButtonPress ? MOUSE_LB : 0u);     /* Set up Left Button state */
 542              		.loc 1 206 0
 543 00de 364B     		ldr	r3, .L43+4
 544 00e0 1B78     		ldrb	r3, [r3]
 545 00e2 002B     		cmp	r3, #0
 546 00e4 01D0     		beq	.L38
 547              		.loc 1 206 0 is_stmt 0 discriminator 1
 548 00e6 0122     		mov	r2, #1
 549 00e8 00E0     		b	.L39
 550              	.L38:
 551              		.loc 1 206 0 discriminator 2
 552 00ea 0022     		mov	r2, #0
 553              	.L39:
 554              		.loc 1 206 0 discriminator 4
 555 00ec 3B1C     		mov	r3, r7
 556 00ee 1A70     		strb	r2, [r3]
 207:.\hids.c      ****         DBG_PRINTF("HID notification %x %x %x \r\n", abMouseData[0],abMouseData[1],abMouseData[2]);
 557              		.loc 1 207 0 is_stmt 1 discriminator 4
 558 00f0 3B1C     		mov	r3, r7
 559 00f2 1B78     		ldrb	r3, [r3]
 560 00f4 191C     		mov	r1, r3
 561 00f6 3B1C     		mov	r3, r7
 562 00f8 5B78     		ldrb	r3, [r3, #1]
 563 00fa 1A1C     		mov	r2, r3
 564 00fc 3B1C     		mov	r3, r7
 565 00fe 9B78     		ldrb	r3, [r3, #2]
 566 0100 1C1C     		mov	r4, r3
 567 0102 304B     		ldr	r3, .L43+16
 568 0104 181C     		mov	r0, r3
 569 0106 231C     		mov	r3, r4
 570 0108 FFF7FEFF 		bl	printf
 208:.\hids.c      ****         if(protocol == CYBLE_HIDS_PROTOCOL_MODE_BOOT)
 571              		.loc 1 208 0 discriminator 4
 572 010c 2E4B     		ldr	r3, .L43+20
 573 010e 1B78     		ldrb	r3, [r3]
 574 0110 002B     		cmp	r3, #0
 575 0112 24D1     		bne	.L40
 209:.\hids.c      ****         {
 210:.\hids.c      ****             apiResult = CyBle_HidssSendNotification(cyBle_connHandle, CYBLE_HUMAN_INTERFACE_DEVICE_
 576              		.loc 1 210 0
 577 0114 3C1D     		add	r4, r7, #4
 578 0116 2D4B     		ldr	r3, .L43+24
 579 0118 3A1C     		mov	r2, r7
 580 011a 0092     		str	r2, [sp]
 581 011c 1A78     		ldrb	r2, [r3]
 582 011e 5B78     		ldrb	r3, [r3, #1]
 583 0120 1B02     		lsl	r3, r3, #8
 584 0122 1A43     		orr	r2, r3
 585 0124 0023     		mov	r3, #0
 586 0126 1204     		lsl	r2, r2, #16
 587 0128 120C     		lsr	r2, r2, #16
 588 012a 1B0C     		lsr	r3, r3, #16
 589 012c 1B04     		lsl	r3, r3, #16
 590 012e 1343     		orr	r3, r2
 591 0130 181C     		mov	r0, r3
 592 0132 0021     		mov	r1, #0
ARM GAS  C:\Users\Herry\AppData\Local\Temp\ccw8GxhK.s 			page 16


 593 0134 0622     		mov	r2, #6
 594 0136 0323     		mov	r3, #3
 595 0138 FFF7FEFF 		bl	CyBle_HidssSendNotification
 596 013c 031C     		mov	r3, r0
 597 013e 2380     		strh	r3, [r4]
 211:.\hids.c      ****                 CYBLE_HIDS_BOOT_MOUSE_IN_REP, MOUSE_DATA_LEN, abMouseData);
 212:.\hids.c      ****             if(apiResult != CYBLE_ERROR_OK)
 598              		.loc 1 212 0
 599 0140 3B1D     		add	r3, r7, #4
 600 0142 1B88     		ldrh	r3, [r3]
 601 0144 002B     		cmp	r3, #0
 602 0146 2ED0     		beq	.L42
 213:.\hids.c      ****             {
 214:.\hids.c      ****                 DBG_PRINTF("HIDS_BOOT_MOUSE_IN_REP notification API Error: %x \r\n", apiResult);
 603              		.loc 1 214 0
 604 0148 3B1D     		add	r3, r7, #4
 605 014a 1B88     		ldrh	r3, [r3]
 606 014c 204A     		ldr	r2, .L43+28
 607 014e 101C     		mov	r0, r2
 608 0150 191C     		mov	r1, r3
 609 0152 FFF7FEFF 		bl	printf
 215:.\hids.c      ****                 mouseSimulation = DISABLED;
 610              		.loc 1 215 0
 611 0156 1F4B     		ldr	r3, .L43+32
 612 0158 0022     		mov	r2, #0
 613 015a 1A80     		strh	r2, [r3]
 614 015c 23E0     		b	.L42
 615              	.L40:
 216:.\hids.c      ****             }
 217:.\hids.c      ****         }
 218:.\hids.c      ****         else
 219:.\hids.c      ****         {
 220:.\hids.c      ****             apiResult = CyBle_HidssSendNotification(cyBle_connHandle, CYBLE_HUMAN_INTERFACE_DEVICE_
 616              		.loc 1 220 0
 617 015e 3C1D     		add	r4, r7, #4
 618 0160 1A4B     		ldr	r3, .L43+24
 619 0162 3A1C     		mov	r2, r7
 620 0164 0092     		str	r2, [sp]
 621 0166 1A78     		ldrb	r2, [r3]
 622 0168 5B78     		ldrb	r3, [r3, #1]
 623 016a 1B02     		lsl	r3, r3, #8
 624 016c 1A43     		orr	r2, r3
 625 016e 0023     		mov	r3, #0
 626 0170 1204     		lsl	r2, r2, #16
 627 0172 120C     		lsr	r2, r2, #16
 628 0174 1B0C     		lsr	r3, r3, #16
 629 0176 1B04     		lsl	r3, r3, #16
 630 0178 1343     		orr	r3, r2
 631 017a 181C     		mov	r0, r3
 632 017c 0021     		mov	r1, #0
 633 017e 0722     		mov	r2, #7
 634 0180 0323     		mov	r3, #3
 635 0182 FFF7FEFF 		bl	CyBle_HidssSendNotification
 636 0186 031C     		mov	r3, r0
 637 0188 2380     		strh	r3, [r4]
 221:.\hids.c      ****                 CYBLE_HUMAN_INTERFACE_DEVICE_REPORT_IN, MOUSE_DATA_LEN, abMouseData);
 222:.\hids.c      ****             if(apiResult != CYBLE_ERROR_OK)
ARM GAS  C:\Users\Herry\AppData\Local\Temp\ccw8GxhK.s 			page 17


 638              		.loc 1 222 0
 639 018a 3B1D     		add	r3, r7, #4
 640 018c 1B88     		ldrh	r3, [r3]
 641 018e 002B     		cmp	r3, #0
 642 0190 09D0     		beq	.L42
 223:.\hids.c      ****             {
 224:.\hids.c      ****                 DBG_PRINTF("HIDS_REPORT notification API Error: %x \r\n", apiResult);
 643              		.loc 1 224 0
 644 0192 3B1D     		add	r3, r7, #4
 645 0194 1B88     		ldrh	r3, [r3]
 646 0196 104A     		ldr	r2, .L43+36
 647 0198 101C     		mov	r0, r2
 648 019a 191C     		mov	r1, r3
 649 019c FFF7FEFF 		bl	printf
 225:.\hids.c      ****                 mouseSimulation = DISABLED;
 650              		.loc 1 225 0
 651 01a0 0C4B     		ldr	r3, .L43+32
 652 01a2 0022     		mov	r2, #0
 653 01a4 1A80     		strh	r2, [r3]
 654              	.L42:
 226:.\hids.c      ****             }
 227:.\hids.c      ****         }
 228:.\hids.c      ****         Simulation_LED_Write(LED_OFF);
 655              		.loc 1 228 0
 656 01a6 0120     		mov	r0, #1
 657 01a8 FFF7FEFF 		bl	Simulation_LED_Write
 658              	.L27:
 229:.\hids.c      ****     }
 230:.\hids.c      **** }
 659              		.loc 1 230 0
 660 01ac BD46     		mov	sp, r7
 661 01ae 03B0     		add	sp, sp, #12
 662              		@ sp needed
 663 01b0 90BD     		pop	{r4, r7, pc}
 664              	.L44:
 665 01b2 C046     		.align	2
 666              	.L43:
 667 01b4 00000000 		.word	cyBle_busyStatus
 668 01b8 00000000 		.word	leftButtonPress.8119
 669 01bc 01000000 		.word	boxLoop.8118
 670 01c0 02000000 		.word	dirState.8121
 671 01c4 94010000 		.word	.LC28
 672 01c8 00000000 		.word	protocol
 673 01cc 00000000 		.word	cyBle_connHandle
 674 01d0 B4010000 		.word	.LC32
 675 01d4 00000000 		.word	mouseSimulation
 676 01d8 EC010000 		.word	.LC35
 677              		.cfi_endproc
 678              	.LFE39:
 679              		.size	SimulateMouse, .-SimulateMouse
 680              		.bss
 681              	leftButtonPress.8119:
 682 0000 00       		.space	1
 683              	boxLoop.8118:
 684 0001 00       		.space	1
 685              	dirState.8121:
 686 0002 00       		.space	1
ARM GAS  C:\Users\Herry\AppData\Local\Temp\ccw8GxhK.s 			page 18


 687              		.text
 688              	.Letext0:
 689              		.file 2 "Generated_Source\\PSoC4/cytypes.h"
 690              		.file 3 "Generated_Source\\PSoC4/BLE_Stack.h"
 691              		.file 4 "Generated_Source\\PSoC4/BLE_StackGatt.h"
 692              		.file 5 "Generated_Source\\PSoC4/BLE_hids.h"
 693              		.file 6 "Generated_Source\\PSoC4/BLE_dis.h"
 694              		.file 7 "Generated_Source\\PSoC4/BLE_eventHandler.h"