ARM GAS  C:\Users\Herry\AppData\Local\Temp\ccRVhSEd.s 			page 1


   1              		.cpu cortex-m0
   2              		.fpu softvfp
   3              		.eabi_attribute 20, 1
   4              		.eabi_attribute 21, 1
   5              		.eabi_attribute 23, 3
   6              		.eabi_attribute 24, 1
   7              		.eabi_attribute 25, 1
   8              		.eabi_attribute 26, 1
   9              		.eabi_attribute 30, 6
  10              		.eabi_attribute 34, 0
  11              		.eabi_attribute 18, 4
  12              		.code	16
  13              		.file	"main.c"
  14              		.text
  15              	.Ltext0:
  16              		.cfi_sections	.debug_frame
  17              		.global	connIntv
  18              		.data
  19              		.align	1
  20              		.type	connIntv, %object
  21              		.size	connIntv, 2
  22              	connIntv:
  23 0000 0600     		.short	6
  24              		.global	mainTimer
  25              		.bss
  26              		.align	2
  27              		.type	mainTimer, %object
  28              		.size	mainTimer, 4
  29              	mainTimer:
  30 0000 00000000 		.space	4
  31              		.global	authenticated
  32              		.type	authenticated, %object
  33              		.size	authenticated, 1
  34              	authenticated:
  35 0004 00       		.space	1
  36 0005 000000   		.section	.rodata
  37              		.align	2
  38              	.LC0:
  39 0000 53746172 		.ascii	"StartAdvertisement API Error: %d \015\012\000"
  39      74416476 
  39      65727469 
  39      73656D65 
  39      6E742041 
  40              		.align	2
  41              	.LC2:
  42 0024 426C7565 		.ascii	"Bluetooth On, StartAdvertisement with addr: \000"
  42      746F6F74 
  42      68204F6E 
  42      2C205374 
  42      61727441 
  43 0051 000000   		.align	2
  44              	.LC4:
  45 0054 25322E32 		.ascii	"%2.2x\000"
  45      7800
  46 005a 0000     		.align	2
  47              	.LC6:
  48 005c 0D00     		.ascii	"\015\000"
ARM GAS  C:\Users\Herry\AppData\Local\Temp\ccRVhSEd.s 			page 2


  49 005e 0000     		.align	2
  50              	.LC8:
  51 0060 48617264 		.ascii	"Hardware Error \015\000"
  51      77617265 
  51      20457272 
  51      6F72200D 
  51      00
  52 0071 000000   		.align	2
  53              	.LC10:
  54 0074 4359424C 		.ascii	"CYBLE_EVT_STACK_BUSY_STATUS: %x\015\012\000"
  54      455F4556 
  54      545F5354 
  54      41434B5F 
  54      42555359 
  55 0096 0000     		.align	2
  56              	.LC12:
  57 0098 4359424C 		.ascii	"CYBLE_EVT_AUTH_REQ: security=%x, bonding=%x, ekeySi"
  57      455F4556 
  57      545F4155 
  57      54485F52 
  57      45513A20 
  58 00cb 7A653D25 		.ascii	"ze=%x, err=%x \015\012\000"
  58      782C2065 
  58      72723D25 
  58      78200D0A 
  58      00
  59              		.align	2
  60              	.LC14:
  61 00dc 4359424C 		.ascii	"CYBLE_EVT_PASSKEY_ENTRY_REQUEST press 'p' to enter "
  61      455F4556 
  61      545F5041 
  61      53534B45 
  61      595F454E 
  62 010f 70617373 		.ascii	"passkey \015\000"
  62      6B657920 
  62      0D00
  63 0119 000000   		.align	2
  64              	.LC16:
  65 011c 4359424C 		.ascii	"CYBLE_EVT_PASSKEY_DISPLAY_REQUEST %6.6ld \015\012\000"
  65      455F4556 
  65      545F5041 
  65      53534B45 
  65      595F4449 
  66              		.align	2
  67              	.LC18:
  68 0148 4359424C 		.ascii	"CYBLE_EVT_GAP_KEYINFO_EXCHNGE_CMPLT \015\000"
  68      455F4556 
  68      545F4741 
  68      505F4B45 
  68      59494E46 
  69 016e 0000     		.align	2
  70              	.LC20:
  71 0170 41555448 		.ascii	"AUTH_COMPLETE: security:%x, bonding:%x, ekeySize:%x"
  71      5F434F4D 
  71      504C4554 
  71      453A2073 
  71      65637572 
ARM GAS  C:\Users\Herry\AppData\Local\Temp\ccRVhSEd.s 			page 3


  72 01a3 2C206175 		.ascii	", authErr %x \015\012\000"
  72      74684572 
  72      72202578 
  72      200D0A00 
  73 01b3 00       		.align	2
  74              	.LC23:
  75 01b4 4359424C 		.ascii	"CYBLE_EVT_AUTH_FAILED: %x \015\012\000"
  75      455F4556 
  75      545F4155 
  75      54485F46 
  75      41494C45 
  76 01d1 000000   		.align	2
  77              	.LC25:
  78 01d4 4359424C 		.ascii	"CYBLE_EVT_ADVERTISING \015\000"
  78      455F4556 
  78      545F4144 
  78      56455254 
  78      4953494E 
  79              		.align	2
  80              	.LC28:
  81 01ec 48696265 		.ascii	"Hibernate \015\000"
  81      726E6174 
  81      65200D00 
  82              		.align	2
  83              	.LC31:
  84 01f8 4359424C 		.ascii	"CYBLE_EVT_GAP_DEVICE_CONNECTED: connIntv = %d ms \015"
  84      455F4556 
  84      545F4741 
  84      505F4445 
  84      56494345 
  85 022a 0A00     		.ascii	"\012\000"
  86              		.align	2
  87              	.LC33:
  88 022c 4359424C 		.ascii	"CYBLE_EVT_CONNECTION_UPDATE_COMPLETE: connIntv = %d"
  88      455F4556 
  88      545F434F 
  88      4E4E4543 
  88      54494F4E 
  89 025f 206D7320 		.ascii	" ms \015\012\000"
  89      0D0A00
  90 0266 0000     		.align	2
  91              	.LC35:
  92 0268 4359424C 		.ascii	"CYBLE_EVT_GAP_DEVICE_DISCONNECTED: %x\015\012\000"
  92      455F4556 
  92      545F4741 
  92      505F4445 
  92      56494345 
  93              		.align	2
  94              	.LC37:
  95 0290 4359424C 		.ascii	"CYBLE_EVT_GAP_ENCRYPT_CHANGE: %x \015\012\000"
  95      455F4556 
  95      545F4741 
  95      505F454E 
  95      43525950 
  96              		.align	2
  97              	.LC40:
  98 02b4 4359424C 		.ascii	"CYBLE_EVT_GATT_CONNECT_IND: %x, %x \015\012\000"
ARM GAS  C:\Users\Herry\AppData\Local\Temp\ccRVhSEd.s 			page 4


  98      455F4556 
  98      545F4741 
  98      54545F43 
  98      4F4E4E45 
  99 02da 0000     		.align	2
 100              	.LC42:
 101 02dc 4359424C 		.ascii	"CYBLE_EVT_GATT_DISCONNECT_IND \015\000"
 101      455F4556 
 101      545F4741 
 101      54545F44 
 101      4953434F 
 102              		.align	2
 103              	.LC44:
 104 02fc 4359424C 		.ascii	"CYBLE_EVT_GATTS_READ_CHAR_VAL_ACCESS_REQ: handle: %"
 104      455F4556 
 104      545F4741 
 104      5454535F 
 104      52454144 
 105 032f 78200D0A 		.ascii	"x \015\012\000"
 105      00
 106              		.align	2
 107              	.LC46:
 108 0334 4359424C 		.ascii	"CYBLE_EVT_PENDING_FLASH_WRITE\015\000"
 108      455F4556 
 108      545F5045 
 108      4E44494E 
 108      475F464C 
 109 0353 00       		.align	2
 110              	.LC48:
 111 0354 4F544845 		.ascii	"OTHER event: %lx \015\012\000"
 111      52206576 
 111      656E743A 
 111      20256C78 
 111      200D0A00 
 112              		.section	.text.AppCallBack,"ax",%progbits
 113              		.align	2
 114              		.global	AppCallBack
 115              		.code	16
 116              		.thumb_func
 117              		.type	AppCallBack, %function
 118              	AppCallBack:
 119              	.LFB37:
 120              		.file 1 ".\\main.c"
   1:.\main.c      **** /*******************************************************************************
   2:.\main.c      **** * File Name: main.c
   3:.\main.c      **** *
   4:.\main.c      **** * Version: 1.0
   5:.\main.c      **** *
   6:.\main.c      **** * Description:
   7:.\main.c      **** *  BLE HID mouse example project that supports mouse movement and button click
   8:.\main.c      **** *  HID reports in boot and protocol mode. The example also demonstrates handling
   9:.\main.c      **** *  suspend event from the central device and enters low power mode when suspended.
  10:.\main.c      **** *
  11:.\main.c      **** * Note:
  12:.\main.c      **** *
  13:.\main.c      **** * Hardware Dependency:
  14:.\main.c      **** *  CY8CKIT-042 BLE
ARM GAS  C:\Users\Herry\AppData\Local\Temp\ccRVhSEd.s 			page 5


  15:.\main.c      **** *
  16:.\main.c      **** ********************************************************************************
  17:.\main.c      **** * Copyright 2015, Cypress Semiconductor Corporation.  All rights reserved.
  18:.\main.c      **** * You may use this file only in accordance with the license, terms, conditions,
  19:.\main.c      **** * disclaimers, and limitations in the end user license agreement accompanying
  20:.\main.c      **** * the software package with which this file was provided.
  21:.\main.c      **** *******************************************************************************/
  22:.\main.c      **** 
  23:.\main.c      **** #include "common.h"
  24:.\main.c      **** #include "hids.h"
  25:.\main.c      **** #include "bas.h"
  26:.\main.c      **** #include "scps.h"
  27:.\main.c      **** 
  28:.\main.c      **** uint16 connIntv = CYBLE_GAPP_CONNECTION_INTERVAL_MIN;   /* in milliseconds / 1.25ms */
  29:.\main.c      **** volatile uint32 mainTimer = 0;
  30:.\main.c      **** uint8 authenticated = 0u;
  31:.\main.c      **** 
  32:.\main.c      **** /*******************************************************************************
  33:.\main.c      **** * Function Name: AppCallBack()
  34:.\main.c      **** ********************************************************************************
  35:.\main.c      **** *
  36:.\main.c      **** * Summary:
  37:.\main.c      **** *   This is an event callback function to receive events from the BLE Component.
  38:.\main.c      **** *
  39:.\main.c      **** *******************************************************************************/
  40:.\main.c      **** void AppCallBack(uint32 event, void* eventParam)
  41:.\main.c      **** {
 121              		.loc 1 41 0
 122              		.cfi_startproc
 123 0000 B0B5     		push	{r4, r5, r7, lr}
 124              		.cfi_def_cfa_offset 16
 125              		.cfi_offset 4, -16
 126              		.cfi_offset 5, -12
 127              		.cfi_offset 7, -8
 128              		.cfi_offset 14, -4
 129 0002 88B0     		sub	sp, sp, #32
 130              		.cfi_def_cfa_offset 48
 131 0004 02AF     		add	r7, sp, #8
 132              		.cfi_def_cfa 7, 40
 133 0006 7860     		str	r0, [r7, #4]
 134 0008 3960     		str	r1, [r7]
  42:.\main.c      ****     CYBLE_API_RESULT_T apiResult;
  43:.\main.c      ****     CYBLE_GAP_BD_ADDR_T localAddr;
  44:.\main.c      ****     CYBLE_GAP_AUTH_INFO_T *authInfo;
  45:.\main.c      ****     uint8 i;
  46:.\main.c      ****     
  47:.\main.c      ****     switch (event)
 135              		.loc 1 47 0
 136 000a 7B68     		ldr	r3, [r7, #4]
 137 000c 262B     		cmp	r3, #38
 138 000e 00D1     		bne	.LCB18
 139 0010 DAE0     		b	.L3	@long jump
 140              	.LCB18:
 141 0012 1DD8     		bhi	.L4
 142 0014 212B     		cmp	r3, #33
 143 0016 00D1     		bne	.LCB22
 144 0018 8EE0     		b	.L5	@long jump
ARM GAS  C:\Users\Herry\AppData\Local\Temp\ccRVhSEd.s 			page 6


 145              	.LCB22:
 146 001a 0DD8     		bhi	.L6
 147 001c 022B     		cmp	r3, #2
 148 001e 00D1     		bne	.LCB26
 149 0020 7DE1     		b	.L36	@long jump
 150              	.LCB26:
 151 0022 02D8     		bhi	.L8
 152 0024 012B     		cmp	r3, #1
 153 0026 32D0     		beq	.L9
 154 0028 71E1     		b	.L2
 155              	.L8:
 156 002a 032B     		cmp	r3, #3
 157 002c 00D1     		bne	.LCB36
 158 002e 75E0     		b	.L10	@long jump
 159              	.LCB36:
 160 0030 052B     		cmp	r3, #5
 161 0032 00D1     		bne	.LCB38
 162 0034 77E0     		b	.L11	@long jump
 163              	.LCB38:
 164 0036 6AE1     		b	.L2
 165              	.L6:
 166 0038 232B     		cmp	r3, #35
 167 003a 00D1     		bne	.LCB44
 168 003c 95E0     		b	.L12	@long jump
 169              	.LCB44:
 170 003e 00D2     		bcs	.LCB46
 171 0040 8EE0     		b	.L13	@long jump
 172              	.LCB46:
 173 0042 242B     		cmp	r3, #36
 174 0044 00D1     		bne	.LCB48
 175 0046 9DE0     		b	.L14	@long jump
 176              	.LCB48:
 177 0048 252B     		cmp	r3, #37
 178 004a 00D1     		bne	.LCB50
 179 004c B3E0     		b	.L15	@long jump
 180              	.LCB50:
 181 004e 5EE1     		b	.L2
 182              	.L4:
 183 0050 2C2B     		cmp	r3, #44
 184 0052 00D1     		bne	.LCB56
 185 0054 91E0     		b	.L16	@long jump
 186              	.LCB56:
 187 0056 0BD8     		bhi	.L17
 188 0058 282B     		cmp	r3, #40
 189 005a 00D1     		bne	.LCB60
 190 005c 0CE1     		b	.L18	@long jump
 191              	.LCB60:
 192 005e 00D2     		bcs	.LCB62
 193 0060 E1E0     		b	.L19	@long jump
 194              	.LCB62:
 195 0062 292B     		cmp	r3, #41
 196 0064 00D1     		bne	.LCB64
 197 0066 25E1     		b	.L20	@long jump
 198              	.LCB64:
 199 0068 2A2B     		cmp	r3, #42
 200 006a 00D1     		bne	.LCB66
 201 006c F1E0     		b	.L21	@long jump
ARM GAS  C:\Users\Herry\AppData\Local\Temp\ccRVhSEd.s 			page 7


 202              	.LCB66:
 203 006e 4EE1     		b	.L2
 204              	.L17:
 205 0070 422B     		cmp	r3, #66
 206 0072 00D1     		bne	.LCB72
 207 0074 38E1     		b	.L22	@long jump
 208              	.LCB72:
 209 0076 03D8     		bhi	.L23
 210 0078 412B     		cmp	r3, #65
 211 007a 00D1     		bne	.LCB76
 212 007c 23E1     		b	.L24	@long jump
 213              	.LCB76:
 214 007e 46E1     		b	.L2
 215              	.L23:
 216 0080 572B     		cmp	r3, #87
 217 0082 00D1     		bne	.LCB82
 218 0084 35E1     		b	.L25	@long jump
 219              	.LCB82:
 220 0086 FA2B     		cmp	r3, #250
 221 0088 00D1     		bne	.LCB84
 222 008a 3BE1     		b	.L26	@long jump
 223              	.LCB84:
 224 008c 3FE1     		b	.L2
 225              	.L9:
  48:.\main.c      **** 	{
  49:.\main.c      ****         /**********************************************************
  50:.\main.c      ****         *                       General Events
  51:.\main.c      ****         ***********************************************************/
  52:.\main.c      **** 		case CYBLE_EVT_STACK_ON: /* This event received when component is Started */
  53:.\main.c      ****             /* Enter into discoverable mode so that remote can search it. */
  54:.\main.c      ****             apiResult = CyBle_GappStartAdvertisement(CYBLE_ADVERTISING_FAST);
 226              		.loc 1 54 0
 227 008e 1423     		mov	r3, #20
 228 0090 FC18     		add	r4, r7, r3
 229 0092 0020     		mov	r0, #0
 230 0094 FFF7FEFF 		bl	CyBle_GappStartAdvertisement
 231 0098 031C     		mov	r3, r0
 232 009a 2380     		strh	r3, [r4]
  55:.\main.c      ****             if(apiResult != CYBLE_ERROR_OK)
 233              		.loc 1 55 0
 234 009c 1423     		mov	r3, #20
 235 009e FB18     		add	r3, r7, r3
 236 00a0 1B88     		ldrh	r3, [r3]
 237 00a2 002B     		cmp	r3, #0
 238 00a4 07D0     		beq	.L27
  56:.\main.c      ****             {
  57:.\main.c      ****                 DBG_PRINTF("StartAdvertisement API Error: %d \r\n", apiResult);
 239              		.loc 1 57 0
 240 00a6 1423     		mov	r3, #20
 241 00a8 FB18     		add	r3, r7, r3
 242 00aa 1B88     		ldrh	r3, [r3]
 243 00ac 9E4A     		ldr	r2, .L37
 244 00ae 101C     		mov	r0, r2
 245 00b0 191C     		mov	r1, r3
 246 00b2 FFF7FEFF 		bl	printf
 247              	.L27:
  58:.\main.c      ****             }
ARM GAS  C:\Users\Herry\AppData\Local\Temp\ccRVhSEd.s 			page 8


  59:.\main.c      ****             Advertising_LED_Write(LED_ON);
 248              		.loc 1 59 0
 249 00b6 0020     		mov	r0, #0
 250 00b8 FFF7FEFF 		bl	Advertising_LED_Write
  60:.\main.c      ****             DBG_PRINTF("Bluetooth On, StartAdvertisement with addr: ");
 251              		.loc 1 60 0
 252 00bc 9B4B     		ldr	r3, .L37+4
 253 00be 181C     		mov	r0, r3
 254 00c0 FFF7FEFF 		bl	printf
  61:.\main.c      ****             localAddr.type = 0u;
 255              		.loc 1 61 0
 256 00c4 0823     		mov	r3, #8
 257 00c6 FB18     		add	r3, r7, r3
 258 00c8 0022     		mov	r2, #0
 259 00ca 9A71     		strb	r2, [r3, #6]
  62:.\main.c      ****             CyBle_GetDeviceAddress(&localAddr);
 260              		.loc 1 62 0
 261 00cc 0823     		mov	r3, #8
 262 00ce FB18     		add	r3, r7, r3
 263 00d0 181C     		mov	r0, r3
 264 00d2 FFF7FEFF 		bl	CyBle_GetDeviceAddress
  63:.\main.c      ****             for(i = CYBLE_GAP_BD_ADDR_SIZE; i > 0u; i--)
 265              		.loc 1 63 0
 266 00d6 1723     		mov	r3, #23
 267 00d8 FB18     		add	r3, r7, r3
 268 00da 0622     		mov	r2, #6
 269 00dc 1A70     		strb	r2, [r3]
 270 00de 13E0     		b	.L28
 271              	.L29:
  64:.\main.c      ****             {
  65:.\main.c      ****                 DBG_PRINTF("%2.2x", localAddr.bdAddr[i-1]);
 272              		.loc 1 65 0 discriminator 3
 273 00e0 1723     		mov	r3, #23
 274 00e2 FB18     		add	r3, r7, r3
 275 00e4 1B78     		ldrb	r3, [r3]
 276 00e6 013B     		sub	r3, r3, #1
 277 00e8 0822     		mov	r2, #8
 278 00ea BA18     		add	r2, r7, r2
 279 00ec D35C     		ldrb	r3, [r2, r3]
 280 00ee 1A1C     		mov	r2, r3
 281 00f0 8F4B     		ldr	r3, .L37+8
 282 00f2 181C     		mov	r0, r3
 283 00f4 111C     		mov	r1, r2
 284 00f6 FFF7FEFF 		bl	printf
  63:.\main.c      ****             for(i = CYBLE_GAP_BD_ADDR_SIZE; i > 0u; i--)
 285              		.loc 1 63 0 discriminator 3
 286 00fa 1723     		mov	r3, #23
 287 00fc FB18     		add	r3, r7, r3
 288 00fe 1A78     		ldrb	r2, [r3]
 289 0100 1723     		mov	r3, #23
 290 0102 FB18     		add	r3, r7, r3
 291 0104 013A     		sub	r2, r2, #1
 292 0106 1A70     		strb	r2, [r3]
 293              	.L28:
  63:.\main.c      ****             for(i = CYBLE_GAP_BD_ADDR_SIZE; i > 0u; i--)
 294              		.loc 1 63 0 is_stmt 0 discriminator 1
 295 0108 1723     		mov	r3, #23
ARM GAS  C:\Users\Herry\AppData\Local\Temp\ccRVhSEd.s 			page 9


 296 010a FB18     		add	r3, r7, r3
 297 010c 1B78     		ldrb	r3, [r3]
 298 010e 002B     		cmp	r3, #0
 299 0110 E6D1     		bne	.L29
  66:.\main.c      ****             }
  67:.\main.c      ****             DBG_PRINTF("\r\n");
 300              		.loc 1 67 0 is_stmt 1
 301 0112 884B     		ldr	r3, .L37+12
 302 0114 181C     		mov	r0, r3
 303 0116 FFF7FEFF 		bl	puts
  68:.\main.c      ****             break;
 304              		.loc 1 68 0
 305 011a 01E1     		b	.L1
 306              	.L10:
  69:.\main.c      **** 		case CYBLE_EVT_TIMEOUT: 
  70:.\main.c      **** 			break;
  71:.\main.c      **** 		case CYBLE_EVT_HARDWARE_ERROR:    /* This event indicates that some internal HW error has occurre
  72:.\main.c      ****             DBG_PRINTF("Hardware Error \r\n");
 307              		.loc 1 72 0
 308 011c 864B     		ldr	r3, .L37+16
 309 011e 181C     		mov	r0, r3
 310 0120 FFF7FEFF 		bl	puts
  73:.\main.c      **** 			break;
 311              		.loc 1 73 0
 312 0124 FCE0     		b	.L1
 313              	.L11:
  74:.\main.c      ****         
  75:.\main.c      ****     	/* This event will be triggered by host stack if BLE stack is busy or not busy.
  76:.\main.c      ****     	 *  Parameter corresponding to this event will be the state of BLE stack.
  77:.\main.c      ****     	 *  BLE stack busy = CYBLE_STACK_STATE_BUSY,
  78:.\main.c      ****     	 *  BLE stack not busy = CYBLE_STACK_STATE_FREE 
  79:.\main.c      ****          */
  80:.\main.c      ****     	case CYBLE_EVT_STACK_BUSY_STATUS:
  81:.\main.c      ****             DBG_PRINTF("CYBLE_EVT_STACK_BUSY_STATUS: %x\r\n", *(uint8 *)eventParam);
 314              		.loc 1 81 0
 315 0126 3B68     		ldr	r3, [r7]
 316 0128 1B78     		ldrb	r3, [r3]
 317 012a 1A1C     		mov	r2, r3
 318 012c 834B     		ldr	r3, .L37+20
 319 012e 181C     		mov	r0, r3
 320 0130 111C     		mov	r1, r2
 321 0132 FFF7FEFF 		bl	printf
  82:.\main.c      ****             break;
 322              		.loc 1 82 0
 323 0136 F3E0     		b	.L1
 324              	.L5:
  83:.\main.c      ****             
  84:.\main.c      ****         /**********************************************************
  85:.\main.c      ****         *                       GAP Events
  86:.\main.c      ****         ***********************************************************/
  87:.\main.c      ****         case CYBLE_EVT_GAP_AUTH_REQ:
  88:.\main.c      ****             DBG_PRINTF("CYBLE_EVT_AUTH_REQ: security=%x, bonding=%x, ekeySize=%x, err=%x \r\n", 
 325              		.loc 1 88 0
 326 0138 3B68     		ldr	r3, [r7]
 327 013a 1B78     		ldrb	r3, [r3]
 328 013c 191C     		mov	r1, r3
 329 013e 3B68     		ldr	r3, [r7]
ARM GAS  C:\Users\Herry\AppData\Local\Temp\ccRVhSEd.s 			page 10


 330 0140 5B78     		ldrb	r3, [r3, #1]
 331 0142 1D1C     		mov	r5, r3
 332 0144 3B68     		ldr	r3, [r7]
 333 0146 9B78     		ldrb	r3, [r3, #2]
 334 0148 1C1C     		mov	r4, r3
 335 014a 3B68     		ldr	r3, [r7]
 336 014c DB78     		ldrb	r3, [r3, #3]
 337 014e 1A1C     		mov	r2, r3
 338 0150 7B4B     		ldr	r3, .L37+24
 339 0152 0092     		str	r2, [sp]
 340 0154 181C     		mov	r0, r3
 341 0156 2A1C     		mov	r2, r5
 342 0158 231C     		mov	r3, r4
 343 015a FFF7FEFF 		bl	printf
  89:.\main.c      ****                 (*(CYBLE_GAP_AUTH_INFO_T *)eventParam).security, 
  90:.\main.c      ****                 (*(CYBLE_GAP_AUTH_INFO_T *)eventParam).bonding, 
  91:.\main.c      ****                 (*(CYBLE_GAP_AUTH_INFO_T *)eventParam).ekeySize, 
  92:.\main.c      ****                 (*(CYBLE_GAP_AUTH_INFO_T *)eventParam).authErr);
  93:.\main.c      ****             break;
 344              		.loc 1 93 0
 345 015e DFE0     		b	.L1
 346              	.L13:
  94:.\main.c      ****         case CYBLE_EVT_GAP_PASSKEY_ENTRY_REQUEST:
  95:.\main.c      ****             DBG_PRINTF("CYBLE_EVT_PASSKEY_ENTRY_REQUEST press 'p' to enter passkey \r\n");
 347              		.loc 1 95 0
 348 0160 784B     		ldr	r3, .L37+28
 349 0162 181C     		mov	r0, r3
 350 0164 FFF7FEFF 		bl	puts
  96:.\main.c      ****             break;
 351              		.loc 1 96 0
 352 0168 DAE0     		b	.L1
 353              	.L12:
  97:.\main.c      ****         case CYBLE_EVT_GAP_PASSKEY_DISPLAY_REQUEST:
  98:.\main.c      ****             DBG_PRINTF("CYBLE_EVT_PASSKEY_DISPLAY_REQUEST %6.6ld \r\n", *(uint32 *)eventParam);
 354              		.loc 1 98 0
 355 016a 3B68     		ldr	r3, [r7]
 356 016c 1B68     		ldr	r3, [r3]
 357 016e 764A     		ldr	r2, .L37+32
 358 0170 101C     		mov	r0, r2
 359 0172 191C     		mov	r1, r3
 360 0174 FFF7FEFF 		bl	printf
  99:.\main.c      ****             break;
 361              		.loc 1 99 0
 362 0178 D2E0     		b	.L1
 363              	.L16:
 100:.\main.c      ****         case CYBLE_EVT_GAP_KEYINFO_EXCHNGE_CMPLT:
 101:.\main.c      ****             DBG_PRINTF("CYBLE_EVT_GAP_KEYINFO_EXCHNGE_CMPLT \r\n");
 364              		.loc 1 101 0
 365 017a 744B     		ldr	r3, .L37+36
 366 017c 181C     		mov	r0, r3
 367 017e FFF7FEFF 		bl	puts
 102:.\main.c      ****             break;
 368              		.loc 1 102 0
 369 0182 CDE0     		b	.L1
 370              	.L14:
 103:.\main.c      ****         case CYBLE_EVT_GAP_AUTH_COMPLETE:
 104:.\main.c      ****             authInfo = (CYBLE_GAP_AUTH_INFO_T *)eventParam;
ARM GAS  C:\Users\Herry\AppData\Local\Temp\ccRVhSEd.s 			page 11


 371              		.loc 1 104 0
 372 0184 3B68     		ldr	r3, [r7]
 373 0186 3B61     		str	r3, [r7, #16]
 105:.\main.c      ****             (void)authInfo;
 106:.\main.c      ****             DBG_PRINTF("AUTH_COMPLETE: security:%x, bonding:%x, ekeySize:%x, authErr %x \r\n", 
 374              		.loc 1 106 0
 375 0188 3B69     		ldr	r3, [r7, #16]
 376 018a 1B78     		ldrb	r3, [r3]
 377 018c 191C     		mov	r1, r3
 378 018e 3B69     		ldr	r3, [r7, #16]
 379 0190 5B78     		ldrb	r3, [r3, #1]
 380 0192 1D1C     		mov	r5, r3
 381 0194 3B69     		ldr	r3, [r7, #16]
 382 0196 9B78     		ldrb	r3, [r3, #2]
 383 0198 1C1C     		mov	r4, r3
 384 019a 3B69     		ldr	r3, [r7, #16]
 385 019c DB78     		ldrb	r3, [r3, #3]
 386 019e 1A1C     		mov	r2, r3
 387 01a0 6B4B     		ldr	r3, .L37+40
 388 01a2 0092     		str	r2, [sp]
 389 01a4 181C     		mov	r0, r3
 390 01a6 2A1C     		mov	r2, r5
 391 01a8 231C     		mov	r3, r4
 392 01aa FFF7FEFF 		bl	printf
 107:.\main.c      ****                                     authInfo->security, authInfo->bonding, authInfo->ekeySize, auth
 108:.\main.c      ****             authenticated = 1;
 393              		.loc 1 108 0
 394 01ae 694B     		ldr	r3, .L37+44
 395 01b0 0122     		mov	r2, #1
 396 01b2 1A70     		strb	r2, [r3]
 109:.\main.c      ****             break;
 397              		.loc 1 109 0
 398 01b4 B4E0     		b	.L1
 399              	.L15:
 110:.\main.c      ****         case CYBLE_EVT_GAP_AUTH_FAILED:
 111:.\main.c      ****             DBG_PRINTF("CYBLE_EVT_AUTH_FAILED: %x \r\n", *(uint8 *)eventParam);
 400              		.loc 1 111 0
 401 01b6 3B68     		ldr	r3, [r7]
 402 01b8 1B78     		ldrb	r3, [r3]
 403 01ba 1A1C     		mov	r2, r3
 404 01bc 664B     		ldr	r3, .L37+48
 405 01be 181C     		mov	r0, r3
 406 01c0 111C     		mov	r1, r2
 407 01c2 FFF7FEFF 		bl	printf
 112:.\main.c      ****             break;
 408              		.loc 1 112 0
 409 01c6 ABE0     		b	.L1
 410              	.L3:
 113:.\main.c      ****         case CYBLE_EVT_GAPP_ADVERTISEMENT_START_STOP:
 114:.\main.c      ****             DBG_PRINTF("CYBLE_EVT_ADVERTISING \r\n");
 411              		.loc 1 114 0
 412 01c8 644B     		ldr	r3, .L37+52
 413 01ca 181C     		mov	r0, r3
 414 01cc FFF7FEFF 		bl	puts
 115:.\main.c      ****             if(CYBLE_STATE_DISCONNECTED == CyBle_GetState())
 415              		.loc 1 115 0
 416 01d0 634B     		ldr	r3, .L37+56
ARM GAS  C:\Users\Herry\AppData\Local\Temp\ccRVhSEd.s 			page 12


 417 01d2 1B78     		ldrb	r3, [r3]
 418 01d4 042B     		cmp	r3, #4
 419 01d6 25D1     		bne	.L31
 116:.\main.c      ****             {   
 117:.\main.c      ****                 /* Fast and slow advertising period complete, go to low power  
 118:.\main.c      ****                  * mode (Hibernate mode) and wait for an external
 119:.\main.c      ****                  * user event to wake up the device again */
 120:.\main.c      ****                 DBG_PRINTF("Hibernate \r\n");
 420              		.loc 1 120 0
 421 01d8 624B     		ldr	r3, .L37+60
 422 01da 181C     		mov	r0, r3
 423 01dc FFF7FEFF 		bl	puts
 121:.\main.c      ****                 Advertising_LED_Write(LED_OFF);
 424              		.loc 1 121 0
 425 01e0 0120     		mov	r0, #1
 426 01e2 FFF7FEFF 		bl	Advertising_LED_Write
 122:.\main.c      ****                 Disconnect_LED_Write(LED_ON);
 427              		.loc 1 122 0
 428 01e6 0020     		mov	r0, #0
 429 01e8 FFF7FEFF 		bl	Disconnect_LED_Write
 123:.\main.c      ****                 Simulation_LED_Write(LED_OFF);
 430              		.loc 1 123 0
 431 01ec 0120     		mov	r0, #1
 432 01ee FFF7FEFF 		bl	Simulation_LED_Write
 124:.\main.c      ****             #if (DEBUG_UART_ENABLED == ENABLED)
 125:.\main.c      ****                 while((UART_DEB_SpiUartGetTxBufferSize() + UART_DEB_GET_TX_FIFO_SR_VALID) != 0);
 433              		.loc 1 125 0
 434 01f2 C046     		mov	r8, r8
 435              	.L34:
 436              		.loc 1 125 0 is_stmt 0 discriminator 5
 437 01f4 FFF7FEFF 		bl	UART_DEB_SpiUartGetTxBufferSize
 438 01f8 011C     		mov	r1, r0
 439 01fa 5B4B     		ldr	r3, .L37+64
 440 01fc 1A68     		ldr	r2, [r3]
 441 01fe 8023     		mov	r3, #128
 442 0200 1B02     		lsl	r3, r3, #8
 443 0202 1340     		and	r3, r2
 444 0204 01D0     		beq	.L32
 445              		.loc 1 125 0 discriminator 1
 446 0206 0123     		mov	r3, #1
 447 0208 00E0     		b	.L33
 448              	.L32:
 449              		.loc 1 125 0 discriminator 2
 450 020a 0023     		mov	r3, #0
 451              	.L33:
 452              		.loc 1 125 0 discriminator 4
 453 020c CB18     		add	r3, r1, r3
 454 020e 002B     		cmp	r3, #0
 455 0210 F0D1     		bne	.L34
 126:.\main.c      ****             #endif /* (DEBUG_UART_ENABLED == ENABLED) */
 127:.\main.c      ****                 SW2_ClearInterrupt();
 456              		.loc 1 127 0 is_stmt 1
 457 0212 FFF7FEFF 		bl	SW2_ClearInterrupt
 128:.\main.c      ****                 Wakeup_Interrupt_ClearPending();
 458              		.loc 1 128 0
 459 0216 FFF7FEFF 		bl	Wakeup_Interrupt_ClearPending
 129:.\main.c      ****                 Wakeup_Interrupt_Start();
ARM GAS  C:\Users\Herry\AppData\Local\Temp\ccRVhSEd.s 			page 13


 460              		.loc 1 129 0
 461 021a FFF7FEFF 		bl	Wakeup_Interrupt_Start
 130:.\main.c      ****                 CySysPmHibernate();
 462              		.loc 1 130 0
 463 021e FFF7FEFF 		bl	CySysPmHibernate
 131:.\main.c      ****             }
 132:.\main.c      ****             break;
 464              		.loc 1 132 0
 465 0222 7DE0     		b	.L1
 466              	.L31:
 467              		.loc 1 132 0 is_stmt 0 discriminator 2
 468 0224 7CE0     		b	.L1
 469              	.L19:
 133:.\main.c      ****         case CYBLE_EVT_GAP_DEVICE_CONNECTED:
 134:.\main.c      ****             Advertising_LED_Write(LED_OFF);
 470              		.loc 1 134 0 is_stmt 1
 471 0226 0120     		mov	r0, #1
 472 0228 FFF7FEFF 		bl	Advertising_LED_Write
 135:.\main.c      ****             connIntv = ((CYBLE_GAP_CONN_PARAM_UPDATED_IN_CONTROLLER_T *)eventParam)->connIntv * 5u 
 473              		.loc 1 135 0
 474 022c 3B68     		ldr	r3, [r7]
 475 022e 5B88     		ldrh	r3, [r3, #2]
 476 0230 1A1C     		mov	r2, r3
 477 0232 131C     		mov	r3, r2
 478 0234 9B00     		lsl	r3, r3, #2
 479 0236 9B18     		add	r3, r3, r2
 480 0238 9B08     		lsr	r3, r3, #2
 481 023a 9AB2     		uxth	r2, r3
 482 023c 4B4B     		ldr	r3, .L37+68
 483 023e 1A80     		strh	r2, [r3]
 136:.\main.c      ****             DBG_PRINTF("CYBLE_EVT_GAP_DEVICE_CONNECTED: connIntv = %d ms \r\n", connIntv);
 484              		.loc 1 136 0
 485 0240 4A4B     		ldr	r3, .L37+68
 486 0242 1B88     		ldrh	r3, [r3]
 487 0244 1A1C     		mov	r2, r3
 488 0246 4A4B     		ldr	r3, .L37+72
 489 0248 181C     		mov	r0, r3
 490 024a 111C     		mov	r1, r2
 491 024c FFF7FEFF 		bl	printf
 137:.\main.c      ****             break;
 492              		.loc 1 137 0
 493 0250 66E0     		b	.L1
 494              	.L21:
 138:.\main.c      ****         case CYBLE_EVT_GAPC_CONNECTION_UPDATE_COMPLETE:
 139:.\main.c      ****             connIntv = ((CYBLE_GAP_CONN_PARAM_UPDATED_IN_CONTROLLER_T *)eventParam)->connIntv * 5u 
 495              		.loc 1 139 0
 496 0252 3B68     		ldr	r3, [r7]
 497 0254 5B88     		ldrh	r3, [r3, #2]
 498 0256 1A1C     		mov	r2, r3
 499 0258 131C     		mov	r3, r2
 500 025a 9B00     		lsl	r3, r3, #2
 501 025c 9B18     		add	r3, r3, r2
 502 025e 9B08     		lsr	r3, r3, #2
 503 0260 9AB2     		uxth	r2, r3
 504 0262 424B     		ldr	r3, .L37+68
 505 0264 1A80     		strh	r2, [r3]
 140:.\main.c      ****             DBG_PRINTF("CYBLE_EVT_CONNECTION_UPDATE_COMPLETE: connIntv = %d ms \r\n", connIntv);
ARM GAS  C:\Users\Herry\AppData\Local\Temp\ccRVhSEd.s 			page 14


 506              		.loc 1 140 0
 507 0266 414B     		ldr	r3, .L37+68
 508 0268 1B88     		ldrh	r3, [r3]
 509 026a 1A1C     		mov	r2, r3
 510 026c 414B     		ldr	r3, .L37+76
 511 026e 181C     		mov	r0, r3
 512 0270 111C     		mov	r1, r2
 513 0272 FFF7FEFF 		bl	printf
 141:.\main.c      ****             break;
 514              		.loc 1 141 0
 515 0276 53E0     		b	.L1
 516              	.L18:
 142:.\main.c      ****         case CYBLE_EVT_GAP_DEVICE_DISCONNECTED:
 143:.\main.c      ****             DBG_PRINTF("CYBLE_EVT_GAP_DEVICE_DISCONNECTED: %x\r\n", *(uint8 *)eventParam);
 517              		.loc 1 143 0
 518 0278 3B68     		ldr	r3, [r7]
 519 027a 1B78     		ldrb	r3, [r3]
 520 027c 1A1C     		mov	r2, r3
 521 027e 3E4B     		ldr	r3, .L37+80
 522 0280 181C     		mov	r0, r3
 523 0282 111C     		mov	r1, r2
 524 0284 FFF7FEFF 		bl	printf
 144:.\main.c      ****             apiResult = CyBle_GappStartAdvertisement(CYBLE_ADVERTISING_FAST);
 525              		.loc 1 144 0
 526 0288 1423     		mov	r3, #20
 527 028a FC18     		add	r4, r7, r3
 528 028c 0020     		mov	r0, #0
 529 028e FFF7FEFF 		bl	CyBle_GappStartAdvertisement
 530 0292 031C     		mov	r3, r0
 531 0294 2380     		strh	r3, [r4]
 145:.\main.c      ****             if(apiResult != CYBLE_ERROR_OK)
 532              		.loc 1 145 0
 533 0296 1423     		mov	r3, #20
 534 0298 FB18     		add	r3, r7, r3
 535 029a 1B88     		ldrh	r3, [r3]
 536 029c 002B     		cmp	r3, #0
 537 029e 08D0     		beq	.L35
 146:.\main.c      ****             {
 147:.\main.c      ****                 DBG_PRINTF("StartAdvertisement API Error: %d \r\n", apiResult);
 538              		.loc 1 147 0
 539 02a0 1423     		mov	r3, #20
 540 02a2 FB18     		add	r3, r7, r3
 541 02a4 1B88     		ldrh	r3, [r3]
 542 02a6 204A     		ldr	r2, .L37
 543 02a8 101C     		mov	r0, r2
 544 02aa 191C     		mov	r1, r3
 545 02ac FFF7FEFF 		bl	printf
 148:.\main.c      ****             }
 149:.\main.c      ****             break;
 546              		.loc 1 149 0
 547 02b0 36E0     		b	.L1
 548              	.L35:
 549              		.loc 1 149 0 is_stmt 0 discriminator 3
 550 02b2 35E0     		b	.L1
 551              	.L20:
 150:.\main.c      ****         case CYBLE_EVT_GAP_ENCRYPT_CHANGE:
 151:.\main.c      ****             DBG_PRINTF("CYBLE_EVT_GAP_ENCRYPT_CHANGE: %x \r\n", *(uint8 *)eventParam);
ARM GAS  C:\Users\Herry\AppData\Local\Temp\ccRVhSEd.s 			page 15


 552              		.loc 1 151 0 is_stmt 1
 553 02b4 3B68     		ldr	r3, [r7]
 554 02b6 1B78     		ldrb	r3, [r3]
 555 02b8 1A1C     		mov	r2, r3
 556 02ba 304B     		ldr	r3, .L37+84
 557 02bc 181C     		mov	r0, r3
 558 02be 111C     		mov	r1, r2
 559 02c0 FFF7FEFF 		bl	printf
 152:.\main.c      ****             break;
 560              		.loc 1 152 0
 561 02c4 2CE0     		b	.L1
 562              	.L24:
 153:.\main.c      **** 
 154:.\main.c      ****         /**********************************************************
 155:.\main.c      ****         *                       GATT Events
 156:.\main.c      ****         ***********************************************************/
 157:.\main.c      ****         case CYBLE_EVT_GATT_CONNECT_IND:
 158:.\main.c      ****             DBG_PRINTF("CYBLE_EVT_GATT_CONNECT_IND: %x, %x \r\n", cyBle_connHandle.attId, cyBle_con
 563              		.loc 1 158 0
 564 02c6 2E4B     		ldr	r3, .L37+88
 565 02c8 5B78     		ldrb	r3, [r3, #1]
 566 02ca 191C     		mov	r1, r3
 567 02cc 2C4B     		ldr	r3, .L37+88
 568 02ce 1B78     		ldrb	r3, [r3]
 569 02d0 1A1C     		mov	r2, r3
 570 02d2 2C4B     		ldr	r3, .L37+92
 571 02d4 181C     		mov	r0, r3
 572 02d6 FFF7FEFF 		bl	printf
 159:.\main.c      ****             /* Register service specific callback functions and init CCCD values */
 160:.\main.c      ****             HidsInit();
 573              		.loc 1 160 0
 574 02da FFF7FEFF 		bl	HidsInit
 161:.\main.c      ****             BasInit();
 575              		.loc 1 161 0
 576 02de FFF7FEFF 		bl	BasInit
 162:.\main.c      ****             ScpsInit();
 577              		.loc 1 162 0
 578 02e2 FFF7FEFF 		bl	ScpsInit
 163:.\main.c      ****             break;
 579              		.loc 1 163 0
 580 02e6 1BE0     		b	.L1
 581              	.L22:
 164:.\main.c      ****         case CYBLE_EVT_GATT_DISCONNECT_IND:
 165:.\main.c      ****             DBG_PRINTF("CYBLE_EVT_GATT_DISCONNECT_IND \r\n");
 582              		.loc 1 165 0
 583 02e8 274B     		ldr	r3, .L37+96
 584 02ea 181C     		mov	r0, r3
 585 02ec FFF7FEFF 		bl	puts
 166:.\main.c      ****             break;
 586              		.loc 1 166 0
 587 02f0 16E0     		b	.L1
 588              	.L25:
 167:.\main.c      ****         case CYBLE_EVT_GATTS_READ_CHAR_VAL_ACCESS_REQ:
 168:.\main.c      ****             /* Triggered on server side when client sends read request and when
 169:.\main.c      ****             * characteristic has CYBLE_GATT_DB_ATTR_CHAR_VAL_RD_EVENT property set.
 170:.\main.c      ****             * This event could be ignored by application unless it need to response
 171:.\main.c      ****             * by error response which needs to be set in gattErrorCode field of
ARM GAS  C:\Users\Herry\AppData\Local\Temp\ccRVhSEd.s 			page 16


 172:.\main.c      ****             * event parameter. */
 173:.\main.c      ****             DBG_PRINTF("CYBLE_EVT_GATTS_READ_CHAR_VAL_ACCESS_REQ: handle: %x \r\n", 
 589              		.loc 1 173 0
 590 02f2 3B68     		ldr	r3, [r7]
 591 02f4 5B88     		ldrh	r3, [r3, #2]
 592 02f6 1A1C     		mov	r2, r3
 593 02f8 244B     		ldr	r3, .L37+100
 594 02fa 181C     		mov	r0, r3
 595 02fc 111C     		mov	r1, r2
 596 02fe FFF7FEFF 		bl	printf
 174:.\main.c      ****                 ((CYBLE_GATTS_CHAR_VAL_READ_REQ_T *)eventParam)->attrHandle);
 175:.\main.c      ****             break;
 597              		.loc 1 175 0
 598 0302 0DE0     		b	.L1
 599              	.L26:
 176:.\main.c      **** 
 177:.\main.c      ****         /**********************************************************
 178:.\main.c      ****         *                       Other Events
 179:.\main.c      ****         ***********************************************************/
 180:.\main.c      ****         case CYBLE_EVT_PENDING_FLASH_WRITE:
 181:.\main.c      ****             /* Inform application that flash write is pending. Stack internal data 
 182:.\main.c      ****             * structures are modified and require to be stored in Flash using 
 183:.\main.c      ****             * CyBle_StoreBondingData() */
 184:.\main.c      ****             DBG_PRINTF("CYBLE_EVT_PENDING_FLASH_WRITE\r\n");
 600              		.loc 1 184 0
 601 0304 224B     		ldr	r3, .L37+104
 602 0306 181C     		mov	r0, r3
 603 0308 FFF7FEFF 		bl	puts
 185:.\main.c      ****             break;
 604              		.loc 1 185 0
 605 030c 08E0     		b	.L1
 606              	.L2:
 186:.\main.c      ****         default:
 187:.\main.c      ****             DBG_PRINTF("OTHER event: %lx \r\n", event);
 607              		.loc 1 187 0
 608 030e 214A     		ldr	r2, .L37+108
 609 0310 7B68     		ldr	r3, [r7, #4]
 610 0312 101C     		mov	r0, r2
 611 0314 191C     		mov	r1, r3
 612 0316 FFF7FEFF 		bl	printf
 188:.\main.c      **** 			break;
 613              		.loc 1 188 0
 614 031a C046     		mov	r8, r8
 615 031c 00E0     		b	.L1
 616              	.L36:
  70:.\main.c      **** 		case CYBLE_EVT_HARDWARE_ERROR:    /* This event indicates that some internal HW error has occurre
 617              		.loc 1 70 0
 618 031e C046     		mov	r8, r8
 619              	.L1:
 189:.\main.c      **** 	}
 190:.\main.c      **** 
 191:.\main.c      **** }
 620              		.loc 1 191 0
 621 0320 BD46     		mov	sp, r7
 622 0322 06B0     		add	sp, sp, #24
 623              		@ sp needed
 624 0324 B0BD     		pop	{r4, r5, r7, pc}
ARM GAS  C:\Users\Herry\AppData\Local\Temp\ccRVhSEd.s 			page 17


 625              	.L38:
 626 0326 C046     		.align	2
 627              	.L37:
 628 0328 00000000 		.word	.LC0
 629 032c 24000000 		.word	.LC2
 630 0330 54000000 		.word	.LC4
 631 0334 5C000000 		.word	.LC6
 632 0338 60000000 		.word	.LC8
 633 033c 74000000 		.word	.LC10
 634 0340 98000000 		.word	.LC12
 635 0344 DC000000 		.word	.LC14
 636 0348 1C010000 		.word	.LC16
 637 034c 48010000 		.word	.LC18
 638 0350 70010000 		.word	.LC20
 639 0354 00000000 		.word	authenticated
 640 0358 B4010000 		.word	.LC23
 641 035c D4010000 		.word	.LC25
 642 0360 00000000 		.word	cyBle_state
 643 0364 EC010000 		.word	.LC28
 644 0368 08022440 		.word	1076101640
 645 036c 00000000 		.word	connIntv
 646 0370 F8010000 		.word	.LC31
 647 0374 2C020000 		.word	.LC33
 648 0378 68020000 		.word	.LC35
 649 037c 90020000 		.word	.LC37
 650 0380 00000000 		.word	cyBle_connHandle
 651 0384 B4020000 		.word	.LC40
 652 0388 DC020000 		.word	.LC42
 653 038c FC020000 		.word	.LC44
 654 0390 34030000 		.word	.LC46
 655 0394 54030000 		.word	.LC48
 656              		.cfi_endproc
 657              	.LFE37:
 658              		.size	AppCallBack, .-AppCallBack
 659              		.section	.text.Timer_Interrupt,"ax",%progbits
 660              		.align	2
 661              		.global	Timer_Interrupt
 662              		.code	16
 663              		.thumb_func
 664              		.type	Timer_Interrupt, %function
 665              	Timer_Interrupt:
 666              	.LFB38:
 192:.\main.c      **** 
 193:.\main.c      **** 
 194:.\main.c      **** /*******************************************************************************
 195:.\main.c      **** * Function Name: Timer_Interrupt
 196:.\main.c      **** ********************************************************************************
 197:.\main.c      **** *
 198:.\main.c      **** * Summary:
 199:.\main.c      **** *  Handles the Interrupt Service Routine for the WDT timer.
 200:.\main.c      **** *
 201:.\main.c      **** *******************************************************************************/
 202:.\main.c      **** CY_ISR(Timer_Interrupt)
 203:.\main.c      **** {
 667              		.loc 1 203 0
 668              		.cfi_startproc
 669 0000 80B5     		push	{r7, lr}
ARM GAS  C:\Users\Herry\AppData\Local\Temp\ccRVhSEd.s 			page 18


 670              		.cfi_def_cfa_offset 8
 671              		.cfi_offset 7, -8
 672              		.cfi_offset 14, -4
 673 0002 00AF     		add	r7, sp, #0
 674              		.cfi_def_cfa_register 7
 204:.\main.c      ****     if(CySysWdtGetInterruptSource() & WDT_INTERRUPT_SOURCE)
 675              		.loc 1 204 0
 676 0004 FFF7FEFF 		bl	CySysWdtGetInterruptSource
 677 0008 021C     		mov	r2, r0
 678 000a 8023     		mov	r3, #128
 679 000c DB00     		lsl	r3, r3, #3
 680 000e 1340     		and	r3, r2
 681 0010 25D0     		beq	.L39
 682              	.LBB2:
 205:.\main.c      ****     {
 206:.\main.c      ****         static uint8 led = LED_OFF;
 207:.\main.c      ****         static uint32 ledTimer = LED_TIMEOUT;
 208:.\main.c      ****     
 209:.\main.c      ****         /* Blink green LED to indicate that device advertises */
 210:.\main.c      ****         if(CyBle_GetState() == CYBLE_STATE_ADVERTISING)
 683              		.loc 1 210 0
 684 0012 144B     		ldr	r3, .L42
 685 0014 1B78     		ldrb	r3, [r3]
 686 0016 032B     		cmp	r3, #3
 687 0018 17D1     		bne	.L41
 211:.\main.c      ****         {
 212:.\main.c      ****             if(--ledTimer == 0u) 
 688              		.loc 1 212 0
 689 001a 134B     		ldr	r3, .L42+4
 690 001c 1B68     		ldr	r3, [r3]
 691 001e 5A1E     		sub	r2, r3, #1
 692 0020 114B     		ldr	r3, .L42+4
 693 0022 1A60     		str	r2, [r3]
 694 0024 104B     		ldr	r3, .L42+4
 695 0026 1B68     		ldr	r3, [r3]
 696 0028 002B     		cmp	r3, #0
 697 002a 0ED1     		bne	.L41
 213:.\main.c      ****             {
 214:.\main.c      ****                 ledTimer = LED_TIMEOUT;
 698              		.loc 1 214 0
 699 002c 0E4B     		ldr	r3, .L42+4
 700 002e 0A22     		mov	r2, #10
 701 0030 1A60     		str	r2, [r3]
 215:.\main.c      ****                 led ^= LED_OFF;
 702              		.loc 1 215 0
 703 0032 0E4B     		ldr	r3, .L42+8
 704 0034 1B78     		ldrb	r3, [r3]
 705 0036 0122     		mov	r2, #1
 706 0038 5340     		eor	r3, r2
 707 003a DAB2     		uxtb	r2, r3
 708 003c 0B4B     		ldr	r3, .L42+8
 709 003e 1A70     		strb	r2, [r3]
 216:.\main.c      ****                 Advertising_LED_Write(led);
 710              		.loc 1 216 0
 711 0040 0A4B     		ldr	r3, .L42+8
 712 0042 1B78     		ldrb	r3, [r3]
 713 0044 181C     		mov	r0, r3
ARM GAS  C:\Users\Herry\AppData\Local\Temp\ccRVhSEd.s 			page 19


 714 0046 FFF7FEFF 		bl	Advertising_LED_Write
 715              	.L41:
 217:.\main.c      ****             }
 218:.\main.c      ****         }
 219:.\main.c      ****         
 220:.\main.c      ****         /* Indicate that timer is raised to the main loop */
 221:.\main.c      ****         mainTimer++;
 716              		.loc 1 221 0
 717 004a 094B     		ldr	r3, .L42+12
 718 004c 1B68     		ldr	r3, [r3]
 719 004e 5A1C     		add	r2, r3, #1
 720 0050 074B     		ldr	r3, .L42+12
 721 0052 1A60     		str	r2, [r3]
 222:.\main.c      ****         
 223:.\main.c      ****         /* Clears interrupt request  */
 224:.\main.c      ****         CySysWdtClearInterrupt(WDT_INTERRUPT_SOURCE);
 722              		.loc 1 224 0
 723 0054 8023     		mov	r3, #128
 724 0056 DB00     		lsl	r3, r3, #3
 725 0058 181C     		mov	r0, r3
 726 005a FFF7FEFF 		bl	CySysWdtClearInterrupt
 727              	.L39:
 728              	.LBE2:
 225:.\main.c      ****     }
 226:.\main.c      **** }
 729              		.loc 1 226 0
 730 005e BD46     		mov	sp, r7
 731              		@ sp needed
 732 0060 80BD     		pop	{r7, pc}
 733              	.L43:
 734 0062 C046     		.align	2
 735              	.L42:
 736 0064 00000000 		.word	cyBle_state
 737 0068 04000000 		.word	ledTimer.8146
 738 006c 08000000 		.word	led.8145
 739 0070 00000000 		.word	mainTimer
 740              		.cfi_endproc
 741              	.LFE38:
 742              		.size	Timer_Interrupt, .-Timer_Interrupt
 743              		.section	.text.WDT_Start,"ax",%progbits
 744              		.align	2
 745              		.global	WDT_Start
 746              		.code	16
 747              		.thumb_func
 748              		.type	WDT_Start, %function
 749              	WDT_Start:
 750              	.LFB39:
 227:.\main.c      **** 
 228:.\main.c      **** /*******************************************************************************
 229:.\main.c      **** * Function Name: WDT_Start
 230:.\main.c      **** ********************************************************************************
 231:.\main.c      **** *
 232:.\main.c      **** * Summary:
 233:.\main.c      **** *  Configures WDT to trigger an interrupt.
 234:.\main.c      **** *
 235:.\main.c      **** *******************************************************************************/
 236:.\main.c      **** 
ARM GAS  C:\Users\Herry\AppData\Local\Temp\ccRVhSEd.s 			page 20


 237:.\main.c      **** void WDT_Start(void)
 238:.\main.c      **** {
 751              		.loc 1 238 0
 752              		.cfi_startproc
 753 0000 80B5     		push	{r7, lr}
 754              		.cfi_def_cfa_offset 8
 755              		.cfi_offset 7, -8
 756              		.cfi_offset 14, -4
 757 0002 00AF     		add	r7, sp, #0
 758              		.cfi_def_cfa_register 7
 239:.\main.c      ****     /* Unlock the WDT registers for modification */
 240:.\main.c      ****     CySysWdtUnlock(); 
 759              		.loc 1 240 0
 760 0004 FFF7FEFF 		bl	CySysWdtUnlock
 241:.\main.c      ****     /* Setup ISR */
 242:.\main.c      ****     WDT_Interrupt_StartEx(&Timer_Interrupt);
 761              		.loc 1 242 0
 762 0008 0E4B     		ldr	r3, .L45
 763 000a 181C     		mov	r0, r3
 764 000c FFF7FEFF 		bl	WDT_Interrupt_StartEx
 243:.\main.c      ****     /* Write the mode to generate interrupt on match */
 244:.\main.c      ****     CySysWdtWriteMode(WDT_COUNTER, CY_SYS_WDT_MODE_INT);
 765              		.loc 1 244 0
 766 0010 0120     		mov	r0, #1
 767 0012 0121     		mov	r1, #1
 768 0014 FFF7FEFF 		bl	CySysWdtSetMode
 245:.\main.c      ****     /* Configure the WDT counter clear on a match setting */
 246:.\main.c      ****     CySysWdtWriteClearOnMatch(WDT_COUNTER, WDT_COUNTER_ENABLE);
 769              		.loc 1 246 0
 770 0018 0120     		mov	r0, #1
 771 001a 0121     		mov	r1, #1
 772 001c FFF7FEFF 		bl	CySysWdtSetClearOnMatch
 247:.\main.c      ****     /* Configure the WDT counter match comparison value */
 248:.\main.c      ****     CySysWdtWriteMatch(WDT_COUNTER, WDT_TIMEOUT);
 773              		.loc 1 248 0
 774 0020 094B     		ldr	r3, .L45+4
 775 0022 0120     		mov	r0, #1
 776 0024 191C     		mov	r1, r3
 777 0026 FFF7FEFF 		bl	CySysWdtSetMatch
 249:.\main.c      ****     /* Reset WDT counter */
 250:.\main.c      ****     CySysWdtResetCounters(WDT_COUNTER);
 778              		.loc 1 250 0
 779 002a 0120     		mov	r0, #1
 780 002c FFF7FEFF 		bl	CySysWdtResetCounters
 251:.\main.c      ****     /* Enable the specified WDT counter */
 252:.\main.c      ****     CySysWdtEnable(WDT_COUNTER_MASK);
 781              		.loc 1 252 0
 782 0030 8023     		mov	r3, #128
 783 0032 5B00     		lsl	r3, r3, #1
 784 0034 181C     		mov	r0, r3
 785 0036 FFF7FEFF 		bl	CySysWdtEnable
 253:.\main.c      ****     /* Lock out configuration changes to the Watchdog timer registers */
 254:.\main.c      ****     CySysWdtLock();    
 786              		.loc 1 254 0
 787 003a FFF7FEFF 		bl	CySysWdtLock
 255:.\main.c      **** }
 788              		.loc 1 255 0
ARM GAS  C:\Users\Herry\AppData\Local\Temp\ccRVhSEd.s 			page 21


 789 003e BD46     		mov	sp, r7
 790              		@ sp needed
 791 0040 80BD     		pop	{r7, pc}
 792              	.L46:
 793 0042 C046     		.align	2
 794              	.L45:
 795 0044 00000000 		.word	Timer_Interrupt
 796 0048 CC0C0000 		.word	3276
 797              		.cfi_endproc
 798              	.LFE39:
 799              		.size	WDT_Start, .-WDT_Start
 800              		.section	.text.WDT_Stop,"ax",%progbits
 801              		.align	2
 802              		.global	WDT_Stop
 803              		.code	16
 804              		.thumb_func
 805              		.type	WDT_Stop, %function
 806              	WDT_Stop:
 807              	.LFB40:
 256:.\main.c      **** 
 257:.\main.c      **** 
 258:.\main.c      **** /*******************************************************************************
 259:.\main.c      **** * Function Name: WDT_Stop
 260:.\main.c      **** ********************************************************************************
 261:.\main.c      **** *
 262:.\main.c      **** * Summary:
 263:.\main.c      **** *  This API stops the WDT timer.
 264:.\main.c      **** *
 265:.\main.c      **** *******************************************************************************/
 266:.\main.c      **** void WDT_Stop(void)
 267:.\main.c      **** {
 808              		.loc 1 267 0
 809              		.cfi_startproc
 810 0000 80B5     		push	{r7, lr}
 811              		.cfi_def_cfa_offset 8
 812              		.cfi_offset 7, -8
 813              		.cfi_offset 14, -4
 814 0002 00AF     		add	r7, sp, #0
 815              		.cfi_def_cfa_register 7
 268:.\main.c      ****     /* Unlock the WDT registers for modification */
 269:.\main.c      ****     CySysWdtUnlock(); 
 816              		.loc 1 269 0
 817 0004 FFF7FEFF 		bl	CySysWdtUnlock
 270:.\main.c      ****     /* Disable the specified WDT counter */
 271:.\main.c      ****     CySysWdtDisable(WDT_COUNTER_MASK);
 818              		.loc 1 271 0
 819 0008 8023     		mov	r3, #128
 820 000a 5B00     		lsl	r3, r3, #1
 821 000c 181C     		mov	r0, r3
 822 000e FFF7FEFF 		bl	CySysWdtDisable
 272:.\main.c      ****     /* Locks out configuration changes to the Watchdog timer registers */
 273:.\main.c      ****     CySysWdtLock();    
 823              		.loc 1 273 0
 824 0012 FFF7FEFF 		bl	CySysWdtLock
 274:.\main.c      **** }
 825              		.loc 1 274 0
 826 0016 BD46     		mov	sp, r7
ARM GAS  C:\Users\Herry\AppData\Local\Temp\ccRVhSEd.s 			page 22


 827              		@ sp needed
 828 0018 80BD     		pop	{r7, pc}
 829              		.cfi_endproc
 830              	.LFE40:
 831              		.size	WDT_Stop, .-WDT_Stop
 832 001a C046     		.section	.text.LowPowerImplementation,"ax",%progbits
 833              		.align	2
 834              		.code	16
 835              		.thumb_func
 836              		.type	LowPowerImplementation, %function
 837              	LowPowerImplementation:
 838              	.LFB41:
 275:.\main.c      **** 
 276:.\main.c      **** 
 277:.\main.c      **** /*******************************************************************************
 278:.\main.c      **** * Function Name: LowPowerImplementation()
 279:.\main.c      **** ********************************************************************************
 280:.\main.c      **** * Summary:
 281:.\main.c      **** * Implements low power in the project.
 282:.\main.c      **** *
 283:.\main.c      **** * Parameters:
 284:.\main.c      **** * None
 285:.\main.c      **** *
 286:.\main.c      **** * Return:
 287:.\main.c      **** * None
 288:.\main.c      **** *
 289:.\main.c      **** * Theory:
 290:.\main.c      **** * The function tries to enter deep sleep as much as possible - whenever the 
 291:.\main.c      **** * BLE is idle and the UART transmission/reception is not happening. At all other
 292:.\main.c      **** * times, the function tries to enter CPU sleep.
 293:.\main.c      **** *
 294:.\main.c      **** *******************************************************************************/
 295:.\main.c      **** static void LowPowerImplementation(void)
 296:.\main.c      **** {
 839              		.loc 1 296 0
 840              		.cfi_startproc
 841 0000 90B5     		push	{r4, r7, lr}
 842              		.cfi_def_cfa_offset 12
 843              		.cfi_offset 4, -12
 844              		.cfi_offset 7, -8
 845              		.cfi_offset 14, -4
 846 0002 83B0     		sub	sp, sp, #12
 847              		.cfi_def_cfa_offset 24
 848 0004 00AF     		add	r7, sp, #0
 849              		.cfi_def_cfa_register 7
 297:.\main.c      ****     CYBLE_LP_MODE_T bleMode;
 298:.\main.c      ****     uint8 interruptStatus;
 299:.\main.c      ****     
 300:.\main.c      ****     /* For advertising and connected states, implement deep sleep 
 301:.\main.c      ****      * functionality to achieve low power in the system. For more details
 302:.\main.c      ****      * on the low power implementation, refer to the Low Power Application 
 303:.\main.c      ****      * Note.
 304:.\main.c      ****      */
 305:.\main.c      ****     if((CyBle_GetState() == CYBLE_STATE_ADVERTISING) || 
 850              		.loc 1 305 0
 851 0006 224B     		ldr	r3, .L58
 852 0008 1B78     		ldrb	r3, [r3]
ARM GAS  C:\Users\Herry\AppData\Local\Temp\ccRVhSEd.s 			page 23


 853 000a 032B     		cmp	r3, #3
 854 000c 03D0     		beq	.L49
 306:.\main.c      ****        (CyBle_GetState() == CYBLE_STATE_CONNECTED))
 855              		.loc 1 306 0 discriminator 1
 856 000e 204B     		ldr	r3, .L58
 857 0010 1B78     		ldrb	r3, [r3]
 305:.\main.c      ****        (CyBle_GetState() == CYBLE_STATE_CONNECTED))
 858              		.loc 1 305 0 discriminator 1
 859 0012 022B     		cmp	r3, #2
 860 0014 39D1     		bne	.L48
 861              	.L49:
 307:.\main.c      ****     {
 308:.\main.c      ****         /* Request BLE subsystem to enter into Deep-Sleep mode between connection and advertising i
 309:.\main.c      ****         bleMode = CyBle_EnterLPM(CYBLE_BLESS_DEEPSLEEP);
 862              		.loc 1 309 0
 863 0016 FC1D     		add	r4, r7, #7
 864 0018 0320     		mov	r0, #3
 865 001a FFF7FEFF 		bl	CyBle_EnterLPM
 866 001e 031C     		mov	r3, r0
 867 0020 2370     		strb	r3, [r4]
 310:.\main.c      ****         /* Disable global interrupts */
 311:.\main.c      ****         interruptStatus = CyEnterCriticalSection();
 868              		.loc 1 311 0
 869 0022 BC1D     		add	r4, r7, #6
 870 0024 FFF7FEFF 		bl	CyEnterCriticalSection
 871 0028 031C     		mov	r3, r0
 872 002a 2370     		strb	r3, [r4]
 312:.\main.c      ****         /* When BLE subsystem has been put into Deep-Sleep mode */
 313:.\main.c      ****         if(bleMode == CYBLE_BLESS_DEEPSLEEP)
 873              		.loc 1 313 0
 874 002c FB1D     		add	r3, r7, #7
 875 002e 1B78     		ldrb	r3, [r3]
 876 0030 032B     		cmp	r3, #3
 877 0032 1ED1     		bne	.L51
 314:.\main.c      ****         {
 315:.\main.c      ****             /* And it is still there or ECO is on */
 316:.\main.c      ****             if((CyBle_GetBleSsState() == CYBLE_BLESS_STATE_ECO_ON) || 
 878              		.loc 1 316 0
 879 0034 FFF7FEFF 		bl	CyBle_GetBleSsState
 880 0038 031E     		sub	r3, r0, #0
 881 003a 042B     		cmp	r3, #4
 882 003c 04D0     		beq	.L52
 317:.\main.c      ****                (CyBle_GetBleSsState() == CYBLE_BLESS_STATE_DEEPSLEEP))
 883              		.loc 1 317 0 discriminator 1
 884 003e FFF7FEFF 		bl	CyBle_GetBleSsState
 885 0042 031E     		sub	r3, r0, #0
 316:.\main.c      ****                (CyBle_GetBleSsState() == CYBLE_BLESS_STATE_DEEPSLEEP))
 886              		.loc 1 316 0 discriminator 1
 887 0044 062B     		cmp	r3, #6
 888 0046 1BD1     		bne	.L57
 889              	.L52:
 318:.\main.c      ****             {
 319:.\main.c      ****             #if (DEBUG_UART_ENABLED == ENABLED)
 320:.\main.c      ****                 /* Put the CPU into the Deep-Sleep mode when all debug information has been sent */
 321:.\main.c      ****                 if((UART_DEB_SpiUartGetTxBufferSize() + UART_DEB_GET_TX_FIFO_SR_VALID) == 0u)
 890              		.loc 1 321 0
 891 0048 FFF7FEFF 		bl	UART_DEB_SpiUartGetTxBufferSize
ARM GAS  C:\Users\Herry\AppData\Local\Temp\ccRVhSEd.s 			page 24


 892 004c 011C     		mov	r1, r0
 893 004e 114B     		ldr	r3, .L58+4
 894 0050 1A68     		ldr	r2, [r3]
 895 0052 8023     		mov	r3, #128
 896 0054 1B02     		lsl	r3, r3, #8
 897 0056 1340     		and	r3, r2
 898 0058 01D0     		beq	.L54
 899              		.loc 1 321 0 is_stmt 0 discriminator 1
 900 005a 0123     		mov	r3, #1
 901 005c 00E0     		b	.L55
 902              	.L54:
 903              		.loc 1 321 0 discriminator 2
 904 005e 0023     		mov	r3, #0
 905              	.L55:
 906              		.loc 1 321 0 discriminator 4
 907 0060 CB18     		add	r3, r1, r3
 908 0062 002B     		cmp	r3, #0
 909 0064 02D1     		bne	.L56
 322:.\main.c      ****                 {
 323:.\main.c      ****                     CySysPmDeepSleep();
 910              		.loc 1 323 0 is_stmt 1
 911 0066 FFF7FEFF 		bl	CySysPmDeepSleep
 912 006a 09E0     		b	.L57
 913              	.L56:
 324:.\main.c      ****                 }
 325:.\main.c      ****                 else /* Put the CPU into Sleep mode and let SCB to continue sending debug data */
 326:.\main.c      ****                 {
 327:.\main.c      ****                     CySysPmSleep();
 914              		.loc 1 327 0
 915 006c FFF7FEFF 		bl	CySysPmSleep
 916 0070 06E0     		b	.L57
 917              	.L51:
 328:.\main.c      ****                 }
 329:.\main.c      ****             #else
 330:.\main.c      ****                 CySysPmDeepSleep();
 331:.\main.c      ****             #endif /* (DEBUG_UART_ENABLED == ENABLED) */
 332:.\main.c      ****             }
 333:.\main.c      ****         }
 334:.\main.c      ****         else /* When BLE subsystem has been put into Sleep mode or is active */
 335:.\main.c      ****         {
 336:.\main.c      ****             /* And hardware doesn't finish Tx/Rx opeation - put the CPU into Sleep mode */
 337:.\main.c      ****             if(CyBle_GetBleSsState() != CYBLE_BLESS_STATE_EVENT_CLOSE)
 918              		.loc 1 337 0
 919 0072 FFF7FEFF 		bl	CyBle_GetBleSsState
 920 0076 031E     		sub	r3, r0, #0
 921 0078 022B     		cmp	r3, #2
 922 007a 01D0     		beq	.L57
 338:.\main.c      ****             {
 339:.\main.c      ****                 CySysPmSleep();
 923              		.loc 1 339 0
 924 007c FFF7FEFF 		bl	CySysPmSleep
 925              	.L57:
 340:.\main.c      ****             }
 341:.\main.c      ****         }
 342:.\main.c      ****         /* Enable global interrupt */
 343:.\main.c      ****         CyExitCriticalSection(interruptStatus);
 926              		.loc 1 343 0
ARM GAS  C:\Users\Herry\AppData\Local\Temp\ccRVhSEd.s 			page 25


 927 0080 BB1D     		add	r3, r7, #6
 928 0082 1B78     		ldrb	r3, [r3]
 929 0084 181C     		mov	r0, r3
 930 0086 FFF7FEFF 		bl	CyExitCriticalSection
 931              	.L48:
 344:.\main.c      ****     }
 345:.\main.c      **** }
 932              		.loc 1 345 0
 933 008a BD46     		mov	sp, r7
 934 008c 03B0     		add	sp, sp, #12
 935              		@ sp needed
 936 008e 90BD     		pop	{r4, r7, pc}
 937              	.L59:
 938              		.align	2
 939              	.L58:
 940 0090 00000000 		.word	cyBle_state
 941 0094 08022440 		.word	1076101640
 942              		.cfi_endproc
 943              	.LFE41:
 944              		.size	LowPowerImplementation, .-LowPowerImplementation
 945              		.section	.rodata
 946              		.align	2
 947              	.LC56:
 948 0368 424C4520 		.ascii	"BLE HID Mouse Example Project \015\000"
 948      48494420 
 948      4D6F7573 
 948      65204578 
 948      616D706C 
 949              		.align	2
 950              	.LC59:
 951 0388 4379426C 		.ascii	"CyBle_Start API Error: %x \015\012\000"
 951      655F5374 
 951      61727420 
 951      41504920 
 951      4572726F 
 952 03a5 000000   		.align	2
 953              	.LC61:
 954 03a8 4379426C 		.ascii	"CyBle_GetStackLibraryVersion API Error: 0x%2.2x \015"
 954      655F4765 
 954      74537461 
 954      636B4C69 
 954      62726172 
 955 03d9 0A00     		.ascii	"\012\000"
 956 03db 00       		.align	2
 957              	.LC63:
 958 03dc 53746163 		.ascii	"Stack Version: %d.%d.%d.%d \015\012\000"
 958      6B205665 
 958      7273696F 
 958      6E3A2025 
 958      642E2564 
 959 03fa 0000     		.align	2
 960              	.LC73:
 961 03fc 53746F72 		.ascii	"Store bonding data, status: %x \015\012\000"
 961      6520626F 
 961      6E64696E 
 961      67206461 
 961      74612C20 
ARM GAS  C:\Users\Herry\AppData\Local\Temp\ccRVhSEd.s 			page 26


 962 041e 0000     		.section	.text.main,"ax",%progbits
 963              		.align	2
 964              		.global	main
 965              		.code	16
 966              		.thumb_func
 967              		.type	main, %function
 968              	main:
 969              	.LFB42:
 346:.\main.c      **** 
 347:.\main.c      **** 
 348:.\main.c      **** /*******************************************************************************
 349:.\main.c      **** * Function Name: main()
 350:.\main.c      **** ********************************************************************************
 351:.\main.c      **** * Summary:
 352:.\main.c      **** *  Main function for the project.
 353:.\main.c      **** *
 354:.\main.c      **** * Parameters:
 355:.\main.c      **** *  None
 356:.\main.c      **** *
 357:.\main.c      **** * Return:
 358:.\main.c      **** *  None
 359:.\main.c      **** *
 360:.\main.c      **** * Theory:
 361:.\main.c      **** *  The function starts BLE and UART components.
 362:.\main.c      **** *  This function process all BLE events and also implements the low power 
 363:.\main.c      **** *  functionality.
 364:.\main.c      **** *
 365:.\main.c      **** *******************************************************************************/
 366:.\main.c      **** int main()
 367:.\main.c      **** {
 970              		.loc 1 367 0
 971              		.cfi_startproc
 972 0000 B0B5     		push	{r4, r5, r7, lr}
 973              		.cfi_def_cfa_offset 16
 974              		.cfi_offset 4, -16
 975              		.cfi_offset 5, -12
 976              		.cfi_offset 7, -8
 977              		.cfi_offset 14, -4
 978 0002 86B0     		sub	sp, sp, #24
 979              		.cfi_def_cfa_offset 40
 980 0004 02AF     		add	r7, sp, #8
 981              		.cfi_def_cfa 7, 32
 368:.\main.c      ****     CYBLE_API_RESULT_T apiResult;
 369:.\main.c      ****     uint8 refresh = CYBLE_SCAN_REFRESH_ENABLED;
 982              		.loc 1 369 0
 983 0006 0B23     		mov	r3, #11
 984 0008 FB18     		add	r3, r7, r3
 985 000a 0022     		mov	r2, #0
 986 000c 1A70     		strb	r2, [r3]
 370:.\main.c      ****     CYBLE_STACK_LIB_VERSION_T stackVersion;
 371:.\main.c      ****     
 372:.\main.c      ****     CyGlobalIntEnable;  
 987              		.loc 1 372 0
 988              	@ 372 ".\main.c" 1
 989 000e 62B6     		CPSIE   i
 990              	@ 0 "" 2
 373:.\main.c      ****     
ARM GAS  C:\Users\Herry\AppData\Local\Temp\ccRVhSEd.s 			page 27


 374:.\main.c      ****     Disconnect_LED_Write(LED_OFF);
 991              		.loc 1 374 0
 992              		.code	16
 993 0010 0120     		mov	r0, #1
 994 0012 FFF7FEFF 		bl	Disconnect_LED_Write
 375:.\main.c      ****     Advertising_LED_Write(LED_OFF);
 995              		.loc 1 375 0
 996 0016 0120     		mov	r0, #1
 997 0018 FFF7FEFF 		bl	Advertising_LED_Write
 376:.\main.c      ****     Simulation_LED_Write(LED_OFF);
 998              		.loc 1 376 0
 999 001c 0120     		mov	r0, #1
 1000 001e FFF7FEFF 		bl	Simulation_LED_Write
 377:.\main.c      **** 
 378:.\main.c      **** #if (DEBUG_UART_ENABLED == ENABLED)
 379:.\main.c      ****     UART_DEB_Start();
 1001              		.loc 1 379 0
 1002 0022 FFF7FEFF 		bl	UART_DEB_Start
 380:.\main.c      **** #endif /* (DEBUG_UART_ENABLED == ENABLED) */ 
 381:.\main.c      ****     DBG_PRINTF("BLE HID Mouse Example Project \r\n");
 1003              		.loc 1 381 0
 1004 0026 574B     		ldr	r3, .L71
 1005 0028 181C     		mov	r0, r3
 1006 002a FFF7FEFF 		bl	puts
 382:.\main.c      ****     
 383:.\main.c      ****     /* Start CYBLE component and register generic event handler */
 384:.\main.c      ****     apiResult = CyBle_Start(AppCallBack);
 1007              		.loc 1 384 0
 1008 002e 0E23     		mov	r3, #14
 1009 0030 FC18     		add	r4, r7, r3
 1010 0032 554B     		ldr	r3, .L71+4
 1011 0034 181C     		mov	r0, r3
 1012 0036 FFF7FEFF 		bl	CyBle_Start
 1013 003a 031C     		mov	r3, r0
 1014 003c 2380     		strh	r3, [r4]
 385:.\main.c      ****     if(apiResult != CYBLE_ERROR_OK)
 1015              		.loc 1 385 0
 1016 003e 0E23     		mov	r3, #14
 1017 0040 FB18     		add	r3, r7, r3
 1018 0042 1B88     		ldrh	r3, [r3]
 1019 0044 002B     		cmp	r3, #0
 1020 0046 07D0     		beq	.L61
 386:.\main.c      ****     {
 387:.\main.c      ****         DBG_PRINTF("CyBle_Start API Error: %x \r\n", apiResult);
 1021              		.loc 1 387 0
 1022 0048 0E23     		mov	r3, #14
 1023 004a FB18     		add	r3, r7, r3
 1024 004c 1B88     		ldrh	r3, [r3]
 1025 004e 4F4A     		ldr	r2, .L71+8
 1026 0050 101C     		mov	r0, r2
 1027 0052 191C     		mov	r1, r3
 1028 0054 FFF7FEFF 		bl	printf
 1029              	.L61:
 388:.\main.c      ****     }
 389:.\main.c      ****     
 390:.\main.c      ****     apiResult = CyBle_GetStackLibraryVersion(&stackVersion);
 1030              		.loc 1 390 0
ARM GAS  C:\Users\Herry\AppData\Local\Temp\ccRVhSEd.s 			page 28


 1031 0058 0E23     		mov	r3, #14
 1032 005a FC18     		add	r4, r7, r3
 1033 005c 3B1D     		add	r3, r7, #4
 1034 005e 181C     		mov	r0, r3
 1035 0060 FFF7FEFF 		bl	CyBle_GetStackLibraryVersion
 1036 0064 031C     		mov	r3, r0
 1037 0066 2380     		strh	r3, [r4]
 391:.\main.c      ****     if(apiResult != CYBLE_ERROR_OK)
 1038              		.loc 1 391 0
 1039 0068 0E23     		mov	r3, #14
 1040 006a FB18     		add	r3, r7, r3
 1041 006c 1B88     		ldrh	r3, [r3]
 1042 006e 002B     		cmp	r3, #0
 1043 0070 08D0     		beq	.L62
 392:.\main.c      ****     {
 393:.\main.c      ****         DBG_PRINTF("CyBle_GetStackLibraryVersion API Error: 0x%2.2x \r\n", apiResult);
 1044              		.loc 1 393 0
 1045 0072 0E23     		mov	r3, #14
 1046 0074 FB18     		add	r3, r7, r3
 1047 0076 1B88     		ldrh	r3, [r3]
 1048 0078 454A     		ldr	r2, .L71+12
 1049 007a 101C     		mov	r0, r2
 1050 007c 191C     		mov	r1, r3
 1051 007e FFF7FEFF 		bl	printf
 1052 0082 12E0     		b	.L63
 1053              	.L62:
 394:.\main.c      ****     }
 395:.\main.c      ****     else
 396:.\main.c      ****     {
 397:.\main.c      ****         DBG_PRINTF("Stack Version: %d.%d.%d.%d \r\n", stackVersion.majorVersion, 
 1054              		.loc 1 397 0
 1055 0084 3B1D     		add	r3, r7, #4
 1056 0086 1B78     		ldrb	r3, [r3]
 1057 0088 191C     		mov	r1, r3
 1058 008a 3B1D     		add	r3, r7, #4
 1059 008c 5B78     		ldrb	r3, [r3, #1]
 1060 008e 1D1C     		mov	r5, r3
 1061 0090 3B1D     		add	r3, r7, #4
 1062 0092 9B78     		ldrb	r3, [r3, #2]
 1063 0094 1C1C     		mov	r4, r3
 1064 0096 3B1D     		add	r3, r7, #4
 1065 0098 DB78     		ldrb	r3, [r3, #3]
 1066 009a 1A1C     		mov	r2, r3
 1067 009c 3D4B     		ldr	r3, .L71+16
 1068 009e 0092     		str	r2, [sp]
 1069 00a0 181C     		mov	r0, r3
 1070 00a2 2A1C     		mov	r2, r5
 1071 00a4 231C     		mov	r3, r4
 1072 00a6 FFF7FEFF 		bl	printf
 1073              	.L63:
 398:.\main.c      ****             stackVersion.minorVersion, stackVersion.patch, stackVersion.buildNumber);
 399:.\main.c      ****     }
 400:.\main.c      **** 
 401:.\main.c      ****     WDT_Start();
 1074              		.loc 1 401 0
 1075 00aa FFF7FEFF 		bl	WDT_Start
 1076              	.L70:
ARM GAS  C:\Users\Herry\AppData\Local\Temp\ccRVhSEd.s 			page 29


 402:.\main.c      ****     
 403:.\main.c      **** #if (BAS_MEASURE_ENABLE != 0)
 404:.\main.c      ****     ADC_Start();
 405:.\main.c      **** #endif /* BAS_MEASURE_ENABLE != 0 */
 406:.\main.c      **** 
 407:.\main.c      **** 
 408:.\main.c      **** 	while(1) 
 409:.\main.c      ****     {              
 410:.\main.c      ****         /* CyBle_ProcessEvents() allows BLE stack to process pending events */
 411:.\main.c      ****         CyBle_ProcessEvents();
 1077              		.loc 1 411 0
 1078 00ae FFF7FEFF 		bl	CyBle_ProcessEvents
 412:.\main.c      **** 
 413:.\main.c      ****         /* To achieve low power in the device */
 414:.\main.c      ****         LowPowerImplementation();
 1079              		.loc 1 414 0
 1080 00b2 FFF7FEFF 		bl	LowPowerImplementation
 415:.\main.c      **** 
 416:.\main.c      ****         if((CyBle_GetState() == CYBLE_STATE_CONNECTED) && (suspend != CYBLE_HIDS_CP_SUSPEND) && (au
 1081              		.loc 1 416 0
 1082 00b6 384B     		ldr	r3, .L71+20
 1083 00b8 1B78     		ldrb	r3, [r3]
 1084 00ba 022B     		cmp	r3, #2
 1085 00bc 61D1     		bne	.L64
 1086              		.loc 1 416 0 is_stmt 0 discriminator 1
 1087 00be 374B     		ldr	r3, .L71+24
 1088 00c0 1B78     		ldrb	r3, [r3]
 1089 00c2 002B     		cmp	r3, #0
 1090 00c4 5DD0     		beq	.L64
 1091              		.loc 1 416 0 discriminator 2
 1092 00c6 364B     		ldr	r3, .L71+28
 1093 00c8 1B78     		ldrb	r3, [r3]
 1094 00ca 002B     		cmp	r3, #0
 1095 00cc 59D0     		beq	.L64
 417:.\main.c      ****         {
 418:.\main.c      ****             if(mainTimer != 0u)
 1096              		.loc 1 418 0 is_stmt 1
 1097 00ce 354B     		ldr	r3, .L71+32
 1098 00d0 1B68     		ldr	r3, [r3]
 1099 00d2 002B     		cmp	r3, #0
 1100 00d4 0ED0     		beq	.L65
 419:.\main.c      ****             {
 420:.\main.c      ****                 mainTimer = 0u;                
 1101              		.loc 1 420 0
 1102 00d6 334B     		ldr	r3, .L71+32
 1103 00d8 0022     		mov	r2, #0
 1104 00da 1A60     		str	r2, [r3]
 421:.\main.c      ****             #if (BAS_SIMULATE_ENABLE != 0)
 422:.\main.c      ****                 SimulateBattery();
 1105              		.loc 1 422 0
 1106 00dc FFF7FEFF 		bl	SimulateBattery
 423:.\main.c      ****                 CyBle_ProcessEvents();
 1107              		.loc 1 423 0
 1108 00e0 FFF7FEFF 		bl	CyBle_ProcessEvents
 424:.\main.c      ****             #endif /* BAS_SIMULATE_ENABLE != 0 */    
 425:.\main.c      ****             #if (BAS_MEASURE_ENABLE != 0)
 426:.\main.c      ****                 MeasureBattery();
ARM GAS  C:\Users\Herry\AppData\Local\Temp\ccRVhSEd.s 			page 30


 427:.\main.c      ****                 CyBle_ProcessEvents();
 428:.\main.c      ****             #endif /* BAS_MEASURE_ENABLE != 0 */
 429:.\main.c      ****                 if(mouseSimulation == ENABLED)
 1109              		.loc 1 429 0
 1110 00e4 304B     		ldr	r3, .L71+36
 1111 00e6 1B88     		ldrh	r3, [r3]
 1112 00e8 012B     		cmp	r3, #1
 1113 00ea 03D1     		bne	.L65
 430:.\main.c      ****                 {
 431:.\main.c      ****                     SimulateMouse();
 1114              		.loc 1 431 0
 1115 00ec FFF7FEFF 		bl	SimulateMouse
 432:.\main.c      ****                     CyBle_ProcessEvents();
 1116              		.loc 1 432 0
 1117 00f0 FFF7FEFF 		bl	CyBle_ProcessEvents
 1118              	.L65:
 433:.\main.c      ****                 }
 434:.\main.c      ****             }
 435:.\main.c      ****             if(requestScanRefresh == ENABLED)
 1119              		.loc 1 435 0
 1120 00f4 2D4B     		ldr	r3, .L71+40
 1121 00f6 1B88     		ldrh	r3, [r3]
 1122 00f8 012B     		cmp	r3, #1
 1123 00fa 20D1     		bne	.L66
 436:.\main.c      ****             {
 437:.\main.c      ****                 /* Send notification to request update connection parameters */
 438:.\main.c      ****                 apiResult = CyBle_ScpssSendNotification(cyBle_connHandle, CYBLE_SCPS_SCAN_REFRESH, 
 1124              		.loc 1 438 0
 1125 00fc 0E23     		mov	r3, #14
 1126 00fe FC18     		add	r4, r7, r3
 1127 0100 2B4B     		ldr	r3, .L71+44
 1128 0102 0B22     		mov	r2, #11
 1129 0104 BD18     		add	r5, r7, r2
 1130 0106 1A78     		ldrb	r2, [r3]
 1131 0108 5B78     		ldrb	r3, [r3, #1]
 1132 010a 1B02     		lsl	r3, r3, #8
 1133 010c 1A43     		orr	r2, r3
 1134 010e 0023     		mov	r3, #0
 1135 0110 1204     		lsl	r2, r2, #16
 1136 0112 120C     		lsr	r2, r2, #16
 1137 0114 1B0C     		lsr	r3, r3, #16
 1138 0116 1B04     		lsl	r3, r3, #16
 1139 0118 1343     		orr	r3, r2
 1140 011a 181C     		mov	r0, r3
 1141 011c 0121     		mov	r1, #1
 1142 011e 0122     		mov	r2, #1
 1143 0120 2B1C     		mov	r3, r5
 1144 0122 FFF7FEFF 		bl	CyBle_ScpssSendNotification
 1145 0126 031C     		mov	r3, r0
 1146 0128 2380     		strh	r3, [r4]
 439:.\main.c      ****                     sizeof(refresh), &refresh);
 440:.\main.c      ****                 if(apiResult != CYBLE_ERROR_OK)
 1147              		.loc 1 440 0
 1148 012a 0E23     		mov	r3, #14
 1149 012c FB18     		add	r3, r7, r3
 1150 012e 1B88     		ldrh	r3, [r3]
 1151 0130 002B     		cmp	r3, #0
ARM GAS  C:\Users\Herry\AppData\Local\Temp\ccRVhSEd.s 			page 31


 1152 0132 01D0     		beq	.L67
 441:.\main.c      ****                 {
 442:.\main.c      ****                     /* Error condition */
 443:.\main.c      ****                     ShowError();
 1153              		.loc 1 443 0
 1154 0134 FFF7FEFF 		bl	ShowError
 1155              	.L67:
 444:.\main.c      ****                 }
 445:.\main.c      ****                 requestScanRefresh = DISABLED;
 1156              		.loc 1 445 0
 1157 0138 1C4B     		ldr	r3, .L71+40
 1158 013a 0022     		mov	r2, #0
 1159 013c 1A80     		strh	r2, [r3]
 1160              	.L66:
 446:.\main.c      ****             }
 447:.\main.c      ****             /* Store bonding data to flash only when all debug information has been sent */
 448:.\main.c      ****         #if(CYBLE_BONDING_REQUIREMENT == CYBLE_BONDING_YES)
 449:.\main.c      ****         #if (DEBUG_UART_ENABLED == ENABLED)
 450:.\main.c      ****             if((cyBle_pendingFlashWrite != 0u) &&
 1161              		.loc 1 450 0
 1162 013e 1D4B     		ldr	r3, .L71+48
 1163 0140 1B78     		ldrb	r3, [r3]
 1164 0142 002B     		cmp	r3, #0
 1165 0144 1DD0     		beq	.L64
 451:.\main.c      ****                ((UART_DEB_SpiUartGetTxBufferSize() + UART_DEB_GET_TX_FIFO_SR_VALID) == 0u))
 1166              		.loc 1 451 0
 1167 0146 FFF7FEFF 		bl	UART_DEB_SpiUartGetTxBufferSize
 1168 014a 011C     		mov	r1, r0
 1169 014c 1A4B     		ldr	r3, .L71+52
 1170 014e 1A68     		ldr	r2, [r3]
 1171 0150 8023     		mov	r3, #128
 1172 0152 1B02     		lsl	r3, r3, #8
 1173 0154 1340     		and	r3, r2
 1174 0156 01D0     		beq	.L68
 1175              		.loc 1 451 0 is_stmt 0 discriminator 1
 1176 0158 0123     		mov	r3, #1
 1177 015a 00E0     		b	.L69
 1178              	.L68:
 1179              		.loc 1 451 0 discriminator 2
 1180 015c 0023     		mov	r3, #0
 1181              	.L69:
 1182              		.loc 1 451 0 discriminator 4
 1183 015e CB18     		add	r3, r1, r3
 450:.\main.c      ****                ((UART_DEB_SpiUartGetTxBufferSize() + UART_DEB_GET_TX_FIFO_SR_VALID) == 0u))
 1184              		.loc 1 450 0 is_stmt 1 discriminator 4
 1185 0160 002B     		cmp	r3, #0
 1186 0162 0ED1     		bne	.L64
 1187              	.LBB3:
 452:.\main.c      ****         #else
 453:.\main.c      ****             if(cyBle_pendingFlashWrite != 0u)
 454:.\main.c      ****         #endif /* (DEBUG_UART_ENABLED == ENABLED) */
 455:.\main.c      ****             {
 456:.\main.c      ****                 CYBLE_API_RESULT_T apiResult;
 457:.\main.c      ****                 apiResult = CyBle_StoreBondingData(0u);
 1188              		.loc 1 457 0
 1189 0164 0C23     		mov	r3, #12
 1190 0166 FC18     		add	r4, r7, r3
ARM GAS  C:\Users\Herry\AppData\Local\Temp\ccRVhSEd.s 			page 32


 1191 0168 0020     		mov	r0, #0
 1192 016a FFF7FEFF 		bl	CyBle_StoreBondingData
 1193 016e 031C     		mov	r3, r0
 1194 0170 2380     		strh	r3, [r4]
 458:.\main.c      ****                 (void)apiResult;
 459:.\main.c      ****                 DBG_PRINTF("Store bonding data, status: %x \r\n", apiResult);
 1195              		.loc 1 459 0
 1196 0172 0C23     		mov	r3, #12
 1197 0174 FB18     		add	r3, r7, r3
 1198 0176 1B88     		ldrh	r3, [r3]
 1199 0178 104A     		ldr	r2, .L71+56
 1200 017a 101C     		mov	r0, r2
 1201 017c 191C     		mov	r1, r3
 1202 017e FFF7FEFF 		bl	printf
 1203              	.L64:
 1204              	.LBE3:
 460:.\main.c      ****             }
 461:.\main.c      ****         #endif /* CYBLE_BONDING_REQUIREMENT == CYBLE_BONDING_YES */
 462:.\main.c      ****         }
 463:.\main.c      ****     }
 1205              		.loc 1 463 0
 1206 0182 94E7     		b	.L70
 1207              	.L72:
 1208              		.align	2
 1209              	.L71:
 1210 0184 68030000 		.word	.LC56
 1211 0188 00000000 		.word	AppCallBack
 1212 018c 88030000 		.word	.LC59
 1213 0190 A8030000 		.word	.LC61
 1214 0194 DC030000 		.word	.LC63
 1215 0198 00000000 		.word	cyBle_state
 1216 019c 00000000 		.word	suspend
 1217 01a0 00000000 		.word	authenticated
 1218 01a4 00000000 		.word	mainTimer
 1219 01a8 00000000 		.word	mouseSimulation
 1220 01ac 00000000 		.word	requestScanRefresh
 1221 01b0 00000000 		.word	cyBle_connHandle
 1222 01b4 00000000 		.word	cyBle_pendingFlashWrite
 1223 01b8 08022440 		.word	1076101640
 1224 01bc FC030000 		.word	.LC73
 1225              		.cfi_endproc
 1226              	.LFE42:
 1227              		.size	main, .-main
 1228              		.data
 1229 0002 0000     		.align	2
 1230              		.type	ledTimer.8146, %object
 1231              		.size	ledTimer.8146, 4
 1232              	ledTimer.8146:
 1233 0004 0A000000 		.word	10
 1234              		.type	led.8145, %object
 1235              		.size	led.8145, 1
 1236              	led.8145:
 1237 0008 01       		.byte	1
 1238 0009 000000   		.text
 1239              	.Letext0:
 1240              		.file 2 "Generated_Source\\PSoC4/cytypes.h"
 1241              		.file 3 "Generated_Source\\PSoC4/BLE_Stack.h"
ARM GAS  C:\Users\Herry\AppData\Local\Temp\ccRVhSEd.s 			page 33


 1242              		.file 4 "Generated_Source\\PSoC4/BLE_StackGap.h"
 1243              		.file 5 "Generated_Source\\PSoC4/BLE_StackGatt.h"
 1244              		.file 6 "Generated_Source\\PSoC4/BLE_StackGattServer.h"
 1245              		.file 7 "Generated_Source\\PSoC4/BLE_dis.h"
 1246              		.file 8 "Generated_Source\\PSoC4/BLE_scps.h"
 1247              		.file 9 "Generated_Source\\PSoC4/BLE_eventHandler.h"
 1248              		.file 10 "Generated_Source\\PSoC4/BLE.h"
 1249              		.file 11 ".\\hids.h"
 1250              		.file 12 ".\\scps.h"